

Microchip MPLAB XC8 Assembler V2.46 build 20240104201356 
                                                                                               Fri Nov 08 20:12:22 2024

Microchip MPLAB XC8 C Compiler v2.46 (Free license) build 20240104201356 Og1 
     1                           	processor	18F4620
     2                           	fnconf	rparam,??,?,0
     3                           	pagewidth 120
     4                           	opt	flic
     5                           	psect	idataCOMRAM,global,class=CODE,delta=1,noexec
     6                           	psect	cinit,global,reloc=2,class=CODE,delta=1
     7                           	psect	bssCOMRAM,global,class=COMRAM,space=1,delta=1,lowdata,noexec
     8                           	psect	dataCOMRAM,global,class=COMRAM,space=1,delta=1,lowdata,noexec
     9                           	psect	cstackBANK0,global,class=BANK0,space=1,delta=1,lowdata,noexec
    10                           	psect	cstackCOMRAM,global,class=COMRAM,space=1,delta=1,lowdata,noexec
    11                           	psect	text0,global,reloc=2,class=CODE,delta=1
    12                           	psect	text1,global,reloc=2,class=CODE,delta=1
    13                           	psect	text2,global,reloc=2,class=CODE,delta=1
    14                           	psect	text3,global,reloc=2,class=CODE,delta=1
    15                           	psect	text4,global,reloc=2,class=CODE,delta=1
    16                           	psect	text5,global,reloc=2,class=CODE,delta=1
    17                           	psect	text6,global,reloc=2,class=CODE,delta=1
    18                           	psect	text7,global,reloc=2,class=CODE,delta=1
    19                           	psect	text8,global,reloc=2,class=CODE,delta=1
    20                           	psect	text9,global,reloc=2,class=CODE,delta=1
    21                           	psect	text10,global,reloc=2,class=CODE,delta=1
    22                           	psect	text11,global,reloc=2,class=CODE,delta=1
    23                           	psect	text12,global,reloc=2,class=CODE,delta=1
    24                           	psect	text13,global,reloc=2,class=CODE,delta=1
    25                           	psect	text14,global,reloc=2,class=CODE,delta=1
    26                           	psect	text15,global,reloc=2,class=CODE,delta=1
    27                           	psect	text16,global,reloc=2,class=CODE,delta=1
    28                           	psect	intcodelo,global,reloc=2,class=CODE,delta=1
    29                           	psect	text18,global,reloc=2,class=CODE,delta=1
    30                           	psect	text19,global,reloc=2,class=CODE,delta=1
    31                           	psect	text20,global,reloc=2,class=CODE,delta=1
    32                           	psect	text21,global,reloc=2,class=CODE,delta=1
    33                           	psect	text22,global,reloc=2,class=CODE,delta=1
    34                           	psect	text23,global,reloc=2,class=CODE,delta=1
    35                           	psect	intcode,global,reloc=2,class=CODE,delta=1
    36                           	psect	intcode_body,global,reloc=2,class=CODE,delta=1
    37                           	psect	text25,global,reloc=2,class=CODE,delta=1
    38                           	psect	text26,global,reloc=2,class=CODE,delta=1
    39                           	psect	text27,global,reloc=2,class=CODE,delta=1
    40                           	psect	text28,global,reloc=2,class=CODE,delta=1
    41                           	psect	text29,global,reloc=2,class=CODE,delta=1
    42                           	psect	text30,global,reloc=2,class=CODE,delta=1
    43                           	psect	text31,global,reloc=2,class=CODE,delta=1
    44                           	psect	smallconst,global,reloc=2,class=SMALLCONST,delta=1,noexec
    45                           	psect	intsave_regs,global,class=BIGRAM,space=1,delta=1,noexec
    46                           	psect	rparam,global,class=COMRAM,space=1,delta=1,noexec
    47                           	psect	temp,global,ovrld,common,class=COMRAM,space=1,delta=1,lowdata
    48                           	psect	config,global,abs,ovrld,class=CONFIG,space=4,delta=1,noexec
    49   000000                     
    50                           ; Generated 17/10/2023 GMT
    51                           ; 
    52                           ; Copyright © 2023, Microchip Technology Inc. and its subsidiaries ("Microchip")
    53                           ; All rights reserved.
    54                           ; 
    55                           ; This software is developed by Microchip Technology Inc. and its subsidiaries ("Microch
      +                          ip").
    56                           ; 
    57                           ; Redistribution and use in source and binary forms, with or without modification, are
    58                           ; permitted provided that the following conditions are met:
    59                           ; 
    60                           ;     1. Redistributions of source code must retain the above copyright notice, this lis
      +                          t of
    61                           ;        conditions and the following disclaimer.
    62                           ; 
    63                           ;     2. Redistributions in binary form must reproduce the above copyright notice, this 
      +                          list
    64                           ;        of conditions and the following disclaimer in the documentation and/or other
    65                           ;        materials provided with the distribution. Publication is not required when
    66                           ;        this file is used in an embedded application.
    67                           ; 
    68                           ;     3. Microchip's name may not be used to endorse or promote products derived from th
      +                          is
    69                           ;        software without specific prior written permission.
    70                           ; 
    71                           ; THIS SOFTWARE IS PROVIDED BY MICROCHIP "AS IS" AND ANY EXPRESS OR IMPLIED WARRANTIES,
    72                           ; INCLUDING, BUT NOT LIMITED TO, THE IMPLIED WARRANTIES OF MERCHANTABILITY AND FITNESS F
      +                          OR
    73                           ; PURPOSE ARE DISCLAIMED.  IN NO EVENT SHALL MICROCHIP BE LIABLE FOR ANY DIRECT, INDIREC
      +                          T,
    74                           ; INCIDENTAL, SPECIAL, EXEMPLARY, OR CONSEQUENTIAL DAMAGES (INCLUDING BUT NOT LIMITED TO
    75                           ; PROCUREMENT OF SUBSTITUTE GOODS OR SERVICES; LOSS OF USE, DATA OR PROFITS; OR BUSINESS
    76                           ; INTERRUPTION) HOWSOEVER CAUSED AND ON ANY THEORY OF LIABILITY, WHETHER IN CONTRACT, ST
      +                          RICT
    77                           ; LIABILITY, OR TORT (INCLUDING NEGLIGENCE OR OTHERWISE) ARISING IN ANY WAY OUT OF THE U
      +                          SE OF
    78                           ; THIS SOFTWARE, EVEN IF ADVISED OF THE POSSIBILITY OF SUCH DAMAGE.
    79                           ; 
    80                           ; 
    81                           ; Code-generator required, PIC18F4620 Definitions
    82                           ; 
    83                           ; SFR Addresses
    84   000000                     
    85                           	psect	idataCOMRAM
    86   001B28                     __pidataCOMRAM:
    87                           	callstack 0
    88                           
    89                           ;initializer for _port_registers
    90   001B28  80                 	db	128
    91   001B29  0F                 	db	15
    92   001B2A  81                 	db	129
    93   001B2B  0F                 	db	15
    94   001B2C  82                 	db	130
    95   001B2D  0F                 	db	15
    96   001B2E  83                 	db	131
    97   001B2F  0F                 	db	15
    98   001B30  84                 	db	132
    99   001B31  0F                 	db	15
   100                           
   101                           ;initializer for _lat_registers
   102   001B32  89                 	db	137
   103   001B33  0F                 	db	15
   104   001B34  8A                 	db	138
   105   001B35  0F                 	db	15
   106   001B36  8B                 	db	139
   107   001B37  0F                 	db	15
   108   001B38  8C                 	db	140
   109   001B39  0F                 	db	15
   110   001B3A  8D                 	db	141
   111   001B3B  0F                 	db	15
   112                           
   113                           ;initializer for _tris_registers
   114   001B3C  92                 	db	146
   115   001B3D  0F                 	db	15
   116   001B3E  93                 	db	147
   117   001B3F  0F                 	db	15
   118   001B40  94                 	db	148
   119   001B41  0F                 	db	15
   120   001B42  95                 	db	149
   121   001B43  0F                 	db	15
   122   001B44  96                 	db	150
   123   001B45  0F                 	db	15
   124                           
   125                           ;initializer for _int2_obj
   126   001B46  EE                 	db	low _Int2_APP_ISR
   127   001B47  1A                 	db	high _Int2_APP_ISR
   128   001B48  51                 	db	81
   129   001B49  01                 	db	1
   130   001B4A  02                 	db	2
   131   001B4B  01                 	db	1
   132                           
   133                           ;initializer for _int1_obj
   134   001B4C  7A                 	db	low _Int1_APP_ISR
   135   001B4D  1A                 	db	high _Int1_APP_ISR
   136   001B4E  49                 	db	73
   137   001B4F  01                 	db	1
   138   001B50  01                 	db	1
   139   001B51  00                 	db	0
   140                           
   141                           ;initializer for _int0_obj
   142   001B52  B4                 	db	low _Int0_APP_ISR
   143   001B53  1A                 	db	high _Int0_APP_ISR
   144   001B54  41                 	db	65
   145   001B55  01                 	db	1
   146   001B56  00                 	db	0
   147   001B57  01                 	db	1
   148                           
   149                           ;initializer for _led2
   150   001B58  22                 	db	34
   151                           
   152                           ;initializer for _led1
   153   001B59  12                 	db	18
   154                           
   155                           ;initializer for _led0
   156   001B5A  02                 	db	2
   157   000000                     _INTCON2bits	set	4081
   158   000000                     _PORTE	set	3972
   159   000000                     _PORTD	set	3971
   160   000000                     _PORTC	set	3970
   161   000000                     _PORTB	set	3969
   162   000000                     _PORTA	set	3968
   163   000000                     _LATA	set	3977
   164   000000                     _TRISA	set	3986
   165   000000                     _RCONbits	set	4048
   166   000000                     _INTCON3bits	set	4080
   167   000000                     _INTCONbits	set	4082
   168   000000                     _TRISE	set	3990
   169   000000                     _TRISD	set	3989
   170   000000                     _TRISC	set	3988
   171   000000                     _TRISB	set	3987
   172   000000                     _LATE	set	3981
   173   000000                     _LATD	set	3980
   174   000000                     _LATC	set	3979
   175   000000                     _LATB	set	3978
   176                           
   177                           ; #config settings
   178                           
   179                           	psect	cinit
   180   001A40                     __pcinit:
   181                           	callstack 0
   182   001A40                     start_initialization:
   183                           	callstack 0
   184   001A40                     __initialization:
   185                           	callstack 0
   186                           
   187                           ; Initialize objects allocated to COMRAM (51 bytes)
   188                           ; load TBLPTR registers with __pidataCOMRAM
   189   001A40  0E28               	movlw	low __pidataCOMRAM
   190   001A42  6EF6               	movwf	tblptrl,c
   191   001A44  0E1B               	movlw	high __pidataCOMRAM
   192   001A46  6EF7               	movwf	tblptrh,c
   193   001A48  0E00               	movlw	low (__pidataCOMRAM shr (0+16))
   194   001A4A  6EF8               	movwf	tblptru,c
   195   001A4C  EE00  F001         	lfsr	0,__pdataCOMRAM
   196   001A50  EE10 F033          	lfsr	1,51
   197   001A54                     copy_data0:
   198   001A54  0009               	tblrd		*+
   199   001A56  CFF5 FFEE          	movff	tablat,postinc0
   200   001A5A  50E5               	movf	postdec1,w,c
   201   001A5C  50E1               	movf	fsr1l,w,c
   202   001A5E  E1FA               	bnz	copy_data0
   203                           
   204                           ; Clear objects allocated to COMRAM (10 bytes)
   205   001A60  EE00  F057         	lfsr	0,__pbssCOMRAM
   206   001A64  0E0A               	movlw	10
   207   001A66                     clear_0:
   208   001A66  6AEE               	clrf	postinc0,c
   209   001A68  06E8               	decf	wreg,f,c
   210   001A6A  E1FD               	bnz	clear_0
   211   001A6C                     end_of_initialization:
   212                           	callstack 0
   213   001A6C                     __end_of__initialization:
   214                           	callstack 0
   215   001A6C  9061               	bcf	int$flags,0,c	;clear compiler interrupt flag (level 1)
   216   001A6E  9261               	bcf	int$flags,1,c	;clear compiler interrupt flag (level 2)
   217   001A70  0E00               	movlw	low (__Lmediumconst shr (0+16))
   218   001A72  6EF8               	movwf	tblptru,c
   219   001A74  0100               	movlb	0
   220   001A76  EF87  F00E         	goto	_main	;jump to C main() function
   221                           
   222                           	psect	bssCOMRAM
   223   000057                     __pbssCOMRAM:
   224                           	callstack 0
   225   000057                     _INT2_InterruptHandler:
   226                           	callstack 0
   227   000057                     	ds	2
   228   000059                     _INT1_InterruptHandler:
   229                           	callstack 0
   230   000059                     	ds	2
   231   00005B                     _INT0_InterruptHandler:
   232                           	callstack 0
   233   00005B                     	ds	2
   234   00005D                     led_turn_toggle@F3077:
   235                           	callstack 0
   236   00005D                     	ds	1
   237   00005E                     led_turn_off@F3072:
   238                           	callstack 0
   239   00005E                     	ds	1
   240   00005F                     led_turn_on@F3067:
   241                           	callstack 0
   242   00005F                     	ds	1
   243   000060                     led_intialize@F3062:
   244                           	callstack 0
   245   000060                     	ds	1
   246                           
   247                           	psect	dataCOMRAM
   248   000001                     __pdataCOMRAM:
   249                           	callstack 0
   250   000001                     _port_registers:
   251                           	callstack 0
   252   000001                     	ds	10
   253   00000B                     _lat_registers:
   254                           	callstack 0
   255   00000B                     	ds	10
   256   000015                     _tris_registers:
   257                           	callstack 0
   258   000015                     	ds	10
   259   00001F                     _int2_obj:
   260                           	callstack 0
   261   00001F                     	ds	6
   262   000025                     _int1_obj:
   263                           	callstack 0
   264   000025                     	ds	6
   265   00002B                     _int0_obj:
   266                           	callstack 0
   267   00002B                     	ds	6
   268   000031                     _led2:
   269                           	callstack 0
   270   000031                     	ds	1
   271   000032                     _led1:
   272                           	callstack 0
   273   000032                     	ds	1
   274   000033                     _led0:
   275                           	callstack 0
   276   000033                     	ds	1
   277                           
   278                           	psect	cstackBANK0
   279   000080                     __pcstackBANK0:
   280                           	callstack 0
   281   000080                     gpio_pin_direction_intialize@_pin_config:
   282                           	callstack 0
   283   000080                     gpio_pin_write_logic@_pin_config:
   284                           	callstack 0
   285   000080                     Interrupt_INTx_Enable@int_obj:
   286                           	callstack 0
   287   000080                     Interrupt_INTx_Disable@int_obj:
   288                           	callstack 0
   289   000080                     Interrupt_INTx_Priority_Init@int_obj:
   290                           	callstack 0
   291   000080                     Interrupt_INTx_Edge_Init@int_obj:
   292                           	callstack 0
   293   000080                     Interrupt_INTx_Clear_Flag@int_obj:
   294                           	callstack 0
   295   000080                     INT0_SetInterruptHandler@InterruptHandler:
   296                           	callstack 0
   297   000080                     INT1_SetInterruptHandler@InterruptHandler:
   298                           	callstack 0
   299   000080                     INT2_SetInterruptHandler@InterruptHandler:
   300                           	callstack 0
   301                           
   302                           ; 2 bytes @ 0x0
   303   000080                     	ds	1
   304   000081                     ??_gpio_pin_direction_intialize:
   305   000081                     ??_Interrupt_INTx_Disable:
   306   000081                     ??_Interrupt_INTx_Clear_Flag:
   307   000081                     ??_Interrupt_INTx_Edge_Init:
   308   000081                     ??_Interrupt_INTx_Priority_Init:
   309   000081                     ??_Interrupt_INTx_Enable:
   310   000081                     gpio_pin_write_logic@logic:
   311                           	callstack 0
   312                           
   313                           ; 1 bytes @ 0x1
   314   000081                     	ds	1
   315   000082                     ??_gpio_pin_write_logic:
   316   000082                     Interrupt_INTx_SetInterruptHandler@int_obj:
   317                           	callstack 0
   318                           
   319                           ; 1 bytes @ 0x2
   320   000082                     	ds	1
   321   000083                     ??_Interrupt_INTx_SetInterruptHandler:
   322   000083                     Interrupt_INTx_Enable@ret:
   323                           	callstack 0
   324   000083                     Interrupt_INTx_Edge_Init@ret:
   325                           	callstack 0
   326   000083                     Interrupt_INTx_Clear_Flag@ret:
   327                           	callstack 0
   328                           
   329                           ; 1 bytes @ 0x3
   330   000083                     	ds	3
   331   000086                     gpio_pin_direction_intialize@ret:
   332                           	callstack 0
   333                           
   334                           ; 1 bytes @ 0x6
   335   000086                     	ds	1
   336   000087                     gpio_pin_write_logic@ret:
   337                           	callstack 0
   338   000087                     Interrupt_INTx_Pin_Init@int_obj:
   339                           	callstack 0
   340                           
   341                           ; 1 bytes @ 0x7
   342   000087                     	ds	1
   343   000088                     gpio_pin_intialize@_pin_config:
   344                           	callstack 0
   345   000088                     Interrupt_INTx_Pin_Init@ret:
   346                           	callstack 0
   347                           
   348                           ; 1 bytes @ 0x8
   349   000088                     	ds	1
   350   000089                     ??_gpio_pin_intialize:
   351   000089                     Interrupt_INTx_Init@int_obj:
   352                           	callstack 0
   353                           
   354                           ; 1 bytes @ 0x9
   355   000089                     	ds	1
   356   00008A                     gpio_pin_intialize@ret:
   357                           	callstack 0
   358   00008A                     Interrupt_INTx_Init@ret:
   359                           	callstack 0
   360                           
   361                           ; 1 bytes @ 0xA
   362   00008A                     	ds	1
   363   00008B                     led_intialize@led:
   364                           	callstack 0
   365                           
   366                           ; 1 bytes @ 0xB
   367   00008B                     	ds	1
   368   00008C                     ??_led_intialize:
   369                           
   370                           ; 1 bytes @ 0xC
   371   00008C                     	ds	1
   372   00008D                     led_intialize@ret:
   373                           	callstack 0
   374                           
   375                           ; 1 bytes @ 0xD
   376   00008D                     	ds	1
   377   00008E                     led_intialize@pin_obj:
   378                           	callstack 0
   379                           
   380                           ; 1 bytes @ 0xE
   381   00008E                     	ds	1
   382   00008F                     
   383                           ; 1 bytes @ 0xF
   384                           
   385                           	psect	cstackCOMRAM
   386   000034                     __pcstackCOMRAM:
   387                           	callstack 0
   388   000034                     i2gpio_pin_toggle_logic@_pin_config:
   389                           	callstack 0
   390                           
   391                           ; 1 bytes @ 0x0
   392   000034                     	ds	1
   393   000035                     ??i2_gpio_pin_toggle_logic:
   394                           
   395                           ; 1 bytes @ 0x1
   396   000035                     	ds	4
   397   000039                     i2led_turn_toggle@led:
   398                           	callstack 0
   399                           
   400                           ; 1 bytes @ 0x5
   401   000039                     	ds	1
   402   00003A                     ??i2_led_turn_toggle:
   403                           
   404                           ; 1 bytes @ 0x6
   405   00003A                     	ds	1
   406   00003B                     i2led_turn_toggle@pin_obj:
   407                           	callstack 0
   408                           
   409                           ; 1 bytes @ 0x7
   410   00003B                     	ds	1
   411   00003C                     ??i2_Int0_APP_ISR:
   412   00003C                     ??i2_Int1_APP_ISR:
   413   00003C                     ??i2_Int2_APP_ISR:
   414                           
   415                           ; 1 bytes @ 0x8
   416   00003C                     	ds	1
   417   00003D                     i2Int0_APP_ISR@i:
   418                           	callstack 0
   419   00003D                     i2Int1_APP_ISR@i:
   420                           	callstack 0
   421   00003D                     i2Int2_APP_ISR@i:
   422                           	callstack 0
   423                           
   424                           ; 1 bytes @ 0x9
   425   00003D                     	ds	1
   426   00003E                     ??_InterruptManagerHigh:
   427                           
   428                           ; 1 bytes @ 0xA
   429   00003E                     	ds	6
   430   000044                     gpio_pin_toggle_logic@_pin_config:
   431                           	callstack 0
   432                           
   433                           ; 1 bytes @ 0x10
   434   000044                     	ds	1
   435   000045                     ??_gpio_pin_toggle_logic:
   436                           
   437                           ; 1 bytes @ 0x11
   438   000045                     	ds	4
   439   000049                     led_turn_toggle@led:
   440                           	callstack 0
   441                           
   442                           ; 1 bytes @ 0x15
   443   000049                     	ds	1
   444   00004A                     ??_led_turn_toggle:
   445                           
   446                           ; 1 bytes @ 0x16
   447   00004A                     	ds	1
   448   00004B                     led_turn_toggle@pin_obj:
   449                           	callstack 0
   450                           
   451                           ; 1 bytes @ 0x17
   452   00004B                     	ds	1
   453   00004C                     ??_Int0_APP_ISR:
   454   00004C                     ??_Int1_APP_ISR:
   455   00004C                     ??_Int2_APP_ISR:
   456                           
   457                           ; 1 bytes @ 0x18
   458   00004C                     	ds	1
   459   00004D                     Int0_APP_ISR@i:
   460                           	callstack 0
   461   00004D                     Int1_APP_ISR@i:
   462                           	callstack 0
   463   00004D                     Int2_APP_ISR@i:
   464                           	callstack 0
   465                           
   466                           ; 1 bytes @ 0x19
   467   00004D                     	ds	1
   468   00004E                     ??_InterruptManagerLow:
   469                           
   470                           ; 1 bytes @ 0x1A
   471   00004E                     	ds	9
   472                           
   473 ;;
   474 ;;Main: autosize = 0, tempsize = 0, incstack = 0, save=0
   475 ;;
   476 ;; *************** function _main *****************
   477 ;; Defined at:
   478 ;;		line 38 in file "application.c"
   479 ;; Parameters:    Size  Location     Type
   480 ;;		None
   481 ;; Auto vars:     Size  Location     Type
   482 ;;  ret             1    0        unsigned char 
   483 ;; Return value:  Size  Location     Type
   484 ;;                  2  415[None  ] int 
   485 ;; Registers used:
   486 ;;		wreg, fsr2l, fsr2h, status,2, status,0, prodl, prodh, cstack
   487 ;; Tracked objects:
   488 ;;		On entry : 0/0
   489 ;;		On exit  : 0/0
   490 ;;		Unchanged: 0/0
   491 ;; Data sizes:     COMRAM   BANK0   BANK1   BANK2   BANK3   BANK4   BANK5   BANK6   BANK7   BANK8   BANK9  BANK10  BANK1
      +1  BANK12  BANK13  BANK14  BANK15
   492 ;;      Params:         0       0       0       0       0       0       0       0       0       0       0       0       
      +0       0       0       0       0
   493 ;;      Locals:         0       0       0       0       0       0       0       0       0       0       0       0       
      +0       0       0       0       0
   494 ;;      Temps:          0       0       0       0       0       0       0       0       0       0       0       0       
      +0       0       0       0       0
   495 ;;      Totals:         0       0       0       0       0       0       0       0       0       0       0       0       
      +0       0       0       0       0
   496 ;;Total ram usage:        0 bytes
   497 ;; Hardware stack levels required when called: 14
   498 ;; This function calls:
   499 ;;		_application_intialize
   500 ;; This function is called by:
   501 ;;		Startup code after reset
   502 ;; This function uses a non-reentrant model
   503 ;;
   504                           
   505                           	psect	text0
   506   001D0E                     __ptext0:
   507                           	callstack 0
   508   001D0E                     _main:
   509                           	callstack 17
   510   001D0E                     
   511                           ;application.c: 40:     application_intialize();
   512   001D0E  EC01  F00D         	call	_application_intialize	;wreg free
   513   001D12                     l416:
   514   001D12  EF89  F00E         	goto	l416
   515   001D16  EF43  F000         	goto	start
   516   001D1A                     __end_of_main:
   517                           	callstack 0
   518                           
   519 ;; *************** function _application_intialize *****************
   520 ;; Defined at:
   521 ;;		line 47 in file "application.c"
   522 ;; Parameters:    Size  Location     Type
   523 ;;		None
   524 ;; Auto vars:     Size  Location     Type
   525 ;;  ret             1    0        unsigned char 
   526 ;; Return value:  Size  Location     Type
   527 ;;                  1    wreg      void 
   528 ;; Registers used:
   529 ;;		wreg, fsr2l, fsr2h, status,2, status,0, prodl, prodh, cstack
   530 ;; Tracked objects:
   531 ;;		On entry : 0/0
   532 ;;		On exit  : 0/0
   533 ;;		Unchanged: 0/0
   534 ;; Data sizes:     COMRAM   BANK0   BANK1   BANK2   BANK3   BANK4   BANK5   BANK6   BANK7   BANK8   BANK9  BANK10  BANK1
      +1  BANK12  BANK13  BANK14  BANK15
   535 ;;      Params:         0       0       0       0       0       0       0       0       0       0       0       0       
      +0       0       0       0       0
   536 ;;      Locals:         0       0       0       0       0       0       0       0       0       0       0       0       
      +0       0       0       0       0
   537 ;;      Temps:          0       0       0       0       0       0       0       0       0       0       0       0       
      +0       0       0       0       0
   538 ;;      Totals:         0       0       0       0       0       0       0       0       0       0       0       0       
      +0       0       0       0       0
   539 ;;Total ram usage:        0 bytes
   540 ;; Hardware stack levels used: 1
   541 ;; Hardware stack levels required when called: 13
   542 ;; This function calls:
   543 ;;		_Interrupt_INTx_Init
   544 ;;		_led_intialize
   545 ;; This function is called by:
   546 ;;		_main
   547 ;; This function uses a non-reentrant model
   548 ;;
   549                           
   550                           	psect	text1
   551   001A02                     __ptext1:
   552                           	callstack 0
   553   001A02                     _application_intialize:
   554                           	callstack 17
   555   001A02  0E33               	movlw	low _led0
   556   001A04  0100               	movlb	0	; () banked
   557   001A06  6F8B               	movwf	led_intialize@led& (0+255),b
   558   001A08  EC55  F00B         	call	_led_intialize	;wreg free
   559   001A0C  0E32               	movlw	low _led1
   560   001A0E  0100               	movlb	0	; () banked
   561   001A10  6F8B               	movwf	led_intialize@led& (0+255),b
   562   001A12  EC55  F00B         	call	_led_intialize	;wreg free
   563   001A16  0E31               	movlw	low _led2
   564   001A18  0100               	movlb	0	; () banked
   565   001A1A  6F8B               	movwf	led_intialize@led& (0+255),b
   566   001A1C  EC55  F00B         	call	_led_intialize	;wreg free
   567   001A20  0E2B               	movlw	low _int0_obj
   568   001A22  0100               	movlb	0	; () banked
   569   001A24  6F89               	movwf	Interrupt_INTx_Init@int_obj& (0+255),b
   570   001A26  EC03  F00C         	call	_Interrupt_INTx_Init	;wreg free
   571   001A2A  0E25               	movlw	low _int1_obj
   572   001A2C  0100               	movlb	0	; () banked
   573   001A2E  6F89               	movwf	Interrupt_INTx_Init@int_obj& (0+255),b
   574   001A30  EC03  F00C         	call	_Interrupt_INTx_Init	;wreg free
   575   001A34  0E1F               	movlw	low _int2_obj
   576   001A36  0100               	movlb	0	; () banked
   577   001A38  6F89               	movwf	Interrupt_INTx_Init@int_obj& (0+255),b
   578   001A3A  EC03  F00C         	call	_Interrupt_INTx_Init	;wreg free
   579   001A3E  0012               	return		;funcret
   580   001A40                     __end_of_application_intialize:
   581                           	callstack 0
   582                           
   583 ;; *************** function _led_intialize *****************
   584 ;; Defined at:
   585 ;;		line 15 in file "ECU_Layer/led/led.c"
   586 ;; Parameters:    Size  Location     Type
   587 ;;  led             1   11[BANK0 ] PTR const struct .
   588 ;;		 -> led2(1), led1(1), led0(1), 
   589 ;; Auto vars:     Size  Location     Type
   590 ;;  pin_obj         1   14[BANK0 ] struct .
   591 ;;  ret             1   13[BANK0 ] unsigned char 
   592 ;; Return value:  Size  Location     Type
   593 ;;                  1    wreg      unsigned char 
   594 ;; Registers used:
   595 ;;		wreg, fsr2l, fsr2h, status,2, status,0, prodl, prodh, cstack
   596 ;; Tracked objects:
   597 ;;		On entry : 0/0
   598 ;;		On exit  : 0/0
   599 ;;		Unchanged: 0/0
   600 ;; Data sizes:     COMRAM   BANK0   BANK1   BANK2   BANK3   BANK4   BANK5   BANK6   BANK7   BANK8   BANK9  BANK10  BANK1
      +1  BANK12  BANK13  BANK14  BANK15
   601 ;;      Params:         0       1       0       0       0       0       0       0       0       0       0       0       
      +0       0       0       0       0
   602 ;;      Locals:         0       2       0       0       0       0       0       0       0       0       0       0       
      +0       0       0       0       0
   603 ;;      Temps:          0       1       0       0       0       0       0       0       0       0       0       0       
      +0       0       0       0       0
   604 ;;      Totals:         0       4       0       0       0       0       0       0       0       0       0       0       
      +0       0       0       0       0
   605 ;;Total ram usage:        4 bytes
   606 ;; Hardware stack levels used: 1
   607 ;; Hardware stack levels required when called: 12
   608 ;; This function calls:
   609 ;;		_gpio_pin_intialize
   610 ;; This function is called by:
   611 ;;		_application_intialize
   612 ;; This function uses a non-reentrant model
   613 ;;
   614                           
   615                           	psect	text2
   616   0016AA                     __ptext2:
   617                           	callstack 0
   618   0016AA                     _led_intialize:
   619                           	callstack 17
   620   0016AA                     
   621                           ;ECU_Layer/led/led.c: 16:     Std_ReturnType ret = (Std_ReturnType)0x01 ;
   622   0016AA  0E01               	movlw	1
   623   0016AC  0100               	movlb	0	; () banked
   624   0016AE  6F8D               	movwf	led_intialize@ret& (0+255),b
   625                           
   626                           ;ECU_Layer/led/led.c: 17:     if(((void*)0) == led){
   627   0016B0  518B               	movf	led_intialize@led& (0+255),w,b
   628   0016B2  A4D8               	btfss	status,2,c
   629   0016B4  EF5E  F00B         	goto	u2031
   630   0016B8  EF60  F00B         	goto	u2030
   631   0016BC                     u2031:
   632   0016BC  EF64  F00B         	goto	l9
   633   0016C0                     u2030:
   634   0016C0                     
   635                           ; BSR set to: 0
   636                           ;ECU_Layer/led/led.c: 18:         ret = (Std_ReturnType)0x00 ;
   637   0016C0  0E00               	movlw	0
   638   0016C2  6F8D               	movwf	led_intialize@ret& (0+255),b
   639                           
   640                           ;ECU_Layer/led/led.c: 19:     }else{
   641   0016C4  EF8D  F00B         	goto	l2577
   642   0016C8                     l9:
   643                           
   644                           ; BSR set to: 0
   645                           ;ECU_Layer/led/led.c: 20:         pin_config_t pin_obj ={
   646   0016C8  C060  F08E         	movff	led_intialize@F3062,led_intialize@pin_obj
   647   0016CC                     
   648                           ; BSR set to: 0
   649   0016CC  518B               	movf	led_intialize@led& (0+255),w,b
   650   0016CE  6ED9               	movwf	fsr2l,c
   651   0016D0  6ADA               	clrf	fsr2h,c
   652   0016D2  50DF               	movf	223,w,c
   653   0016D4  0B0F               	andlw	15
   654   0016D6  6F8C               	movwf	??_led_intialize& (0+255),b
   655   0016D8  518E               	movf	led_intialize@pin_obj& (0+255),w,b
   656   0016DA  198C               	xorwf	??_led_intialize& (0+255),w,b
   657   0016DC  0BF8               	andlw	-8
   658   0016DE  198C               	xorwf	??_led_intialize& (0+255),w,b
   659   0016E0  6F8E               	movwf	led_intialize@pin_obj& (0+255),b
   660   0016E2  518B               	movf	led_intialize@led& (0+255),w,b
   661   0016E4  6ED9               	movwf	fsr2l,c
   662   0016E6  6ADA               	clrf	fsr2h,c
   663   0016E8  38DF               	swapf	223,w,c
   664   0016EA  0B07               	andlw	7
   665   0016EC  6F8C               	movwf	??_led_intialize& (0+255),b
   666   0016EE  478C               	rlncf	??_led_intialize& (0+255),f,b
   667   0016F0  478C               	rlncf	??_led_intialize& (0+255),f,b
   668   0016F2  478C               	rlncf	??_led_intialize& (0+255),f,b
   669   0016F4  518E               	movf	led_intialize@pin_obj& (0+255),w,b
   670   0016F6  198C               	xorwf	??_led_intialize& (0+255),w,b
   671   0016F8  0BC7               	andlw	-57
   672   0016FA  198C               	xorwf	??_led_intialize& (0+255),w,b
   673   0016FC  6F8E               	movwf	led_intialize@pin_obj& (0+255),b
   674   0016FE                     
   675                           ; BSR set to: 0
   676   0016FE  9D8E               	bcf	led_intialize@pin_obj& (0+255),6,b
   677   001700                     
   678                           ; BSR set to: 0
   679   001700  518B               	movf	led_intialize@led& (0+255),w,b
   680   001702  6ED9               	movwf	fsr2l,c
   681   001704  6ADA               	clrf	fsr2h,c
   682   001706  AEDF               	btfss	indf2,7,c
   683   001708  D002               	bra	u2045
   684   00170A  8F8E               	bsf	led_intialize@pin_obj& (0+255),7,b
   685   00170C  D002               	bra	u2047
   686   00170E                     u2045:
   687   00170E  0100               	movlb	0	; () banked
   688   001710  9F8E               	bcf	led_intialize@pin_obj& (0+255),7,b
   689   001712                     u2047:
   690   001712                     
   691                           ; BSR set to: 0
   692                           ;ECU_Layer/led/led.c: 26:         gpio_pin_intialize(&pin_obj);
   693   001712  0E8E               	movlw	low led_intialize@pin_obj
   694   001714  6F88               	movwf	gpio_pin_intialize@_pin_config& (0+255),b
   695   001716  ECD2  F00C         	call	_gpio_pin_intialize	;wreg free
   696   00171A                     l2577:
   697                           
   698                           ;ECU_Layer/led/led.c: 28:     return ret ;
   699   00171A  0100               	movlb	0	; () banked
   700   00171C  518D               	movf	led_intialize@ret& (0+255),w,b
   701   00171E                     
   702                           ; BSR set to: 0
   703   00171E  0012               	return		;funcret
   704   001720                     __end_of_led_intialize:
   705                           	callstack 0
   706                           
   707 ;; *************** function _gpio_pin_intialize *****************
   708 ;; Defined at:
   709 ;;		line 133 in file "MCAL_Layer/GPIO/hal_gpio.c"
   710 ;; Parameters:    Size  Location     Type
   711 ;;  _pin_config     1    8[BANK0 ] PTR const struct .
   712 ;;		 -> led_intialize@pin_obj(1), 
   713 ;; Auto vars:     Size  Location     Type
   714 ;;  ret             1   10[BANK0 ] unsigned char 
   715 ;; Return value:  Size  Location     Type
   716 ;;                  1    wreg      unsigned char 
   717 ;; Registers used:
   718 ;;		wreg, fsr2l, fsr2h, status,2, status,0, prodl, prodh, cstack
   719 ;; Tracked objects:
   720 ;;		On entry : 0/0
   721 ;;		On exit  : 0/0
   722 ;;		Unchanged: 0/0
   723 ;; Data sizes:     COMRAM   BANK0   BANK1   BANK2   BANK3   BANK4   BANK5   BANK6   BANK7   BANK8   BANK9  BANK10  BANK1
      +1  BANK12  BANK13  BANK14  BANK15
   724 ;;      Params:         0       1       0       0       0       0       0       0       0       0       0       0       
      +0       0       0       0       0
   725 ;;      Locals:         0       1       0       0       0       0       0       0       0       0       0       0       
      +0       0       0       0       0
   726 ;;      Temps:          0       1       0       0       0       0       0       0       0       0       0       0       
      +0       0       0       0       0
   727 ;;      Totals:         0       3       0       0       0       0       0       0       0       0       0       0       
      +0       0       0       0       0
   728 ;;Total ram usage:        3 bytes
   729 ;; Hardware stack levels used: 1
   730 ;; Hardware stack levels required when called: 11
   731 ;; This function calls:
   732 ;;		_gpio_pin_direction_intialize
   733 ;;		_gpio_pin_write_logic
   734 ;; This function is called by:
   735 ;;		_led_intialize
   736 ;; This function uses a non-reentrant model
   737 ;;
   738                           
   739                           	psect	text3
   740   0019A4                     __ptext3:
   741                           	callstack 0
   742   0019A4                     _gpio_pin_intialize:
   743                           	callstack 17
   744   0019A4                     
   745                           ;MCAL_Layer/GPIO/hal_gpio.c: 135:      if(((void*)0)==_pin_config || _pin_config->pin >8
      +                           -1){
   746   0019A4  0100               	movlb	0	; () banked
   747   0019A6  5188               	movf	gpio_pin_intialize@_pin_config& (0+255),w,b
   748   0019A8  B4D8               	btfsc	status,2,c
   749   0019AA  EFD9  F00C         	goto	u1801
   750   0019AE  EFDB  F00C         	goto	u1800
   751   0019B2                     u1801:
   752   0019B2  EFEB  F00C         	goto	l2387
   753   0019B6                     u1800:
   754   0019B6                     
   755                           ; BSR set to: 0
   756   0019B6  5188               	movf	gpio_pin_intialize@_pin_config& (0+255),w,b
   757   0019B8  6ED9               	movwf	fsr2l,c
   758   0019BA  6ADA               	clrf	fsr2h,c
   759   0019BC  30DF               	rrcf	223,w,c
   760   0019BE  32E8               	rrcf	wreg,f,c
   761   0019C0  32E8               	rrcf	wreg,f,c
   762   0019C2  0B07               	andlw	7
   763   0019C4  6F89               	movwf	??_gpio_pin_intialize& (0+255),b
   764   0019C6  0E07               	movlw	7
   765   0019C8  6589               	cpfsgt	??_gpio_pin_intialize& (0+255),b
   766   0019CA  EFE9  F00C         	goto	u1811
   767   0019CE  EFEB  F00C         	goto	u1810
   768   0019D2                     u1811:
   769   0019D2  EFED  F00C         	goto	l2389
   770   0019D6                     u1810:
   771   0019D6                     l2387:
   772                           
   773                           ; BSR set to: 0
   774                           ;MCAL_Layer/GPIO/hal_gpio.c: 138:      }else{
   775   0019D6  EF00  F00D         	goto	l158
   776   0019DA                     l2389:
   777                           
   778                           ; BSR set to: 0
   779                           ;MCAL_Layer/GPIO/hal_gpio.c: 139:          ret = gpio_pin_direction_intialize( _pin_conf
      +                          ig );
   780   0019DA  C088  F080         	movff	gpio_pin_intialize@_pin_config,gpio_pin_direction_intialize@_pin_config
   781   0019DE  EC90  F008         	call	_gpio_pin_direction_intialize	;wreg free
   782   0019E2  0100               	movlb	0	; () banked
   783   0019E4  6F8A               	movwf	gpio_pin_intialize@ret& (0+255),b
   784                           
   785                           ;MCAL_Layer/GPIO/hal_gpio.c: 140:          ret = gpio_pin_write_logic(_pin_config ,_pin_
      +                          config-> logic);
   786   0019E6  C088  F080         	movff	gpio_pin_intialize@_pin_config,gpio_pin_write_logic@_pin_config
   787   0019EA  5188               	movf	gpio_pin_intialize@_pin_config& (0+255),w,b
   788   0019EC  6ED9               	movwf	fsr2l,c
   789   0019EE  6ADA               	clrf	fsr2h,c
   790   0019F0  0E00               	movlw	0
   791   0019F2  BEDF               	btfsc	indf2,7,c
   792   0019F4  0E01               	movlw	1
   793   0019F6  6F81               	movwf	gpio_pin_write_logic@logic& (0+255),b
   794   0019F8  EC1C  F009         	call	_gpio_pin_write_logic	;wreg free
   795   0019FC  0100               	movlb	0	; () banked
   796   0019FE  6F8A               	movwf	gpio_pin_intialize@ret& (0+255),b
   797   001A00                     l158:
   798                           
   799                           ; BSR set to: 0
   800   001A00  0012               	return		;funcret
   801   001A02                     __end_of_gpio_pin_intialize:
   802                           	callstack 0
   803                           
   804 ;; *************** function _gpio_pin_write_logic *****************
   805 ;; Defined at:
   806 ;;		line 70 in file "MCAL_Layer/GPIO/hal_gpio.c"
   807 ;; Parameters:    Size  Location     Type
   808 ;;  _pin_config     1    0[BANK0 ] PTR const struct .
   809 ;;		 -> led_turn_off@pin_obj(1), led_turn_on@pin_obj(1), led_intialize@pin_obj(1), 
   810 ;;  logic           1    1[BANK0 ] enum E2982
   811 ;; Auto vars:     Size  Location     Type
   812 ;;  ret             1    7[BANK0 ] unsigned char 
   813 ;; Return value:  Size  Location     Type
   814 ;;                  1    wreg      unsigned char 
   815 ;; Registers used:
   816 ;;		wreg, fsr2l, fsr2h, status,2, status,0, prodl, prodh
   817 ;; Tracked objects:
   818 ;;		On entry : 0/0
   819 ;;		On exit  : 0/0
   820 ;;		Unchanged: 0/0
   821 ;; Data sizes:     COMRAM   BANK0   BANK1   BANK2   BANK3   BANK4   BANK5   BANK6   BANK7   BANK8   BANK9  BANK10  BANK1
      +1  BANK12  BANK13  BANK14  BANK15
   822 ;;      Params:         0       2       0       0       0       0       0       0       0       0       0       0       
      +0       0       0       0       0
   823 ;;      Locals:         0       1       0       0       0       0       0       0       0       0       0       0       
      +0       0       0       0       0
   824 ;;      Temps:          0       5       0       0       0       0       0       0       0       0       0       0       
      +0       0       0       0       0
   825 ;;      Totals:         0       8       0       0       0       0       0       0       0       0       0       0       
      +0       0       0       0       0
   826 ;;Total ram usage:        8 bytes
   827 ;; Hardware stack levels used: 1
   828 ;; Hardware stack levels required when called: 10
   829 ;; This function calls:
   830 ;;		Nothing
   831 ;; This function is called by:
   832 ;;		_gpio_pin_intialize
   833 ;;		_led_turn_on
   834 ;;		_led_turn_off
   835 ;; This function uses a non-reentrant model
   836 ;;
   837                           
   838                           	psect	text4
   839   001238                     __ptext4:
   840                           	callstack 0
   841   001238                     _gpio_pin_write_logic:
   842                           	callstack 17
   843   001238                     
   844                           ;MCAL_Layer/GPIO/hal_gpio.c: 71:     Std_ReturnType ret = (Std_ReturnType)0x01 ;
   845   001238  0E01               	movlw	1
   846   00123A  0100               	movlb	0	; () banked
   847   00123C  6F87               	movwf	gpio_pin_write_logic@ret& (0+255),b
   848                           
   849                           ;MCAL_Layer/GPIO/hal_gpio.c: 72:     if(((void*)0)==_pin_config|| _pin_config->pin >8 -1
      +                           ){
   850   00123E  5180               	movf	gpio_pin_write_logic@_pin_config& (0+255),w,b
   851   001240  B4D8               	btfsc	status,2,c
   852   001242  EF25  F009         	goto	u1681
   853   001246  EF27  F009         	goto	u1680
   854   00124A                     u1681:
   855   00124A  EF37  F009         	goto	l2317
   856   00124E                     u1680:
   857   00124E                     
   858                           ; BSR set to: 0
   859   00124E  5180               	movf	gpio_pin_write_logic@_pin_config& (0+255),w,b
   860   001250  6ED9               	movwf	fsr2l,c
   861   001252  6ADA               	clrf	fsr2h,c
   862   001254  30DF               	rrcf	223,w,c
   863   001256  32E8               	rrcf	wreg,f,c
   864   001258  32E8               	rrcf	wreg,f,c
   865   00125A  0B07               	andlw	7
   866   00125C  6F82               	movwf	??_gpio_pin_write_logic& (0+255),b
   867   00125E  0E07               	movlw	7
   868   001260  6582               	cpfsgt	??_gpio_pin_write_logic& (0+255),b
   869   001262  EF35  F009         	goto	u1691
   870   001266  EF37  F009         	goto	u1690
   871   00126A                     u1691:
   872   00126A  EF90  F009         	goto	l2325
   873   00126E                     u1690:
   874   00126E                     l2317:
   875                           
   876                           ; BSR set to: 0
   877                           ;MCAL_Layer/GPIO/hal_gpio.c: 73:         ret = (Std_ReturnType)0x00;
   878   00126E  0E00               	movlw	0
   879   001270  6F87               	movwf	gpio_pin_write_logic@ret& (0+255),b
   880                           
   881                           ;MCAL_Layer/GPIO/hal_gpio.c: 74:     }else{
   882   001272  EFA5  F009         	goto	l2327
   883   001276                     l2319:
   884                           
   885                           ; BSR set to: 0
   886                           ;MCAL_Layer/GPIO/hal_gpio.c: 77:                 (*lat_registers[_pin_config->port] |= (
      +                          (uint8)1 << _pin_config->pin));
   887   001276  5180               	movf	gpio_pin_write_logic@_pin_config& (0+255),w,b
   888   001278  6ED9               	movwf	fsr2l,c
   889   00127A  6ADA               	clrf	fsr2h,c
   890   00127C  30DF               	rrcf	223,w,c
   891   00127E  32E8               	rrcf	wreg,f,c
   892   001280  32E8               	rrcf	wreg,f,c
   893   001282  0B07               	andlw	7
   894   001284  6F82               	movwf	??_gpio_pin_write_logic& (0+255),b
   895   001286  0E01               	movlw	1
   896   001288  6F83               	movwf	(??_gpio_pin_write_logic+1)& (0+255),b
   897   00128A  2B82               	incf	??_gpio_pin_write_logic& (0+255),f,b
   898   00128C  EF4A  F009         	goto	u1704
   899   001290                     u1705:
   900   001290  90D8               	bcf	status,0,c
   901   001292  3783               	rlcf	(??_gpio_pin_write_logic+1)& (0+255),f,b
   902   001294                     u1704:
   903   001294  2F82               	decfsz	??_gpio_pin_write_logic& (0+255),f,b
   904   001296  EF48  F009         	goto	u1705
   905   00129A  0100               	movlb	0	; () banked
   906   00129C  5180               	movf	gpio_pin_write_logic@_pin_config& (0+255),w,b
   907   00129E  6ED9               	movwf	fsr2l,c
   908   0012A0  6ADA               	clrf	fsr2h,c
   909   0012A2  50DF               	movf	223,w,c
   910   0012A4  0B07               	andlw	7
   911   0012A6  0D02               	mullw	2
   912   0012A8  50F3               	movf	243,w,c
   913   0012AA  0F0B               	addlw	low _lat_registers
   914   0012AC  6ED9               	movwf	fsr2l,c
   915   0012AE  6ADA               	clrf	fsr2h,c
   916   0012B0  CFDE F084          	movff	postinc2,??_gpio_pin_write_logic+2
   917   0012B4  CFDD F085          	movff	postdec2,??_gpio_pin_write_logic+3
   918   0012B8  C084  FFD9         	movff	??_gpio_pin_write_logic+2,fsr2l
   919   0012BC  C085  FFDA         	movff	??_gpio_pin_write_logic+3,fsr2h
   920   0012C0  5183               	movf	(??_gpio_pin_write_logic+1)& (0+255),w,b
   921   0012C2  12DF               	iorwf	indf2,f,c
   922                           
   923                           ;MCAL_Layer/GPIO/hal_gpio.c: 78:                 break;
   924   0012C4  EFA5  F009         	goto	l2327
   925   0012C8                     l2321:
   926                           
   927                           ; BSR set to: 0
   928                           ;MCAL_Layer/GPIO/hal_gpio.c: 80:                 (*lat_registers[_pin_config->port] &= ~
      +                          ((uint8)1 << _pin_config->pin));
   929   0012C8  5180               	movf	gpio_pin_write_logic@_pin_config& (0+255),w,b
   930   0012CA  6ED9               	movwf	fsr2l,c
   931   0012CC  6ADA               	clrf	fsr2h,c
   932   0012CE  30DF               	rrcf	223,w,c
   933   0012D0  32E8               	rrcf	wreg,f,c
   934   0012D2  32E8               	rrcf	wreg,f,c
   935   0012D4  0B07               	andlw	7
   936   0012D6  6F82               	movwf	??_gpio_pin_write_logic& (0+255),b
   937   0012D8  0E01               	movlw	1
   938   0012DA  6F83               	movwf	(??_gpio_pin_write_logic+1)& (0+255),b
   939   0012DC  2B82               	incf	??_gpio_pin_write_logic& (0+255),f,b
   940   0012DE  EF73  F009         	goto	u1714
   941   0012E2                     u1715:
   942   0012E2  90D8               	bcf	status,0,c
   943   0012E4  3783               	rlcf	(??_gpio_pin_write_logic+1)& (0+255),f,b
   944   0012E6                     u1714:
   945   0012E6  2F82               	decfsz	??_gpio_pin_write_logic& (0+255),f,b
   946   0012E8  EF71  F009         	goto	u1715
   947   0012EC  0100               	movlb	0	; () banked
   948   0012EE  5183               	movf	(??_gpio_pin_write_logic+1)& (0+255),w,b
   949   0012F0  0AFF               	xorlw	255
   950   0012F2  6F84               	movwf	(??_gpio_pin_write_logic+2)& (0+255),b
   951   0012F4  5180               	movf	gpio_pin_write_logic@_pin_config& (0+255),w,b
   952   0012F6  6ED9               	movwf	fsr2l,c
   953   0012F8  6ADA               	clrf	fsr2h,c
   954   0012FA  50DF               	movf	223,w,c
   955   0012FC  0B07               	andlw	7
   956   0012FE  0D02               	mullw	2
   957   001300  50F3               	movf	243,w,c
   958   001302  0F0B               	addlw	low _lat_registers
   959   001304  6ED9               	movwf	fsr2l,c
   960   001306  6ADA               	clrf	fsr2h,c
   961   001308  CFDE F085          	movff	postinc2,??_gpio_pin_write_logic+3
   962   00130C  CFDD F086          	movff	postdec2,??_gpio_pin_write_logic+4
   963   001310  C085  FFD9         	movff	??_gpio_pin_write_logic+3,fsr2l
   964   001314  C086  FFDA         	movff	??_gpio_pin_write_logic+4,fsr2h
   965   001318  5184               	movf	(??_gpio_pin_write_logic+2)& (0+255),w,b
   966   00131A  16DF               	andwf	indf2,f,c
   967                           
   968                           ;MCAL_Layer/GPIO/hal_gpio.c: 81:                 break;
   969   00131C  EFA5  F009         	goto	l2327
   970   001320                     l2325:
   971                           
   972                           ; BSR set to: 0
   973   001320  5181               	movf	gpio_pin_write_logic@logic& (0+255),w,b
   974   001322  6F82               	movwf	??_gpio_pin_write_logic& (0+255),b
   975   001324  6B83               	clrf	(??_gpio_pin_write_logic+1)& (0+255),b
   976                           
   977                           ; Switch on 2 bytes has been partitioned into a top level switch of size 1, and 1 sub-sw
      +                          itches
   978                           ; Switch size 1, requested type "simple"
   979                           ; Number of cases is 1, Range of values is 0 to 0
   980                           ; switch strategies available:
   981                           ; Name         Instructions Cycles
   982                           ; simple_byte            4     3 (average)
   983                           ;	Chosen strategy is simple_byte
   984   001326  5183               	movf	(??_gpio_pin_write_logic+1)& (0+255),w,b
   985   001328  0A00               	xorlw	0	; case 0
   986   00132A  B4D8               	btfsc	status,2,c
   987   00132C  EF9A  F009         	goto	l2847
   988   001330  EF37  F009         	goto	l2317
   989   001334                     l2847:
   990                           
   991                           ; BSR set to: 0
   992                           ; Switch size 1, requested type "simple"
   993                           ; Number of cases is 2, Range of values is 0 to 1
   994                           ; switch strategies available:
   995                           ; Name         Instructions Cycles
   996                           ; simple_byte            7     4 (average)
   997                           ;	Chosen strategy is simple_byte
   998   001334  5182               	movf	??_gpio_pin_write_logic& (0+255),w,b
   999   001336  0A00               	xorlw	0	; case 0
  1000   001338  B4D8               	btfsc	status,2,c
  1001   00133A  EF64  F009         	goto	l2321
  1002   00133E  0A01               	xorlw	1	; case 1
  1003   001340  B4D8               	btfsc	status,2,c
  1004   001342  EF3B  F009         	goto	l2319
  1005   001346  EF37  F009         	goto	l2317
  1006   00134A                     l2327:
  1007                           
  1008                           ; BSR set to: 0
  1009                           ;MCAL_Layer/GPIO/hal_gpio.c: 85:         return ret ;
  1010   00134A  5187               	movf	gpio_pin_write_logic@ret& (0+255),w,b
  1011   00134C                     
  1012                           ; BSR set to: 0
  1013   00134C  0012               	return		;funcret
  1014   00134E                     __end_of_gpio_pin_write_logic:
  1015                           	callstack 0
  1016                           
  1017 ;; *************** function _Interrupt_INTx_Init *****************
  1018 ;; Defined at:
  1019 ;;		line 40 in file "MCAL_Layer/Interrupt/External_Interrupt.c"
  1020 ;; Parameters:    Size  Location     Type
  1021 ;;  int_obj         1    9[BANK0 ] PTR const struct .
  1022 ;;		 -> int2_obj(6), int1_obj(6), int0_obj(6), 
  1023 ;; Auto vars:     Size  Location     Type
  1024 ;;  ret             1   10[BANK0 ] unsigned char 
  1025 ;; Return value:  Size  Location     Type
  1026 ;;                  1    wreg      unsigned char 
  1027 ;; Registers used:
  1028 ;;		wreg, fsr2l, fsr2h, status,2, status,0, prodl, prodh, cstack
  1029 ;; Tracked objects:
  1030 ;;		On entry : 0/0
  1031 ;;		On exit  : 0/0
  1032 ;;		Unchanged: 0/0
  1033 ;; Data sizes:     COMRAM   BANK0   BANK1   BANK2   BANK3   BANK4   BANK5   BANK6   BANK7   BANK8   BANK9  BANK10  BANK1
      +1  BANK12  BANK13  BANK14  BANK15
  1034 ;;      Params:         0       1       0       0       0       0       0       0       0       0       0       0       
      +0       0       0       0       0
  1035 ;;      Locals:         0       1       0       0       0       0       0       0       0       0       0       0       
      +0       0       0       0       0
  1036 ;;      Temps:          0       0       0       0       0       0       0       0       0       0       0       0       
      +0       0       0       0       0
  1037 ;;      Totals:         0       2       0       0       0       0       0       0       0       0       0       0       
      +0       0       0       0       0
  1038 ;;Total ram usage:        2 bytes
  1039 ;; Hardware stack levels used: 1
  1040 ;; Hardware stack levels required when called: 12
  1041 ;; This function calls:
  1042 ;;		_Interrupt_INTx_Clear_Flag
  1043 ;;		_Interrupt_INTx_Disable
  1044 ;;		_Interrupt_INTx_Edge_Init
  1045 ;;		_Interrupt_INTx_Enable
  1046 ;;		_Interrupt_INTx_Pin_Init
  1047 ;;		_Interrupt_INTx_Priority_Init
  1048 ;;		_Interrupt_INTx_SetInterruptHandler
  1049 ;; This function is called by:
  1050 ;;		_application_intialize
  1051 ;; This function uses a non-reentrant model
  1052 ;;
  1053                           
  1054                           	psect	text5
  1055   001806                     __ptext5:
  1056                           	callstack 0
  1057   001806                     _Interrupt_INTx_Init:
  1058                           	callstack 17
  1059   001806                     
  1060                           ;MCAL_Layer/Interrupt/External_Interrupt.c: 42:    if(((void*)0) == int_obj){
  1061   001806  0100               	movlb	0	; () banked
  1062   001808  5189               	movf	Interrupt_INTx_Init@int_obj& (0+255),w,b
  1063   00180A  A4D8               	btfss	status,2,c
  1064   00180C  EF0A  F00C         	goto	u2051
  1065   001810  EF0C  F00C         	goto	u2050
  1066   001814                     u2051:
  1067   001814  EF10  F00C         	goto	l2585
  1068   001818                     u2050:
  1069   001818                     
  1070                           ; BSR set to: 0
  1071                           ;MCAL_Layer/Interrupt/External_Interrupt.c: 43:        ret = (Std_ReturnType)0x00;
  1072   001818  0E00               	movlw	0
  1073   00181A  6F8A               	movwf	Interrupt_INTx_Init@ret& (0+255),b
  1074                           
  1075                           ;MCAL_Layer/Interrupt/External_Interrupt.c: 44:    }else{
  1076   00181C  EF36  F00C         	goto	l2593
  1077   001820                     l2585:
  1078                           
  1079                           ; BSR set to: 0
  1080                           ;MCAL_Layer/Interrupt/External_Interrupt.c: 46:        ret = Interrupt_INTx_Disable(int_
      +                          obj);
  1081   001820  C089  F080         	movff	Interrupt_INTx_Init@int_obj,Interrupt_INTx_Disable@int_obj
  1082   001824  EC38  F00C         	call	_Interrupt_INTx_Disable	;wreg free
  1083   001828  0100               	movlb	0	; () banked
  1084   00182A  6F8A               	movwf	Interrupt_INTx_Init@ret& (0+255),b
  1085                           
  1086                           ;MCAL_Layer/Interrupt/External_Interrupt.c: 48:        ret = Interrupt_INTx_Clear_Flag(i
      +                          nt_obj);
  1087   00182C  C089  F080         	movff	Interrupt_INTx_Init@int_obj,Interrupt_INTx_Clear_Flag@int_obj
  1088   001830  ECCB  F00B         	call	_Interrupt_INTx_Clear_Flag	;wreg free
  1089   001834  0100               	movlb	0	; () banked
  1090   001836  6F8A               	movwf	Interrupt_INTx_Init@ret& (0+255),b
  1091                           
  1092                           ;MCAL_Layer/Interrupt/External_Interrupt.c: 50:        ret = Interrupt_INTx_Edge_Init(in
      +                          t_obj);
  1093   001838  C089  F080         	movff	Interrupt_INTx_Init@int_obj,Interrupt_INTx_Edge_Init@int_obj
  1094   00183C  EC01  F008         	call	_Interrupt_INTx_Edge_Init	;wreg free
  1095   001840  0100               	movlb	0	; () banked
  1096   001842  6F8A               	movwf	Interrupt_INTx_Init@ret& (0+255),b
  1097                           
  1098                           ;MCAL_Layer/Interrupt/External_Interrupt.c: 53:        ret = Interrupt_INTx_Priority_Ini
      +                          t(int_obj);
  1099   001844  C089  F080         	movff	Interrupt_INTx_Init@int_obj,Interrupt_INTx_Priority_Init@int_obj
  1100   001848  EC1F  F00A         	call	_Interrupt_INTx_Priority_Init	;wreg free
  1101   00184C  0100               	movlb	0	; () banked
  1102   00184E  6F8A               	movwf	Interrupt_INTx_Init@ret& (0+255),b
  1103   001850                     
  1104                           ; BSR set to: 0
  1105   001850  C089  F087         	movff	Interrupt_INTx_Init@int_obj,Interrupt_INTx_Pin_Init@int_obj
  1106   001854  EC3E  F00E         	call	_Interrupt_INTx_Pin_Init	;wreg free
  1107   001858  C089  F082         	movff	Interrupt_INTx_Init@int_obj,Interrupt_INTx_SetInterruptHandler@int_obj
  1108   00185C  EC88  F00A         	call	_Interrupt_INTx_SetInterruptHandler	;wreg free
  1109   001860                     
  1110                           ;MCAL_Layer/Interrupt/External_Interrupt.c: 60:        ret = Interrupt_INTx_Enable(int_o
      +                          bj);
  1111   001860  C089  F080         	movff	Interrupt_INTx_Init@int_obj,Interrupt_INTx_Enable@int_obj
  1112   001864  ECA7  F009         	call	_Interrupt_INTx_Enable	;wreg free
  1113   001868  0100               	movlb	0	; () banked
  1114   00186A  6F8A               	movwf	Interrupt_INTx_Init@ret& (0+255),b
  1115   00186C                     l2593:
  1116                           
  1117                           ; BSR set to: 0
  1118                           ;MCAL_Layer/Interrupt/External_Interrupt.c: 62:    return ret;
  1119   00186C  518A               	movf	Interrupt_INTx_Init@ret& (0+255),w,b
  1120   00186E                     
  1121                           ; BSR set to: 0
  1122   00186E  0012               	return		;funcret
  1123   001870                     __end_of_Interrupt_INTx_Init:
  1124                           	callstack 0
  1125                           
  1126 ;; *************** function _Interrupt_INTx_SetInterruptHandler *****************
  1127 ;; Defined at:
  1128 ;;		line 269 in file "MCAL_Layer/Interrupt/External_Interrupt.c"
  1129 ;; Parameters:    Size  Location     Type
  1130 ;;  int_obj         1    2[BANK0 ] PTR const struct .
  1131 ;;		 -> int2_obj(6), int1_obj(6), int0_obj(6), 
  1132 ;; Auto vars:     Size  Location     Type
  1133 ;;  ret             1    0        unsigned char 
  1134 ;; Return value:  Size  Location     Type
  1135 ;;                  1    wreg      unsigned char 
  1136 ;; Registers used:
  1137 ;;		wreg, fsr2l, fsr2h, status,2, status,0, cstack
  1138 ;; Tracked objects:
  1139 ;;		On entry : 0/0
  1140 ;;		On exit  : 0/0
  1141 ;;		Unchanged: 0/0
  1142 ;; Data sizes:     COMRAM   BANK0   BANK1   BANK2   BANK3   BANK4   BANK5   BANK6   BANK7   BANK8   BANK9  BANK10  BANK1
      +1  BANK12  BANK13  BANK14  BANK15
  1143 ;;      Params:         0       1       0       0       0       0       0       0       0       0       0       0       
      +0       0       0       0       0
  1144 ;;      Locals:         0       0       0       0       0       0       0       0       0       0       0       0       
      +0       0       0       0       0
  1145 ;;      Temps:          0       2       0       0       0       0       0       0       0       0       0       0       
      +0       0       0       0       0
  1146 ;;      Totals:         0       3       0       0       0       0       0       0       0       0       0       0       
      +0       0       0       0       0
  1147 ;;Total ram usage:        3 bytes
  1148 ;; Hardware stack levels used: 1
  1149 ;; Hardware stack levels required when called: 11
  1150 ;; This function calls:
  1151 ;;		_INT0_SetInterruptHandler
  1152 ;;		_INT1_SetInterruptHandler
  1153 ;;		_INT2_SetInterruptHandler
  1154 ;; This function is called by:
  1155 ;;		_Interrupt_INTx_Init
  1156 ;; This function uses a non-reentrant model
  1157 ;;
  1158                           
  1159                           	psect	text6
  1160   001510                     __ptext6:
  1161                           	callstack 0
  1162   001510                     _Interrupt_INTx_SetInterruptHandler:
  1163                           	callstack 17
  1164   001510                     
  1165                           ;MCAL_Layer/Interrupt/External_Interrupt.c: 271:    if(((void*)0) == int_obj){
  1166   001510  0100               	movlb	0	; () banked
  1167   001512  5182               	movf	Interrupt_INTx_SetInterruptHandler@int_obj& (0+255),w,b
  1168   001514  A4D8               	btfss	status,2,c
  1169   001516  EF8F  F00A         	goto	u1971
  1170   00151A  EF91  F00A         	goto	u1970
  1171   00151E                     u1971:
  1172   00151E  EFB4  F00A         	goto	l2523
  1173   001522                     u1970:
  1174   001522                     l2513:
  1175                           
  1176                           ; BSR set to: 0
  1177                           ;MCAL_Layer/Interrupt/External_Interrupt.c: 273:    }else{
  1178   001522  EFD2  F00A         	goto	l371
  1179   001526                     l2515:
  1180                           
  1181                           ; BSR set to: 0
  1182   001526  5182               	movf	Interrupt_INTx_SetInterruptHandler@int_obj& (0+255),w,b
  1183   001528  6ED9               	movwf	fsr2l,c
  1184   00152A  6ADA               	clrf	fsr2h,c
  1185   00152C  CFDE F080          	movff	postinc2,INT0_SetInterruptHandler@InterruptHandler
  1186   001530  CFDD F081          	movff	postdec2,INT0_SetInterruptHandler@InterruptHandler+1
  1187   001534  EC76  F00E         	call	_INT0_SetInterruptHandler	;wreg free
  1188   001538  EFD2  F00A         	goto	l371
  1189   00153C                     l2517:
  1190                           
  1191                           ; BSR set to: 0
  1192   00153C  5182               	movf	Interrupt_INTx_SetInterruptHandler@int_obj& (0+255),w,b
  1193   00153E  6ED9               	movwf	fsr2l,c
  1194   001540  6ADA               	clrf	fsr2h,c
  1195   001542  CFDE F080          	movff	postinc2,INT1_SetInterruptHandler@InterruptHandler
  1196   001546  CFDD F081          	movff	postdec2,INT1_SetInterruptHandler@InterruptHandler+1
  1197   00154A  EC65  F00E         	call	_INT1_SetInterruptHandler	;wreg free
  1198   00154E  EFD2  F00A         	goto	l371
  1199   001552                     l2519:
  1200                           
  1201                           ; BSR set to: 0
  1202   001552  5182               	movf	Interrupt_INTx_SetInterruptHandler@int_obj& (0+255),w,b
  1203   001554  6ED9               	movwf	fsr2l,c
  1204   001556  6ADA               	clrf	fsr2h,c
  1205   001558  CFDE F080          	movff	postinc2,INT2_SetInterruptHandler@InterruptHandler
  1206   00155C  CFDD F081          	movff	postdec2,INT2_SetInterruptHandler@InterruptHandler+1
  1207   001560  EC54  F00E         	call	_INT2_SetInterruptHandler	;wreg free
  1208   001564  EFD2  F00A         	goto	l371
  1209   001568                     l2523:
  1210                           
  1211                           ; BSR set to: 0
  1212   001568  5182               	movf	Interrupt_INTx_SetInterruptHandler@int_obj& (0+255),w,b
  1213   00156A  6ED9               	movwf	fsr2l,c
  1214   00156C  6ADA               	clrf	fsr2h,c
  1215   00156E  0E04               	movlw	4
  1216   001570  26D9               	addwf	fsr2l,f,c
  1217   001572  50DF               	movf	indf2,w,c
  1218   001574  6F83               	movwf	??_Interrupt_INTx_SetInterruptHandler& (0+255),b
  1219   001576  6B84               	clrf	(??_Interrupt_INTx_SetInterruptHandler+1)& (0+255),b
  1220                           
  1221                           ; Switch on 2 bytes has been partitioned into a top level switch of size 1, and 1 sub-sw
      +                          itches
  1222                           ; Switch size 1, requested type "simple"
  1223                           ; Number of cases is 1, Range of values is 0 to 0
  1224                           ; switch strategies available:
  1225                           ; Name         Instructions Cycles
  1226                           ; simple_byte            4     3 (average)
  1227                           ;	Chosen strategy is simple_byte
  1228   001578  5184               	movf	(??_Interrupt_INTx_SetInterruptHandler+1)& (0+255),w,b
  1229   00157A  0A00               	xorlw	0	; case 0
  1230   00157C  B4D8               	btfsc	status,2,c
  1231   00157E  EFC3  F00A         	goto	l2849
  1232   001582  EF91  F00A         	goto	l2513
  1233   001586                     l2849:
  1234                           
  1235                           ; BSR set to: 0
  1236                           ; Switch size 1, requested type "simple"
  1237                           ; Number of cases is 3, Range of values is 0 to 2
  1238                           ; switch strategies available:
  1239                           ; Name         Instructions Cycles
  1240                           ; simple_byte           10     6 (average)
  1241                           ;	Chosen strategy is simple_byte
  1242   001586  5183               	movf	??_Interrupt_INTx_SetInterruptHandler& (0+255),w,b
  1243   001588  0A00               	xorlw	0	; case 0
  1244   00158A  B4D8               	btfsc	status,2,c
  1245   00158C  EF93  F00A         	goto	l2515
  1246   001590  0A01               	xorlw	1	; case 1
  1247   001592  B4D8               	btfsc	status,2,c
  1248   001594  EF9E  F00A         	goto	l2517
  1249   001598  0A03               	xorlw	3	; case 2
  1250   00159A  B4D8               	btfsc	status,2,c
  1251   00159C  EFA9  F00A         	goto	l2519
  1252   0015A0  EF91  F00A         	goto	l2513
  1253   0015A4                     l371:
  1254   0015A4  0012               	return		;funcret
  1255   0015A6                     __end_of_Interrupt_INTx_SetInterruptHandler:
  1256                           	callstack 0
  1257                           
  1258 ;; *************** function _INT2_SetInterruptHandler *****************
  1259 ;; Defined at:
  1260 ;;		line 260 in file "MCAL_Layer/Interrupt/External_Interrupt.c"
  1261 ;; Parameters:    Size  Location     Type
  1262 ;;  InterruptHan    2    0[BANK0 ] PTR FTN()void 
  1263 ;;		 -> i2_Int2_APP_ISR(1), i2_Int1_APP_ISR(1), i2_Int0_APP_ISR(1), Int2_APP_ISR(1), 
  1264 ;;		 -> Int1_APP_ISR(1), Int0_APP_ISR(1), 
  1265 ;; Auto vars:     Size  Location     Type
  1266 ;;  ret             1    0        unsigned char 
  1267 ;; Return value:  Size  Location     Type
  1268 ;;                  1    wreg      unsigned char 
  1269 ;; Registers used:
  1270 ;;		wreg, status,2, status,0
  1271 ;; Tracked objects:
  1272 ;;		On entry : 0/0
  1273 ;;		On exit  : 0/0
  1274 ;;		Unchanged: 0/0
  1275 ;; Data sizes:     COMRAM   BANK0   BANK1   BANK2   BANK3   BANK4   BANK5   BANK6   BANK7   BANK8   BANK9  BANK10  BANK1
      +1  BANK12  BANK13  BANK14  BANK15
  1276 ;;      Params:         0       2       0       0       0       0       0       0       0       0       0       0       
      +0       0       0       0       0
  1277 ;;      Locals:         0       0       0       0       0       0       0       0       0       0       0       0       
      +0       0       0       0       0
  1278 ;;      Temps:          0       0       0       0       0       0       0       0       0       0       0       0       
      +0       0       0       0       0
  1279 ;;      Totals:         0       2       0       0       0       0       0       0       0       0       0       0       
      +0       0       0       0       0
  1280 ;;Total ram usage:        2 bytes
  1281 ;; Hardware stack levels used: 1
  1282 ;; Hardware stack levels required when called: 10
  1283 ;; This function calls:
  1284 ;;		Nothing
  1285 ;; This function is called by:
  1286 ;;		_Interrupt_INTx_SetInterruptHandler
  1287 ;; This function uses a non-reentrant model
  1288 ;;
  1289                           
  1290                           	psect	text7
  1291   001CA8                     __ptext7:
  1292                           	callstack 0
  1293   001CA8                     _INT2_SetInterruptHandler:
  1294                           	callstack 17
  1295   001CA8                     
  1296                           ;MCAL_Layer/Interrupt/External_Interrupt.c: 262:    if(((void*)0) == InterruptHandler){
  1297   001CA8  0100               	movlb	0	; () banked
  1298   001CAA  5180               	movf	INT2_SetInterruptHandler@InterruptHandler& (0+255),w,b
  1299   001CAC  1181               	iorwf	(INT2_SetInterruptHandler@InterruptHandler+1)& (0+255),w,b
  1300   001CAE  A4D8               	btfss	status,2,c
  1301   001CB0  EF5C  F00E         	goto	u1791
  1302   001CB4  EF5E  F00E         	goto	u1790
  1303   001CB8                     u1791:
  1304   001CB8  EF60  F00E         	goto	l2379
  1305   001CBC                     u1790:
  1306   001CBC                     
  1307                           ; BSR set to: 0
  1308                           ;MCAL_Layer/Interrupt/External_Interrupt.c: 264:    }else{
  1309   001CBC  EF64  F00E         	goto	l360
  1310   001CC0                     l2379:
  1311                           
  1312                           ; BSR set to: 0
  1313                           ;MCAL_Layer/Interrupt/External_Interrupt.c: 265:        INT2_InterruptHandler = Interrup
      +                          tHandler;
  1314   001CC0  C080  F057         	movff	INT2_SetInterruptHandler@InterruptHandler,_INT2_InterruptHandler
  1315   001CC4  C081  F058         	movff	INT2_SetInterruptHandler@InterruptHandler+1,_INT2_InterruptHandler+1
  1316   001CC8                     l360:
  1317                           
  1318                           ; BSR set to: 0
  1319   001CC8  0012               	return		;funcret
  1320   001CCA                     __end_of_INT2_SetInterruptHandler:
  1321                           	callstack 0
  1322                           
  1323 ;; *************** function _INT1_SetInterruptHandler *****************
  1324 ;; Defined at:
  1325 ;;		line 251 in file "MCAL_Layer/Interrupt/External_Interrupt.c"
  1326 ;; Parameters:    Size  Location     Type
  1327 ;;  InterruptHan    2    0[BANK0 ] PTR FTN()void 
  1328 ;;		 -> i2_Int2_APP_ISR(1), i2_Int1_APP_ISR(1), i2_Int0_APP_ISR(1), Int2_APP_ISR(1), 
  1329 ;;		 -> Int1_APP_ISR(1), Int0_APP_ISR(1), 
  1330 ;; Auto vars:     Size  Location     Type
  1331 ;;  ret             1    0        unsigned char 
  1332 ;; Return value:  Size  Location     Type
  1333 ;;                  1    wreg      unsigned char 
  1334 ;; Registers used:
  1335 ;;		wreg, status,2, status,0
  1336 ;; Tracked objects:
  1337 ;;		On entry : 0/0
  1338 ;;		On exit  : 0/0
  1339 ;;		Unchanged: 0/0
  1340 ;; Data sizes:     COMRAM   BANK0   BANK1   BANK2   BANK3   BANK4   BANK5   BANK6   BANK7   BANK8   BANK9  BANK10  BANK1
      +1  BANK12  BANK13  BANK14  BANK15
  1341 ;;      Params:         0       2       0       0       0       0       0       0       0       0       0       0       
      +0       0       0       0       0
  1342 ;;      Locals:         0       0       0       0       0       0       0       0       0       0       0       0       
      +0       0       0       0       0
  1343 ;;      Temps:          0       0       0       0       0       0       0       0       0       0       0       0       
      +0       0       0       0       0
  1344 ;;      Totals:         0       2       0       0       0       0       0       0       0       0       0       0       
      +0       0       0       0       0
  1345 ;;Total ram usage:        2 bytes
  1346 ;; Hardware stack levels used: 1
  1347 ;; Hardware stack levels required when called: 10
  1348 ;; This function calls:
  1349 ;;		Nothing
  1350 ;; This function is called by:
  1351 ;;		_Interrupt_INTx_SetInterruptHandler
  1352 ;; This function uses a non-reentrant model
  1353 ;;
  1354                           
  1355                           	psect	text8
  1356   001CCA                     __ptext8:
  1357                           	callstack 0
  1358   001CCA                     _INT1_SetInterruptHandler:
  1359                           	callstack 17
  1360   001CCA                     
  1361                           ;MCAL_Layer/Interrupt/External_Interrupt.c: 253:    if(((void*)0) == InterruptHandler){
  1362   001CCA  0100               	movlb	0	; () banked
  1363   001CCC  5180               	movf	INT1_SetInterruptHandler@InterruptHandler& (0+255),w,b
  1364   001CCE  1181               	iorwf	(INT1_SetInterruptHandler@InterruptHandler+1)& (0+255),w,b
  1365   001CD0  A4D8               	btfss	status,2,c
  1366   001CD2  EF6D  F00E         	goto	u1781
  1367   001CD6  EF6F  F00E         	goto	u1780
  1368   001CDA                     u1781:
  1369   001CDA  EF71  F00E         	goto	l2369
  1370   001CDE                     u1780:
  1371   001CDE                     
  1372                           ; BSR set to: 0
  1373                           ;MCAL_Layer/Interrupt/External_Interrupt.c: 255:    }else{
  1374   001CDE  EF75  F00E         	goto	l355
  1375   001CE2                     l2369:
  1376                           
  1377                           ; BSR set to: 0
  1378                           ;MCAL_Layer/Interrupt/External_Interrupt.c: 256:        INT1_InterruptHandler = Interrup
      +                          tHandler;
  1379   001CE2  C080  F059         	movff	INT1_SetInterruptHandler@InterruptHandler,_INT1_InterruptHandler
  1380   001CE6  C081  F05A         	movff	INT1_SetInterruptHandler@InterruptHandler+1,_INT1_InterruptHandler+1
  1381   001CEA                     l355:
  1382                           
  1383                           ; BSR set to: 0
  1384   001CEA  0012               	return		;funcret
  1385   001CEC                     __end_of_INT1_SetInterruptHandler:
  1386                           	callstack 0
  1387                           
  1388 ;; *************** function _INT0_SetInterruptHandler *****************
  1389 ;; Defined at:
  1390 ;;		line 242 in file "MCAL_Layer/Interrupt/External_Interrupt.c"
  1391 ;; Parameters:    Size  Location     Type
  1392 ;;  InterruptHan    2    0[BANK0 ] PTR FTN()void 
  1393 ;;		 -> i2_Int2_APP_ISR(1), i2_Int1_APP_ISR(1), i2_Int0_APP_ISR(1), Int2_APP_ISR(1), 
  1394 ;;		 -> Int1_APP_ISR(1), Int0_APP_ISR(1), 
  1395 ;; Auto vars:     Size  Location     Type
  1396 ;;  ret             1    0        unsigned char 
  1397 ;; Return value:  Size  Location     Type
  1398 ;;                  1    wreg      unsigned char 
  1399 ;; Registers used:
  1400 ;;		wreg, status,2, status,0
  1401 ;; Tracked objects:
  1402 ;;		On entry : 0/0
  1403 ;;		On exit  : 0/0
  1404 ;;		Unchanged: 0/0
  1405 ;; Data sizes:     COMRAM   BANK0   BANK1   BANK2   BANK3   BANK4   BANK5   BANK6   BANK7   BANK8   BANK9  BANK10  BANK1
      +1  BANK12  BANK13  BANK14  BANK15
  1406 ;;      Params:         0       2       0       0       0       0       0       0       0       0       0       0       
      +0       0       0       0       0
  1407 ;;      Locals:         0       0       0       0       0       0       0       0       0       0       0       0       
      +0       0       0       0       0
  1408 ;;      Temps:          0       0       0       0       0       0       0       0       0       0       0       0       
      +0       0       0       0       0
  1409 ;;      Totals:         0       2       0       0       0       0       0       0       0       0       0       0       
      +0       0       0       0       0
  1410 ;;Total ram usage:        2 bytes
  1411 ;; Hardware stack levels used: 1
  1412 ;; Hardware stack levels required when called: 10
  1413 ;; This function calls:
  1414 ;;		Nothing
  1415 ;; This function is called by:
  1416 ;;		_Interrupt_INTx_SetInterruptHandler
  1417 ;; This function uses a non-reentrant model
  1418 ;;
  1419                           
  1420                           	psect	text9
  1421   001CEC                     __ptext9:
  1422                           	callstack 0
  1423   001CEC                     _INT0_SetInterruptHandler:
  1424                           	callstack 17
  1425   001CEC                     
  1426                           ;MCAL_Layer/Interrupt/External_Interrupt.c: 244:    if(((void*)0) == InterruptHandler){
  1427   001CEC  0100               	movlb	0	; () banked
  1428   001CEE  5180               	movf	INT0_SetInterruptHandler@InterruptHandler& (0+255),w,b
  1429   001CF0  1181               	iorwf	(INT0_SetInterruptHandler@InterruptHandler+1)& (0+255),w,b
  1430   001CF2  A4D8               	btfss	status,2,c
  1431   001CF4  EF7E  F00E         	goto	u1771
  1432   001CF8  EF80  F00E         	goto	u1770
  1433   001CFC                     u1771:
  1434   001CFC  EF82  F00E         	goto	l2359
  1435   001D00                     u1770:
  1436   001D00                     
  1437                           ; BSR set to: 0
  1438                           ;MCAL_Layer/Interrupt/External_Interrupt.c: 246:    }else{
  1439   001D00  EF86  F00E         	goto	l350
  1440   001D04                     l2359:
  1441                           
  1442                           ; BSR set to: 0
  1443                           ;MCAL_Layer/Interrupt/External_Interrupt.c: 247:        INT0_InterruptHandler = Interrup
      +                          tHandler;
  1444   001D04  C080  F05B         	movff	INT0_SetInterruptHandler@InterruptHandler,_INT0_InterruptHandler
  1445   001D08  C081  F05C         	movff	INT0_SetInterruptHandler@InterruptHandler+1,_INT0_InterruptHandler+1
  1446   001D0C                     l350:
  1447                           
  1448                           ; BSR set to: 0
  1449   001D0C  0012               	return		;funcret
  1450   001D0E                     __end_of_INT0_SetInterruptHandler:
  1451                           	callstack 0
  1452                           
  1453 ;; *************** function _Interrupt_INTx_Priority_Init *****************
  1454 ;; Defined at:
  1455 ;;		line 169 in file "MCAL_Layer/Interrupt/External_Interrupt.c"
  1456 ;; Parameters:    Size  Location     Type
  1457 ;;  int_obj         1    0[BANK0 ] PTR const struct .
  1458 ;;		 -> int2_obj(6), int1_obj(6), int0_obj(6), 
  1459 ;; Auto vars:     Size  Location     Type
  1460 ;;  ret             1    0        unsigned char 
  1461 ;; Return value:  Size  Location     Type
  1462 ;;                  1    wreg      unsigned char 
  1463 ;; Registers used:
  1464 ;;		wreg, fsr2l, fsr2h, status,2, status,0
  1465 ;; Tracked objects:
  1466 ;;		On entry : 0/0
  1467 ;;		On exit  : 0/0
  1468 ;;		Unchanged: 0/0
  1469 ;; Data sizes:     COMRAM   BANK0   BANK1   BANK2   BANK3   BANK4   BANK5   BANK6   BANK7   BANK8   BANK9  BANK10  BANK1
      +1  BANK12  BANK13  BANK14  BANK15
  1470 ;;      Params:         0       1       0       0       0       0       0       0       0       0       0       0       
      +0       0       0       0       0
  1471 ;;      Locals:         0       0       0       0       0       0       0       0       0       0       0       0       
      +0       0       0       0       0
  1472 ;;      Temps:          0       2       0       0       0       0       0       0       0       0       0       0       
      +0       0       0       0       0
  1473 ;;      Totals:         0       3       0       0       0       0       0       0       0       0       0       0       
      +0       0       0       0       0
  1474 ;;Total ram usage:        3 bytes
  1475 ;; Hardware stack levels used: 1
  1476 ;; Hardware stack levels required when called: 10
  1477 ;; This function calls:
  1478 ;;		Nothing
  1479 ;; This function is called by:
  1480 ;;		_Interrupt_INTx_Init
  1481 ;; This function uses a non-reentrant model
  1482 ;;
  1483                           
  1484                           	psect	text10
  1485   00143E                     __ptext10:
  1486                           	callstack 0
  1487   00143E                     _Interrupt_INTx_Priority_Init:
  1488                           	callstack 18
  1489   00143E                     
  1490                           ;MCAL_Layer/Interrupt/External_Interrupt.c: 171:    if(((void*)0) == int_obj){
  1491   00143E  0100               	movlb	0	; () banked
  1492   001440  5180               	movf	Interrupt_INTx_Priority_Init@int_obj& (0+255),w,b
  1493   001442  A4D8               	btfss	status,2,c
  1494   001444  EF26  F00A         	goto	u1911
  1495   001448  EF28  F00A         	goto	u1910
  1496   00144C                     u1911:
  1497   00144C  EF6C  F00A         	goto	l2491
  1498   001450                     u1910:
  1499   001450                     
  1500                           ; BSR set to: 0
  1501                           ;MCAL_Layer/Interrupt/External_Interrupt.c: 173:    }else{
  1502   001450  EF87  F00A         	goto	l307
  1503   001454                     l2473:
  1504                           
  1505                           ; BSR set to: 0
  1506                           ;MCAL_Layer/Interrupt/External_Interrupt.c: 176:                if(int_obj->priority == 
      +                          INTERRUPT_LOW_PRIORITY){(INTCON3bits.INT1IP = 0);}
  1507   001454  5180               	movf	Interrupt_INTx_Priority_Init@int_obj& (0+255),w,b
  1508   001456  6ED9               	movwf	fsr2l,c
  1509   001458  6ADA               	clrf	fsr2h,c
  1510   00145A  0E05               	movlw	5
  1511   00145C  26D9               	addwf	fsr2l,f,c
  1512   00145E  50DF               	movf	indf2,w,c
  1513   001460  A4D8               	btfss	status,2,c
  1514   001462  EF35  F00A         	goto	u1921
  1515   001466  EF37  F00A         	goto	u1920
  1516   00146A                     u1921:
  1517   00146A  EF3A  F00A         	goto	l2477
  1518   00146E                     u1920:
  1519   00146E                     
  1520                           ; BSR set to: 0
  1521   00146E  9CF0               	bcf	240,6,c	;volatile
  1522   001470  EF86  F00A         	goto	l2493
  1523   001474                     l2477:
  1524                           
  1525                           ; BSR set to: 0
  1526   001474  5180               	movf	Interrupt_INTx_Priority_Init@int_obj& (0+255),w,b
  1527   001476  6ED9               	movwf	fsr2l,c
  1528   001478  6ADA               	clrf	fsr2h,c
  1529   00147A  0E05               	movlw	5
  1530   00147C  26D9               	addwf	fsr2l,f,c
  1531   00147E  04DE               	decf	postinc2,w,c
  1532   001480  A4D8               	btfss	status,2,c
  1533   001482  EF45  F00A         	goto	u1931
  1534   001486  EF47  F00A         	goto	u1930
  1535   00148A                     u1931:
  1536   00148A  EF4A  F00A         	goto	l298
  1537   00148E                     u1930:
  1538   00148E                     
  1539                           ; BSR set to: 0
  1540   00148E  8CF0               	bsf	240,6,c	;volatile
  1541   001490  EF86  F00A         	goto	l2493
  1542   001494                     l298:
  1543                           
  1544                           ; BSR set to: 0
  1545                           ;MCAL_Layer/Interrupt/External_Interrupt.c: 179:                break ;
  1546   001494  EF86  F00A         	goto	l2493
  1547   001498                     l2481:
  1548                           
  1549                           ; BSR set to: 0
  1550                           ;MCAL_Layer/Interrupt/External_Interrupt.c: 182:                if(int_obj->priority == 
      +                          INTERRUPT_LOW_PRIORITY){(INTCON3bits.INT2IP = 0);}
  1551   001498  5180               	movf	Interrupt_INTx_Priority_Init@int_obj& (0+255),w,b
  1552   00149A  6ED9               	movwf	fsr2l,c
  1553   00149C  6ADA               	clrf	fsr2h,c
  1554   00149E  0E05               	movlw	5
  1555   0014A0  26D9               	addwf	fsr2l,f,c
  1556   0014A2  50DF               	movf	indf2,w,c
  1557   0014A4  A4D8               	btfss	status,2,c
  1558   0014A6  EF57  F00A         	goto	u1941
  1559   0014AA  EF59  F00A         	goto	u1940
  1560   0014AE                     u1941:
  1561   0014AE  EF5C  F00A         	goto	l2485
  1562   0014B2                     u1940:
  1563   0014B2                     
  1564                           ; BSR set to: 0
  1565   0014B2  9EF0               	bcf	240,7,c	;volatile
  1566   0014B4  EF86  F00A         	goto	l2493
  1567   0014B8                     l2485:
  1568                           
  1569                           ; BSR set to: 0
  1570   0014B8  5180               	movf	Interrupt_INTx_Priority_Init@int_obj& (0+255),w,b
  1571   0014BA  6ED9               	movwf	fsr2l,c
  1572   0014BC  6ADA               	clrf	fsr2h,c
  1573   0014BE  0E05               	movlw	5
  1574   0014C0  26D9               	addwf	fsr2l,f,c
  1575   0014C2  04DE               	decf	postinc2,w,c
  1576   0014C4  A4D8               	btfss	status,2,c
  1577   0014C6  EF67  F00A         	goto	u1951
  1578   0014CA  EF69  F00A         	goto	u1950
  1579   0014CE                     u1951:
  1580   0014CE  EF86  F00A         	goto	l2493
  1581   0014D2                     u1950:
  1582   0014D2                     
  1583                           ; BSR set to: 0
  1584   0014D2  8EF0               	bsf	240,7,c	;volatile
  1585   0014D4  EF86  F00A         	goto	l2493
  1586   0014D8                     l2491:
  1587                           
  1588                           ; BSR set to: 0
  1589   0014D8  5180               	movf	Interrupt_INTx_Priority_Init@int_obj& (0+255),w,b
  1590   0014DA  6ED9               	movwf	fsr2l,c
  1591   0014DC  6ADA               	clrf	fsr2h,c
  1592   0014DE  0E04               	movlw	4
  1593   0014E0  26D9               	addwf	fsr2l,f,c
  1594   0014E2  50DF               	movf	indf2,w,c
  1595   0014E4  6F81               	movwf	??_Interrupt_INTx_Priority_Init& (0+255),b
  1596   0014E6  6B82               	clrf	(??_Interrupt_INTx_Priority_Init+1)& (0+255),b
  1597                           
  1598                           ; Switch on 2 bytes has been partitioned into a top level switch of size 1, and 1 sub-sw
      +                          itches
  1599                           ; Switch size 1, requested type "simple"
  1600                           ; Number of cases is 1, Range of values is 0 to 0
  1601                           ; switch strategies available:
  1602                           ; Name         Instructions Cycles
  1603                           ; simple_byte            4     3 (average)
  1604                           ;	Chosen strategy is simple_byte
  1605   0014E8  5182               	movf	(??_Interrupt_INTx_Priority_Init+1)& (0+255),w,b
  1606   0014EA  0A00               	xorlw	0	; case 0
  1607   0014EC  B4D8               	btfsc	status,2,c
  1608   0014EE  EF7B  F00A         	goto	l2851
  1609   0014F2  EF86  F00A         	goto	l2493
  1610   0014F6                     l2851:
  1611                           
  1612                           ; BSR set to: 0
  1613                           ; Switch size 1, requested type "simple"
  1614                           ; Number of cases is 2, Range of values is 1 to 2
  1615                           ; switch strategies available:
  1616                           ; Name         Instructions Cycles
  1617                           ; simple_byte            7     4 (average)
  1618                           ;	Chosen strategy is simple_byte
  1619   0014F6  5181               	movf	??_Interrupt_INTx_Priority_Init& (0+255),w,b
  1620   0014F8  0A01               	xorlw	1	; case 1
  1621   0014FA  B4D8               	btfsc	status,2,c
  1622   0014FC  EF2A  F00A         	goto	l2473
  1623   001500  0A03               	xorlw	3	; case 2
  1624   001502  B4D8               	btfsc	status,2,c
  1625   001504  EF4C  F00A         	goto	l2481
  1626   001508  EF86  F00A         	goto	l2493
  1627   00150C                     l2493:
  1628                           
  1629                           ; BSR set to: 0
  1630                           ;MCAL_Layer/Interrupt/External_Interrupt.c: 187:    return ret;
  1631   00150C  0E01               	movlw	1
  1632   00150E                     l307:
  1633                           
  1634                           ; BSR set to: 0
  1635   00150E  0012               	return		;funcret
  1636   001510                     __end_of_Interrupt_INTx_Priority_Init:
  1637                           	callstack 0
  1638                           
  1639 ;; *************** function _Interrupt_INTx_Pin_Init *****************
  1640 ;; Defined at:
  1641 ;;		line 217 in file "MCAL_Layer/Interrupt/External_Interrupt.c"
  1642 ;; Parameters:    Size  Location     Type
  1643 ;;  int_obj         1    7[BANK0 ] PTR const struct .
  1644 ;;		 -> int2_obj(6), int1_obj(6), int0_obj(6), 
  1645 ;; Auto vars:     Size  Location     Type
  1646 ;;  ret             1    8[BANK0 ] unsigned char 
  1647 ;; Return value:  Size  Location     Type
  1648 ;;                  1    wreg      unsigned char 
  1649 ;; Registers used:
  1650 ;;		wreg, fsr2l, fsr2h, status,2, status,0, prodl, prodh, cstack
  1651 ;; Tracked objects:
  1652 ;;		On entry : 0/0
  1653 ;;		On exit  : 0/0
  1654 ;;		Unchanged: 0/0
  1655 ;; Data sizes:     COMRAM   BANK0   BANK1   BANK2   BANK3   BANK4   BANK5   BANK6   BANK7   BANK8   BANK9  BANK10  BANK1
      +1  BANK12  BANK13  BANK14  BANK15
  1656 ;;      Params:         0       1       0       0       0       0       0       0       0       0       0       0       
      +0       0       0       0       0
  1657 ;;      Locals:         0       1       0       0       0       0       0       0       0       0       0       0       
      +0       0       0       0       0
  1658 ;;      Temps:          0       0       0       0       0       0       0       0       0       0       0       0       
      +0       0       0       0       0
  1659 ;;      Totals:         0       2       0       0       0       0       0       0       0       0       0       0       
      +0       0       0       0       0
  1660 ;;Total ram usage:        2 bytes
  1661 ;; Hardware stack levels used: 1
  1662 ;; Hardware stack levels required when called: 11
  1663 ;; This function calls:
  1664 ;;		_gpio_pin_direction_intialize
  1665 ;; This function is called by:
  1666 ;;		_Interrupt_INTx_Init
  1667 ;; This function uses a non-reentrant model
  1668 ;;
  1669                           
  1670                           	psect	text11
  1671   001C7C                     __ptext11:
  1672                           	callstack 0
  1673   001C7C                     _Interrupt_INTx_Pin_Init:
  1674                           	callstack 17
  1675   001C7C                     
  1676                           ;MCAL_Layer/Interrupt/External_Interrupt.c: 219:    if(((void*)0) == int_obj){
  1677   001C7C  0100               	movlb	0	; () banked
  1678   001C7E  5187               	movf	Interrupt_INTx_Pin_Init@int_obj& (0+255),w,b
  1679   001C80  A4D8               	btfss	status,2,c
  1680   001C82  EF45  F00E         	goto	u1961
  1681   001C86  EF47  F00E         	goto	u1960
  1682   001C8A                     u1961:
  1683   001C8A  EF4B  F00E         	goto	l2505
  1684   001C8E                     u1960:
  1685   001C8E                     
  1686                           ; BSR set to: 0
  1687                           ;MCAL_Layer/Interrupt/External_Interrupt.c: 220:        ret = (Std_ReturnType)0x00;
  1688   001C8E  0E00               	movlw	0
  1689   001C90  6F88               	movwf	Interrupt_INTx_Pin_Init@ret& (0+255),b
  1690                           
  1691                           ;MCAL_Layer/Interrupt/External_Interrupt.c: 221:    }else{
  1692   001C92  EF52  F00E         	goto	l2507
  1693   001C96                     l2505:
  1694                           
  1695                           ; BSR set to: 0
  1696                           ;MCAL_Layer/Interrupt/External_Interrupt.c: 222:        ret = gpio_pin_direction_intiali
      +                          ze(&(int_obj->mcu_pin));
  1697   001C96  5187               	movf	Interrupt_INTx_Pin_Init@int_obj& (0+255),w,b
  1698   001C98  0F02               	addlw	2
  1699   001C9A  6F80               	movwf	gpio_pin_direction_intialize@_pin_config& (0+255),b
  1700   001C9C  EC90  F008         	call	_gpio_pin_direction_intialize	;wreg free
  1701   001CA0  0100               	movlb	0	; () banked
  1702   001CA2  6F88               	movwf	Interrupt_INTx_Pin_Init@ret& (0+255),b
  1703   001CA4                     l2507:
  1704                           
  1705                           ; BSR set to: 0
  1706                           ;MCAL_Layer/Interrupt/External_Interrupt.c: 224:    return ret;
  1707   001CA4  5188               	movf	Interrupt_INTx_Pin_Init@ret& (0+255),w,b
  1708   001CA6                     
  1709                           ; BSR set to: 0
  1710   001CA6  0012               	return		;funcret
  1711   001CA8                     __end_of_Interrupt_INTx_Pin_Init:
  1712                           	callstack 0
  1713                           
  1714 ;; *************** function _gpio_pin_direction_intialize *****************
  1715 ;; Defined at:
  1716 ;;		line 24 in file "MCAL_Layer/GPIO/hal_gpio.c"
  1717 ;; Parameters:    Size  Location     Type
  1718 ;;  _pin_config     1    0[BANK0 ] PTR const struct .
  1719 ;;		 -> int2_obj(6), int1_obj(6), int0_obj(6), led_intialize@pin_obj(1), 
  1720 ;; Auto vars:     Size  Location     Type
  1721 ;;  ret             1    6[BANK0 ] unsigned char 
  1722 ;; Return value:  Size  Location     Type
  1723 ;;                  1    wreg      unsigned char 
  1724 ;; Registers used:
  1725 ;;		wreg, fsr2l, fsr2h, status,2, status,0, prodl, prodh
  1726 ;; Tracked objects:
  1727 ;;		On entry : 0/0
  1728 ;;		On exit  : 0/0
  1729 ;;		Unchanged: 0/0
  1730 ;; Data sizes:     COMRAM   BANK0   BANK1   BANK2   BANK3   BANK4   BANK5   BANK6   BANK7   BANK8   BANK9  BANK10  BANK1
      +1  BANK12  BANK13  BANK14  BANK15
  1731 ;;      Params:         0       1       0       0       0       0       0       0       0       0       0       0       
      +0       0       0       0       0
  1732 ;;      Locals:         0       1       0       0       0       0       0       0       0       0       0       0       
      +0       0       0       0       0
  1733 ;;      Temps:          0       5       0       0       0       0       0       0       0       0       0       0       
      +0       0       0       0       0
  1734 ;;      Totals:         0       7       0       0       0       0       0       0       0       0       0       0       
      +0       0       0       0       0
  1735 ;;Total ram usage:        7 bytes
  1736 ;; Hardware stack levels used: 1
  1737 ;; Hardware stack levels required when called: 10
  1738 ;; This function calls:
  1739 ;;		Nothing
  1740 ;; This function is called by:
  1741 ;;		_gpio_pin_intialize
  1742 ;;		_Interrupt_INTx_Pin_Init
  1743 ;;		_button_intialize
  1744 ;; This function uses a non-reentrant model
  1745 ;;
  1746                           
  1747                           	psect	text12
  1748   001120                     __ptext12:
  1749                           	callstack 0
  1750   001120                     _gpio_pin_direction_intialize:
  1751                           	callstack 17
  1752   001120                     
  1753                           ;MCAL_Layer/GPIO/hal_gpio.c: 25:     Std_ReturnType ret = (Std_ReturnType)0x01 ;
  1754   001120  0E01               	movlw	1
  1755   001122  0100               	movlb	0	; () banked
  1756   001124  6F86               	movwf	gpio_pin_direction_intialize@ret& (0+255),b
  1757                           
  1758                           ;MCAL_Layer/GPIO/hal_gpio.c: 26:     if(((void*)0)==_pin_config || _pin_config->pin >8 -
      +                          1){
  1759   001126  5180               	movf	gpio_pin_direction_intialize@_pin_config& (0+255),w,b
  1760   001128  B4D8               	btfsc	status,2,c
  1761   00112A  EF99  F008         	goto	u1721
  1762   00112E  EF9B  F008         	goto	u1720
  1763   001132                     u1721:
  1764   001132  EFAB  F008         	goto	l2339
  1765   001136                     u1720:
  1766   001136                     
  1767                           ; BSR set to: 0
  1768   001136  5180               	movf	gpio_pin_direction_intialize@_pin_config& (0+255),w,b
  1769   001138  6ED9               	movwf	fsr2l,c
  1770   00113A  6ADA               	clrf	fsr2h,c
  1771   00113C  30DF               	rrcf	223,w,c
  1772   00113E  32E8               	rrcf	wreg,f,c
  1773   001140  32E8               	rrcf	wreg,f,c
  1774   001142  0B07               	andlw	7
  1775   001144  6F81               	movwf	??_gpio_pin_direction_intialize& (0+255),b
  1776   001146  0E07               	movlw	7
  1777   001148  6581               	cpfsgt	??_gpio_pin_direction_intialize& (0+255),b
  1778   00114A  EFA9  F008         	goto	u1731
  1779   00114E  EFAB  F008         	goto	u1730
  1780   001152                     u1731:
  1781   001152  EF04  F009         	goto	l2347
  1782   001156                     u1730:
  1783   001156                     l2339:
  1784                           
  1785                           ; BSR set to: 0
  1786                           ;MCAL_Layer/GPIO/hal_gpio.c: 27:         ret = (Std_ReturnType)0x00;
  1787   001156  0E00               	movlw	0
  1788   001158  6F86               	movwf	gpio_pin_direction_intialize@ret& (0+255),b
  1789                           
  1790                           ;MCAL_Layer/GPIO/hal_gpio.c: 28:     }else{
  1791   00115A  EF1A  F009         	goto	l2349
  1792   00115E                     l2341:
  1793                           
  1794                           ; BSR set to: 0
  1795                           ;MCAL_Layer/GPIO/hal_gpio.c: 31:                 (*tris_registers[_pin_config->port] &= 
      +                          ~((uint8)1 << _pin_config->pin));
  1796   00115E  5180               	movf	gpio_pin_direction_intialize@_pin_config& (0+255),w,b
  1797   001160  6ED9               	movwf	fsr2l,c
  1798   001162  6ADA               	clrf	fsr2h,c
  1799   001164  30DF               	rrcf	223,w,c
  1800   001166  32E8               	rrcf	wreg,f,c
  1801   001168  32E8               	rrcf	wreg,f,c
  1802   00116A  0B07               	andlw	7
  1803   00116C  6F81               	movwf	??_gpio_pin_direction_intialize& (0+255),b
  1804   00116E  0E01               	movlw	1
  1805   001170  6F82               	movwf	(??_gpio_pin_direction_intialize+1)& (0+255),b
  1806   001172  2B81               	incf	??_gpio_pin_direction_intialize& (0+255),f,b
  1807   001174  EFBE  F008         	goto	u1744
  1808   001178                     u1745:
  1809   001178  90D8               	bcf	status,0,c
  1810   00117A  3782               	rlcf	(??_gpio_pin_direction_intialize+1)& (0+255),f,b
  1811   00117C                     u1744:
  1812   00117C  2F81               	decfsz	??_gpio_pin_direction_intialize& (0+255),f,b
  1813   00117E  EFBC  F008         	goto	u1745
  1814   001182  0100               	movlb	0	; () banked
  1815   001184  5182               	movf	(??_gpio_pin_direction_intialize+1)& (0+255),w,b
  1816   001186  0AFF               	xorlw	255
  1817   001188  6F83               	movwf	(??_gpio_pin_direction_intialize+2)& (0+255),b
  1818   00118A  5180               	movf	gpio_pin_direction_intialize@_pin_config& (0+255),w,b
  1819   00118C  6ED9               	movwf	fsr2l,c
  1820   00118E  6ADA               	clrf	fsr2h,c
  1821   001190  50DF               	movf	223,w,c
  1822   001192  0B07               	andlw	7
  1823   001194  0D02               	mullw	2
  1824   001196  50F3               	movf	243,w,c
  1825   001198  0F15               	addlw	low _tris_registers
  1826   00119A  6ED9               	movwf	fsr2l,c
  1827   00119C  6ADA               	clrf	fsr2h,c
  1828   00119E  CFDE F084          	movff	postinc2,??_gpio_pin_direction_intialize+3
  1829   0011A2  CFDD F085          	movff	postdec2,??_gpio_pin_direction_intialize+4
  1830   0011A6  C084  FFD9         	movff	??_gpio_pin_direction_intialize+3,fsr2l
  1831   0011AA  C085  FFDA         	movff	??_gpio_pin_direction_intialize+4,fsr2h
  1832   0011AE  5183               	movf	(??_gpio_pin_direction_intialize+2)& (0+255),w,b
  1833   0011B0  16DF               	andwf	indf2,f,c
  1834                           
  1835                           ;MCAL_Layer/GPIO/hal_gpio.c: 32:               break;
  1836   0011B2  EF1A  F009         	goto	l2349
  1837   0011B6                     l2343:
  1838                           
  1839                           ; BSR set to: 0
  1840                           ;MCAL_Layer/GPIO/hal_gpio.c: 34:                 (*tris_registers[_pin_config->port] |= 
      +                          ((uint8)1 << _pin_config->pin));
  1841   0011B6  5180               	movf	gpio_pin_direction_intialize@_pin_config& (0+255),w,b
  1842   0011B8  6ED9               	movwf	fsr2l,c
  1843   0011BA  6ADA               	clrf	fsr2h,c
  1844   0011BC  30DF               	rrcf	223,w,c
  1845   0011BE  32E8               	rrcf	wreg,f,c
  1846   0011C0  32E8               	rrcf	wreg,f,c
  1847   0011C2  0B07               	andlw	7
  1848   0011C4  6F81               	movwf	??_gpio_pin_direction_intialize& (0+255),b
  1849   0011C6  0E01               	movlw	1
  1850   0011C8  6F82               	movwf	(??_gpio_pin_direction_intialize+1)& (0+255),b
  1851   0011CA  2B81               	incf	??_gpio_pin_direction_intialize& (0+255),f,b
  1852   0011CC  EFEA  F008         	goto	u1754
  1853   0011D0                     u1755:
  1854   0011D0  90D8               	bcf	status,0,c
  1855   0011D2  3782               	rlcf	(??_gpio_pin_direction_intialize+1)& (0+255),f,b
  1856   0011D4                     u1754:
  1857   0011D4  2F81               	decfsz	??_gpio_pin_direction_intialize& (0+255),f,b
  1858   0011D6  EFE8  F008         	goto	u1755
  1859   0011DA  0100               	movlb	0	; () banked
  1860   0011DC  5180               	movf	gpio_pin_direction_intialize@_pin_config& (0+255),w,b
  1861   0011DE  6ED9               	movwf	fsr2l,c
  1862   0011E0  6ADA               	clrf	fsr2h,c
  1863   0011E2  50DF               	movf	223,w,c
  1864   0011E4  0B07               	andlw	7
  1865   0011E6  0D02               	mullw	2
  1866   0011E8  50F3               	movf	243,w,c
  1867   0011EA  0F15               	addlw	low _tris_registers
  1868   0011EC  6ED9               	movwf	fsr2l,c
  1869   0011EE  6ADA               	clrf	fsr2h,c
  1870   0011F0  CFDE F083          	movff	postinc2,??_gpio_pin_direction_intialize+2
  1871   0011F4  CFDD F084          	movff	postdec2,??_gpio_pin_direction_intialize+3
  1872   0011F8  C083  FFD9         	movff	??_gpio_pin_direction_intialize+2,fsr2l
  1873   0011FC  C084  FFDA         	movff	??_gpio_pin_direction_intialize+3,fsr2h
  1874   001200  5182               	movf	(??_gpio_pin_direction_intialize+1)& (0+255),w,b
  1875   001202  12DF               	iorwf	indf2,f,c
  1876                           
  1877                           ;MCAL_Layer/GPIO/hal_gpio.c: 35:               break;
  1878   001204  EF1A  F009         	goto	l2349
  1879   001208                     l2347:
  1880                           
  1881                           ; BSR set to: 0
  1882   001208  5180               	movf	gpio_pin_direction_intialize@_pin_config& (0+255),w,b
  1883   00120A  6ED9               	movwf	fsr2l,c
  1884   00120C  6ADA               	clrf	fsr2h,c
  1885   00120E  BCDF               	btfsc	indf2,6,c
  1886   001210  EF0C  F009         	goto	u1761
  1887   001214  EF0F  F009         	goto	u1760
  1888   001218                     u1761:
  1889   001218  0E01               	movlw	1
  1890   00121A  EF10  F009         	goto	u1766
  1891   00121E                     u1760:
  1892   00121E  0E00               	movlw	0
  1893   001220                     u1766:
  1894                           
  1895                           ; Switch size 1, requested type "simple"
  1896                           ; Number of cases is 2, Range of values is 0 to 1
  1897                           ; switch strategies available:
  1898                           ; Name         Instructions Cycles
  1899                           ; simple_byte            7     4 (average)
  1900                           ;	Chosen strategy is simple_byte
  1901   001220  0A00               	xorlw	0	; case 0
  1902   001222  B4D8               	btfsc	status,2,c
  1903   001224  EFAF  F008         	goto	l2341
  1904   001228  0A01               	xorlw	1	; case 1
  1905   00122A  B4D8               	btfsc	status,2,c
  1906   00122C  EFDB  F008         	goto	l2343
  1907   001230  EFAB  F008         	goto	l2339
  1908   001234                     l2349:
  1909                           
  1910                           ; BSR set to: 0
  1911                           ;MCAL_Layer/GPIO/hal_gpio.c: 39:     return ret ;
  1912   001234  5186               	movf	gpio_pin_direction_intialize@ret& (0+255),w,b
  1913   001236                     
  1914                           ; BSR set to: 0
  1915   001236  0012               	return		;funcret
  1916   001238                     __end_of_gpio_pin_direction_intialize:
  1917                           	callstack 0
  1918                           
  1919 ;; *************** function _Interrupt_INTx_Enable *****************
  1920 ;; Defined at:
  1921 ;;		line 112 in file "MCAL_Layer/Interrupt/External_Interrupt.c"
  1922 ;; Parameters:    Size  Location     Type
  1923 ;;  int_obj         1    0[BANK0 ] PTR const struct .
  1924 ;;		 -> int2_obj(6), int1_obj(6), int0_obj(6), 
  1925 ;; Auto vars:     Size  Location     Type
  1926 ;;  ret             1    3[BANK0 ] unsigned char 
  1927 ;; Return value:  Size  Location     Type
  1928 ;;                  1    wreg      unsigned char 
  1929 ;; Registers used:
  1930 ;;		wreg, fsr2l, fsr2h, status,2, status,0
  1931 ;; Tracked objects:
  1932 ;;		On entry : 0/0
  1933 ;;		On exit  : 0/0
  1934 ;;		Unchanged: 0/0
  1935 ;; Data sizes:     COMRAM   BANK0   BANK1   BANK2   BANK3   BANK4   BANK5   BANK6   BANK7   BANK8   BANK9  BANK10  BANK1
      +1  BANK12  BANK13  BANK14  BANK15
  1936 ;;      Params:         0       1       0       0       0       0       0       0       0       0       0       0       
      +0       0       0       0       0
  1937 ;;      Locals:         0       1       0       0       0       0       0       0       0       0       0       0       
      +0       0       0       0       0
  1938 ;;      Temps:          0       2       0       0       0       0       0       0       0       0       0       0       
      +0       0       0       0       0
  1939 ;;      Totals:         0       4       0       0       0       0       0       0       0       0       0       0       
      +0       0       0       0       0
  1940 ;;Total ram usage:        4 bytes
  1941 ;; Hardware stack levels used: 1
  1942 ;; Hardware stack levels required when called: 10
  1943 ;; This function calls:
  1944 ;;		Nothing
  1945 ;; This function is called by:
  1946 ;;		_Interrupt_INTx_Init
  1947 ;; This function uses a non-reentrant model
  1948 ;;
  1949                           
  1950                           	psect	text13
  1951   00134E                     __ptext13:
  1952                           	callstack 0
  1953   00134E                     _Interrupt_INTx_Enable:
  1954                           	callstack 18
  1955   00134E                     
  1956                           ;MCAL_Layer/Interrupt/External_Interrupt.c: 113:  Std_ReturnType ret = (Std_ReturnType)0
      +                          x01;
  1957   00134E  0E01               	movlw	1
  1958   001350  0100               	movlb	0	; () banked
  1959   001352  6F83               	movwf	Interrupt_INTx_Enable@ret& (0+255),b
  1960                           
  1961                           ;MCAL_Layer/Interrupt/External_Interrupt.c: 114:    if(((void*)0) == int_obj){
  1962   001354  5180               	movf	Interrupt_INTx_Enable@int_obj& (0+255),w,b
  1963   001356  A4D8               	btfss	status,2,c
  1964   001358  EFB0  F009         	goto	u1981
  1965   00135C  EFB2  F009         	goto	u1980
  1966   001360                     u1981:
  1967   001360  EFFF  F009         	goto	l2553
  1968   001364                     u1980:
  1969   001364                     l2533:
  1970                           
  1971                           ; BSR set to: 0
  1972                           ;MCAL_Layer/Interrupt/External_Interrupt.c: 115:        ret = (Std_ReturnType)0x00;
  1973   001364  0E00               	movlw	0
  1974   001366  6F83               	movwf	Interrupt_INTx_Enable@ret& (0+255),b
  1975                           
  1976                           ;MCAL_Layer/Interrupt/External_Interrupt.c: 116:    }else{
  1977   001368  EF1D  F00A         	goto	l2555
  1978   00136C                     l269:
  1979                           
  1980                           ; BSR set to: 0
  1981                           ;MCAL_Layer/Interrupt/External_Interrupt.c: 120:                (RCONbits.IPEN = 1);
  1982   00136C  8ED0               	bsf	208,7,c	;volatile
  1983                           
  1984                           ;MCAL_Layer/Interrupt/External_Interrupt.c: 121:                (INTCONbits.GIEH = 1);
  1985   00136E  8EF2               	bsf	242,7,c	;volatile
  1986                           
  1987                           ;MCAL_Layer/Interrupt/External_Interrupt.c: 126:                (INTCONbits.INT0E = 1) ;
  1988   001370  88F2               	bsf	242,4,c	;volatile
  1989                           
  1990                           ;MCAL_Layer/Interrupt/External_Interrupt.c: 127:                break ;
  1991   001372  EF1D  F00A         	goto	l2555
  1992   001376                     l271:
  1993                           
  1994                           ; BSR set to: 0
  1995                           ;MCAL_Layer/Interrupt/External_Interrupt.c: 130:               (RCONbits.IPEN = 1);
  1996   001376  8ED0               	bsf	208,7,c	;volatile
  1997   001378                     
  1998                           ; BSR set to: 0
  1999                           ;MCAL_Layer/Interrupt/External_Interrupt.c: 131:               if(int_obj->priority == I
      +                          NTERRUPT_LOW_PRIORITY){(INTCONbits.GIEL = 1);}
  2000   001378  5180               	movf	Interrupt_INTx_Enable@int_obj& (0+255),w,b
  2001   00137A  6ED9               	movwf	fsr2l,c
  2002   00137C  6ADA               	clrf	fsr2h,c
  2003   00137E  0E05               	movlw	5
  2004   001380  26D9               	addwf	fsr2l,f,c
  2005   001382  50DF               	movf	indf2,w,c
  2006   001384  A4D8               	btfss	status,2,c
  2007   001386  EFC7  F009         	goto	u1991
  2008   00138A  EFC9  F009         	goto	u1990
  2009   00138E                     u1991:
  2010   00138E  EFCC  F009         	goto	l2539
  2011   001392                     u1990:
  2012   001392                     
  2013                           ; BSR set to: 0
  2014   001392  8CF2               	bsf	242,6,c	;volatile
  2015   001394  EFDA  F009         	goto	l273
  2016   001398                     l2539:
  2017                           
  2018                           ; BSR set to: 0
  2019   001398  5180               	movf	Interrupt_INTx_Enable@int_obj& (0+255),w,b
  2020   00139A  6ED9               	movwf	fsr2l,c
  2021   00139C  6ADA               	clrf	fsr2h,c
  2022   00139E  0E05               	movlw	5
  2023   0013A0  26D9               	addwf	fsr2l,f,c
  2024   0013A2  04DE               	decf	postinc2,w,c
  2025   0013A4  A4D8               	btfss	status,2,c
  2026   0013A6  EFD7  F009         	goto	u2001
  2027   0013AA  EFD9  F009         	goto	u2000
  2028   0013AE                     u2001:
  2029   0013AE  EFDA  F009         	goto	l273
  2030   0013B2                     u2000:
  2031   0013B2                     
  2032                           ; BSR set to: 0
  2033   0013B2  8EF2               	bsf	242,7,c	;volatile
  2034   0013B4                     l273:
  2035                           
  2036                           ; BSR set to: 0
  2037                           ;MCAL_Layer/Interrupt/External_Interrupt.c: 137:                (INTCON3bits.INT1IE = 1)
      +                           ;
  2038   0013B4  86F0               	bsf	240,3,c	;volatile
  2039                           
  2040                           ;MCAL_Layer/Interrupt/External_Interrupt.c: 138:                break ;
  2041   0013B6  EF1D  F00A         	goto	l2555
  2042   0013BA                     l275:
  2043                           
  2044                           ; BSR set to: 0
  2045                           ;MCAL_Layer/Interrupt/External_Interrupt.c: 141:               (RCONbits.IPEN = 1);
  2046   0013BA  8ED0               	bsf	208,7,c	;volatile
  2047   0013BC                     
  2048                           ; BSR set to: 0
  2049                           ;MCAL_Layer/Interrupt/External_Interrupt.c: 142:               if(int_obj->priority == I
      +                          NTERRUPT_LOW_PRIORITY){(INTCONbits.GIEL = 1);}
  2050   0013BC  5180               	movf	Interrupt_INTx_Enable@int_obj& (0+255),w,b
  2051   0013BE  6ED9               	movwf	fsr2l,c
  2052   0013C0  6ADA               	clrf	fsr2h,c
  2053   0013C2  0E05               	movlw	5
  2054   0013C4  26D9               	addwf	fsr2l,f,c
  2055   0013C6  50DF               	movf	indf2,w,c
  2056   0013C8  A4D8               	btfss	status,2,c
  2057   0013CA  EFE9  F009         	goto	u2011
  2058   0013CE  EFEB  F009         	goto	u2010
  2059   0013D2                     u2011:
  2060   0013D2  EFEE  F009         	goto	l2547
  2061   0013D6                     u2010:
  2062   0013D6                     
  2063                           ; BSR set to: 0
  2064   0013D6  8CF2               	bsf	242,6,c	;volatile
  2065   0013D8  EFFC  F009         	goto	l277
  2066   0013DC                     l2547:
  2067                           
  2068                           ; BSR set to: 0
  2069   0013DC  5180               	movf	Interrupt_INTx_Enable@int_obj& (0+255),w,b
  2070   0013DE  6ED9               	movwf	fsr2l,c
  2071   0013E0  6ADA               	clrf	fsr2h,c
  2072   0013E2  0E05               	movlw	5
  2073   0013E4  26D9               	addwf	fsr2l,f,c
  2074   0013E6  04DE               	decf	postinc2,w,c
  2075   0013E8  A4D8               	btfss	status,2,c
  2076   0013EA  EFF9  F009         	goto	u2021
  2077   0013EE  EFFB  F009         	goto	u2020
  2078   0013F2                     u2021:
  2079   0013F2  EFFC  F009         	goto	l277
  2080   0013F6                     u2020:
  2081   0013F6                     
  2082                           ; BSR set to: 0
  2083   0013F6  8EF2               	bsf	242,7,c	;volatile
  2084   0013F8                     l277:
  2085                           
  2086                           ; BSR set to: 0
  2087                           ;MCAL_Layer/Interrupt/External_Interrupt.c: 148:                (INTCON3bits.INT2IE = 1)
      +                           ;
  2088   0013F8  88F0               	bsf	240,4,c	;volatile
  2089                           
  2090                           ;MCAL_Layer/Interrupt/External_Interrupt.c: 149:                break ;
  2091   0013FA  EF1D  F00A         	goto	l2555
  2092   0013FE                     l2553:
  2093                           
  2094                           ; BSR set to: 0
  2095   0013FE  5180               	movf	Interrupt_INTx_Enable@int_obj& (0+255),w,b
  2096   001400  6ED9               	movwf	fsr2l,c
  2097   001402  6ADA               	clrf	fsr2h,c
  2098   001404  0E04               	movlw	4
  2099   001406  26D9               	addwf	fsr2l,f,c
  2100   001408  50DF               	movf	indf2,w,c
  2101   00140A  6F81               	movwf	??_Interrupt_INTx_Enable& (0+255),b
  2102   00140C  6B82               	clrf	(??_Interrupt_INTx_Enable+1)& (0+255),b
  2103                           
  2104                           ; Switch on 2 bytes has been partitioned into a top level switch of size 1, and 1 sub-sw
      +                          itches
  2105                           ; Switch size 1, requested type "simple"
  2106                           ; Number of cases is 1, Range of values is 0 to 0
  2107                           ; switch strategies available:
  2108                           ; Name         Instructions Cycles
  2109                           ; simple_byte            4     3 (average)
  2110                           ;	Chosen strategy is simple_byte
  2111   00140E  5182               	movf	(??_Interrupt_INTx_Enable+1)& (0+255),w,b
  2112   001410  0A00               	xorlw	0	; case 0
  2113   001412  B4D8               	btfsc	status,2,c
  2114   001414  EF0E  F00A         	goto	l2853
  2115   001418  EFB2  F009         	goto	l2533
  2116   00141C                     l2853:
  2117                           
  2118                           ; BSR set to: 0
  2119                           ; Switch size 1, requested type "simple"
  2120                           ; Number of cases is 3, Range of values is 0 to 2
  2121                           ; switch strategies available:
  2122                           ; Name         Instructions Cycles
  2123                           ; simple_byte           10     6 (average)
  2124                           ;	Chosen strategy is simple_byte
  2125   00141C  5181               	movf	??_Interrupt_INTx_Enable& (0+255),w,b
  2126   00141E  0A00               	xorlw	0	; case 0
  2127   001420  B4D8               	btfsc	status,2,c
  2128   001422  EFB6  F009         	goto	l269
  2129   001426  0A01               	xorlw	1	; case 1
  2130   001428  B4D8               	btfsc	status,2,c
  2131   00142A  EFBB  F009         	goto	l271
  2132   00142E  0A03               	xorlw	3	; case 2
  2133   001430  B4D8               	btfsc	status,2,c
  2134   001432  EFDD  F009         	goto	l275
  2135   001436  EFB2  F009         	goto	l2533
  2136   00143A                     l2555:
  2137                           
  2138                           ; BSR set to: 0
  2139                           ;MCAL_Layer/Interrupt/External_Interrupt.c: 153:    return ret;
  2140   00143A  5183               	movf	Interrupt_INTx_Enable@ret& (0+255),w,b
  2141   00143C                     
  2142                           ; BSR set to: 0
  2143   00143C  0012               	return		;funcret
  2144   00143E                     __end_of_Interrupt_INTx_Enable:
  2145                           	callstack 0
  2146                           
  2147 ;; *************** function _Interrupt_INTx_Edge_Init *****************
  2148 ;; Defined at:
  2149 ;;		line 191 in file "MCAL_Layer/Interrupt/External_Interrupt.c"
  2150 ;; Parameters:    Size  Location     Type
  2151 ;;  int_obj         1    0[BANK0 ] PTR const struct .
  2152 ;;		 -> int2_obj(6), int1_obj(6), int0_obj(6), 
  2153 ;; Auto vars:     Size  Location     Type
  2154 ;;  ret             1    3[BANK0 ] unsigned char 
  2155 ;; Return value:  Size  Location     Type
  2156 ;;                  1    wreg      unsigned char 
  2157 ;; Registers used:
  2158 ;;		wreg, fsr2l, fsr2h, status,2, status,0
  2159 ;; Tracked objects:
  2160 ;;		On entry : 0/0
  2161 ;;		On exit  : 0/0
  2162 ;;		Unchanged: 0/0
  2163 ;; Data sizes:     COMRAM   BANK0   BANK1   BANK2   BANK3   BANK4   BANK5   BANK6   BANK7   BANK8   BANK9  BANK10  BANK1
      +1  BANK12  BANK13  BANK14  BANK15
  2164 ;;      Params:         0       1       0       0       0       0       0       0       0       0       0       0       
      +0       0       0       0       0
  2165 ;;      Locals:         0       1       0       0       0       0       0       0       0       0       0       0       
      +0       0       0       0       0
  2166 ;;      Temps:          0       2       0       0       0       0       0       0       0       0       0       0       
      +0       0       0       0       0
  2167 ;;      Totals:         0       4       0       0       0       0       0       0       0       0       0       0       
      +0       0       0       0       0
  2168 ;;Total ram usage:        4 bytes
  2169 ;; Hardware stack levels used: 1
  2170 ;; Hardware stack levels required when called: 10
  2171 ;; This function calls:
  2172 ;;		Nothing
  2173 ;; This function is called by:
  2174 ;;		_Interrupt_INTx_Init
  2175 ;; This function uses a non-reentrant model
  2176 ;;
  2177                           
  2178                           	psect	text14
  2179   001002                     __ptext14:
  2180                           	callstack 0
  2181   001002                     _Interrupt_INTx_Edge_Init:
  2182                           	callstack 18
  2183   001002                     
  2184                           ;MCAL_Layer/Interrupt/External_Interrupt.c: 192:     Std_ReturnType ret = (Std_ReturnTyp
      +                          e)0x01;
  2185   001002  0E01               	movlw	1
  2186   001004  0100               	movlb	0	; () banked
  2187   001006  6F83               	movwf	Interrupt_INTx_Edge_Init@ret& (0+255),b
  2188                           
  2189                           ;MCAL_Layer/Interrupt/External_Interrupt.c: 193:    if(((void*)0) == int_obj){
  2190   001008  5180               	movf	Interrupt_INTx_Edge_Init@int_obj& (0+255),w,b
  2191   00100A  A4D8               	btfss	status,2,c
  2192   00100C  EF0A  F008         	goto	u1841
  2193   001010  EF0C  F008         	goto	u1840
  2194   001014                     u1841:
  2195   001014  EF70  F008         	goto	l2459
  2196   001018                     u1840:
  2197   001018                     
  2198                           ; BSR set to: 0
  2199                           ;MCAL_Layer/Interrupt/External_Interrupt.c: 194:        ret = (Std_ReturnType)0x00;
  2200   001018  0E00               	movlw	0
  2201   00101A  6F83               	movwf	Interrupt_INTx_Edge_Init@ret& (0+255),b
  2202                           
  2203                           ;MCAL_Layer/Interrupt/External_Interrupt.c: 195:    }else{
  2204   00101C  EF8E  F008         	goto	l2461
  2205   001020                     l2433:
  2206                           
  2207                           ; BSR set to: 0
  2208                           ;MCAL_Layer/Interrupt/External_Interrupt.c: 198:                if(int_obj->edge == INTE
      +                          RRUPT_FALLING_EDGE){(INTCON2bits.INTEDG0 =0);}
  2209   001020  5180               	movf	Interrupt_INTx_Edge_Init@int_obj& (0+255),w,b
  2210   001022  6ED9               	movwf	fsr2l,c
  2211   001024  6ADA               	clrf	fsr2h,c
  2212   001026  0E03               	movlw	3
  2213   001028  26D9               	addwf	fsr2l,f,c
  2214   00102A  50DF               	movf	indf2,w,c
  2215   00102C  A4D8               	btfss	status,2,c
  2216   00102E  EF1B  F008         	goto	u1851
  2217   001032  EF1D  F008         	goto	u1850
  2218   001036                     u1851:
  2219   001036  EF20  F008         	goto	l2437
  2220   00103A                     u1850:
  2221   00103A                     
  2222                           ; BSR set to: 0
  2223   00103A  9CF1               	bcf	241,6,c	;volatile
  2224   00103C  EF8E  F008         	goto	l2461
  2225   001040                     l2437:
  2226                           
  2227                           ; BSR set to: 0
  2228   001040  5180               	movf	Interrupt_INTx_Edge_Init@int_obj& (0+255),w,b
  2229   001042  6ED9               	movwf	fsr2l,c
  2230   001044  6ADA               	clrf	fsr2h,c
  2231   001046  0E03               	movlw	3
  2232   001048  26D9               	addwf	fsr2l,f,c
  2233   00104A  04DE               	decf	postinc2,w,c
  2234   00104C  A4D8               	btfss	status,2,c
  2235   00104E  EF2B  F008         	goto	u1861
  2236   001052  EF2D  F008         	goto	u1860
  2237   001056                     u1861:
  2238   001056  EF8E  F008         	goto	l318
  2239   00105A                     u1860:
  2240   00105A                     
  2241                           ; BSR set to: 0
  2242   00105A  8CF1               	bsf	241,6,c	;volatile
  2243   00105C  EF8E  F008         	goto	l2461
  2244   001060                     l2441:
  2245                           
  2246                           ; BSR set to: 0
  2247                           ;MCAL_Layer/Interrupt/External_Interrupt.c: 203:                if(int_obj->edge == INTE
      +                          RRUPT_FALLING_EDGE){(INTCON2bits.INTEDG1 =0);}
  2248   001060  5180               	movf	Interrupt_INTx_Edge_Init@int_obj& (0+255),w,b
  2249   001062  6ED9               	movwf	fsr2l,c
  2250   001064  6ADA               	clrf	fsr2h,c
  2251   001066  0E03               	movlw	3
  2252   001068  26D9               	addwf	fsr2l,f,c
  2253   00106A  50DF               	movf	indf2,w,c
  2254   00106C  A4D8               	btfss	status,2,c
  2255   00106E  EF3B  F008         	goto	u1871
  2256   001072  EF3D  F008         	goto	u1870
  2257   001076                     u1871:
  2258   001076  EF40  F008         	goto	l2445
  2259   00107A                     u1870:
  2260   00107A                     
  2261                           ; BSR set to: 0
  2262   00107A  9AF1               	bcf	241,5,c	;volatile
  2263   00107C  EF8E  F008         	goto	l2461
  2264   001080                     l2445:
  2265                           
  2266                           ; BSR set to: 0
  2267   001080  5180               	movf	Interrupt_INTx_Edge_Init@int_obj& (0+255),w,b
  2268   001082  6ED9               	movwf	fsr2l,c
  2269   001084  6ADA               	clrf	fsr2h,c
  2270   001086  0E03               	movlw	3
  2271   001088  26D9               	addwf	fsr2l,f,c
  2272   00108A  04DE               	decf	postinc2,w,c
  2273   00108C  A4D8               	btfss	status,2,c
  2274   00108E  EF4B  F008         	goto	u1881
  2275   001092  EF4D  F008         	goto	u1880
  2276   001096                     u1881:
  2277   001096  EF8E  F008         	goto	l2461
  2278   00109A                     u1880:
  2279   00109A                     
  2280                           ; BSR set to: 0
  2281   00109A  8AF1               	bsf	241,5,c	;volatile
  2282   00109C  EF8E  F008         	goto	l2461
  2283   0010A0                     l2449:
  2284                           
  2285                           ; BSR set to: 0
  2286                           ;MCAL_Layer/Interrupt/External_Interrupt.c: 209:                if(int_obj->edge == INTE
      +                          RRUPT_FALLING_EDGE){(INTCON2bits.INTEDG2 =0);}
  2287   0010A0  5180               	movf	Interrupt_INTx_Edge_Init@int_obj& (0+255),w,b
  2288   0010A2  6ED9               	movwf	fsr2l,c
  2289   0010A4  6ADA               	clrf	fsr2h,c
  2290   0010A6  0E03               	movlw	3
  2291   0010A8  26D9               	addwf	fsr2l,f,c
  2292   0010AA  50DF               	movf	indf2,w,c
  2293   0010AC  A4D8               	btfss	status,2,c
  2294   0010AE  EF5B  F008         	goto	u1891
  2295   0010B2  EF5D  F008         	goto	u1890
  2296   0010B6                     u1891:
  2297   0010B6  EF60  F008         	goto	l2453
  2298   0010BA                     u1890:
  2299   0010BA                     
  2300                           ; BSR set to: 0
  2301   0010BA  98F1               	bcf	241,4,c	;volatile
  2302   0010BC  EF8E  F008         	goto	l2461
  2303   0010C0                     l2453:
  2304                           
  2305                           ; BSR set to: 0
  2306   0010C0  5180               	movf	Interrupt_INTx_Edge_Init@int_obj& (0+255),w,b
  2307   0010C2  6ED9               	movwf	fsr2l,c
  2308   0010C4  6ADA               	clrf	fsr2h,c
  2309   0010C6  0E03               	movlw	3
  2310   0010C8  26D9               	addwf	fsr2l,f,c
  2311   0010CA  04DE               	decf	postinc2,w,c
  2312   0010CC  A4D8               	btfss	status,2,c
  2313   0010CE  EF6B  F008         	goto	u1901
  2314   0010D2  EF6D  F008         	goto	u1900
  2315   0010D6                     u1901:
  2316   0010D6  EF8E  F008         	goto	l2461
  2317   0010DA                     u1900:
  2318   0010DA                     
  2319                           ; BSR set to: 0
  2320   0010DA  88F1               	bsf	241,4,c	;volatile
  2321   0010DC  EF8E  F008         	goto	l2461
  2322   0010E0                     l2459:
  2323                           
  2324                           ; BSR set to: 0
  2325   0010E0  5180               	movf	Interrupt_INTx_Edge_Init@int_obj& (0+255),w,b
  2326   0010E2  6ED9               	movwf	fsr2l,c
  2327   0010E4  6ADA               	clrf	fsr2h,c
  2328   0010E6  0E04               	movlw	4
  2329   0010E8  26D9               	addwf	fsr2l,f,c
  2330   0010EA  50DF               	movf	indf2,w,c
  2331   0010EC  6F81               	movwf	??_Interrupt_INTx_Edge_Init& (0+255),b
  2332   0010EE  6B82               	clrf	(??_Interrupt_INTx_Edge_Init+1)& (0+255),b
  2333                           
  2334                           ; Switch on 2 bytes has been partitioned into a top level switch of size 1, and 1 sub-sw
      +                          itches
  2335                           ; Switch size 1, requested type "simple"
  2336                           ; Number of cases is 1, Range of values is 0 to 0
  2337                           ; switch strategies available:
  2338                           ; Name         Instructions Cycles
  2339                           ; simple_byte            4     3 (average)
  2340                           ;	Chosen strategy is simple_byte
  2341   0010F0  5182               	movf	(??_Interrupt_INTx_Edge_Init+1)& (0+255),w,b
  2342   0010F2  0A00               	xorlw	0	; case 0
  2343   0010F4  B4D8               	btfsc	status,2,c
  2344   0010F6  EF7F  F008         	goto	l2855
  2345   0010FA  EF8E  F008         	goto	l2461
  2346   0010FE                     l2855:
  2347                           
  2348                           ; BSR set to: 0
  2349                           ; Switch size 1, requested type "simple"
  2350                           ; Number of cases is 3, Range of values is 0 to 2
  2351                           ; switch strategies available:
  2352                           ; Name         Instructions Cycles
  2353                           ; simple_byte           10     6 (average)
  2354                           ;	Chosen strategy is simple_byte
  2355   0010FE  5181               	movf	??_Interrupt_INTx_Edge_Init& (0+255),w,b
  2356   001100  0A00               	xorlw	0	; case 0
  2357   001102  B4D8               	btfsc	status,2,c
  2358   001104  EF10  F008         	goto	l2433
  2359   001108  0A01               	xorlw	1	; case 1
  2360   00110A  B4D8               	btfsc	status,2,c
  2361   00110C  EF30  F008         	goto	l2441
  2362   001110  0A03               	xorlw	3	; case 2
  2363   001112  B4D8               	btfsc	status,2,c
  2364   001114  EF50  F008         	goto	l2449
  2365   001118  EF8E  F008         	goto	l2461
  2366   00111C                     l318:
  2367   00111C                     l2461:
  2368                           
  2369                           ; BSR set to: 0
  2370                           ;MCAL_Layer/Interrupt/External_Interrupt.c: 215:    return ret;
  2371   00111C  5183               	movf	Interrupt_INTx_Edge_Init@ret& (0+255),w,b
  2372   00111E                     
  2373                           ; BSR set to: 0
  2374   00111E  0012               	return		;funcret
  2375   001120                     __end_of_Interrupt_INTx_Edge_Init:
  2376                           	callstack 0
  2377                           
  2378 ;; *************** function _Interrupt_INTx_Disable *****************
  2379 ;; Defined at:
  2380 ;;		line 155 in file "MCAL_Layer/Interrupt/External_Interrupt.c"
  2381 ;; Parameters:    Size  Location     Type
  2382 ;;  int_obj         1    0[BANK0 ] PTR const struct .
  2383 ;;		 -> int2_obj(6), int1_obj(6), int0_obj(6), Interrupt_INTx_DeInit@int_obj(2), 
  2384 ;; Auto vars:     Size  Location     Type
  2385 ;;  ret             1    0        unsigned char 
  2386 ;; Return value:  Size  Location     Type
  2387 ;;                  1    wreg      unsigned char 
  2388 ;; Registers used:
  2389 ;;		wreg, fsr2l, fsr2h, status,2, status,0
  2390 ;; Tracked objects:
  2391 ;;		On entry : 0/0
  2392 ;;		On exit  : 0/0
  2393 ;;		Unchanged: 0/0
  2394 ;; Data sizes:     COMRAM   BANK0   BANK1   BANK2   BANK3   BANK4   BANK5   BANK6   BANK7   BANK8   BANK9  BANK10  BANK1
      +1  BANK12  BANK13  BANK14  BANK15
  2395 ;;      Params:         0       1       0       0       0       0       0       0       0       0       0       0       
      +0       0       0       0       0
  2396 ;;      Locals:         0       0       0       0       0       0       0       0       0       0       0       0       
      +0       0       0       0       0
  2397 ;;      Temps:          0       2       0       0       0       0       0       0       0       0       0       0       
      +0       0       0       0       0
  2398 ;;      Totals:         0       3       0       0       0       0       0       0       0       0       0       0       
      +0       0       0       0       0
  2399 ;;Total ram usage:        3 bytes
  2400 ;; Hardware stack levels used: 1
  2401 ;; Hardware stack levels required when called: 10
  2402 ;; This function calls:
  2403 ;;		Nothing
  2404 ;; This function is called by:
  2405 ;;		_Interrupt_INTx_Init
  2406 ;;		_Interrupt_INTx_DeInit
  2407 ;; This function uses a non-reentrant model
  2408 ;;
  2409                           
  2410                           	psect	text15
  2411   001870                     __ptext15:
  2412                           	callstack 0
  2413   001870                     _Interrupt_INTx_Disable:
  2414                           	callstack 18
  2415   001870                     
  2416                           ;MCAL_Layer/Interrupt/External_Interrupt.c: 157:    if(((void*)0) == int_obj){
  2417   001870  0100               	movlb	0	; () banked
  2418   001872  5180               	movf	Interrupt_INTx_Disable@int_obj& (0+255),w,b
  2419   001874  A4D8               	btfss	status,2,c
  2420   001876  EF3F  F00C         	goto	u1821
  2421   00187A  EF41  F00C         	goto	u1820
  2422   00187E                     u1821:
  2423   00187E  EF4C  F00C         	goto	l2399
  2424   001882                     u1820:
  2425   001882                     
  2426                           ; BSR set to: 0
  2427                           ;MCAL_Layer/Interrupt/External_Interrupt.c: 159:    }else{
  2428   001882  EF6B  F00C         	goto	l290
  2429   001886                     l286:
  2430                           
  2431                           ; BSR set to: 0
  2432   001886  98F2               	bcf	242,4,c	;volatile
  2433   001888  EF6A  F00C         	goto	l2401
  2434   00188C                     l288:
  2435                           
  2436                           ; BSR set to: 0
  2437   00188C  96F0               	bcf	240,3,c	;volatile
  2438   00188E  EF6A  F00C         	goto	l2401
  2439   001892                     l289:
  2440                           
  2441                           ; BSR set to: 0
  2442   001892  98F0               	bcf	240,4,c	;volatile
  2443   001894  EF6A  F00C         	goto	l2401
  2444   001898                     l2399:
  2445                           
  2446                           ; BSR set to: 0
  2447   001898  5180               	movf	Interrupt_INTx_Disable@int_obj& (0+255),w,b
  2448   00189A  6ED9               	movwf	fsr2l,c
  2449   00189C  6ADA               	clrf	fsr2h,c
  2450   00189E  0E04               	movlw	4
  2451   0018A0  26D9               	addwf	fsr2l,f,c
  2452   0018A2  50DF               	movf	indf2,w,c
  2453   0018A4  6F81               	movwf	??_Interrupt_INTx_Disable& (0+255),b
  2454   0018A6  6B82               	clrf	(??_Interrupt_INTx_Disable+1)& (0+255),b
  2455                           
  2456                           ; Switch on 2 bytes has been partitioned into a top level switch of size 1, and 1 sub-sw
      +                          itches
  2457                           ; Switch size 1, requested type "simple"
  2458                           ; Number of cases is 1, Range of values is 0 to 0
  2459                           ; switch strategies available:
  2460                           ; Name         Instructions Cycles
  2461                           ; simple_byte            4     3 (average)
  2462                           ;	Chosen strategy is simple_byte
  2463   0018A8  5182               	movf	(??_Interrupt_INTx_Disable+1)& (0+255),w,b
  2464   0018AA  0A00               	xorlw	0	; case 0
  2465   0018AC  B4D8               	btfsc	status,2,c
  2466   0018AE  EF5B  F00C         	goto	l2857
  2467   0018B2  EF6A  F00C         	goto	l2401
  2468   0018B6                     l2857:
  2469                           
  2470                           ; BSR set to: 0
  2471                           ; Switch size 1, requested type "simple"
  2472                           ; Number of cases is 3, Range of values is 0 to 2
  2473                           ; switch strategies available:
  2474                           ; Name         Instructions Cycles
  2475                           ; simple_byte           10     6 (average)
  2476                           ;	Chosen strategy is simple_byte
  2477   0018B6  5181               	movf	??_Interrupt_INTx_Disable& (0+255),w,b
  2478   0018B8  0A00               	xorlw	0	; case 0
  2479   0018BA  B4D8               	btfsc	status,2,c
  2480   0018BC  EF43  F00C         	goto	l286
  2481   0018C0  0A01               	xorlw	1	; case 1
  2482   0018C2  B4D8               	btfsc	status,2,c
  2483   0018C4  EF46  F00C         	goto	l288
  2484   0018C8  0A03               	xorlw	3	; case 2
  2485   0018CA  B4D8               	btfsc	status,2,c
  2486   0018CC  EF49  F00C         	goto	l289
  2487   0018D0  EF6A  F00C         	goto	l2401
  2488   0018D4                     l2401:
  2489                           
  2490                           ; BSR set to: 0
  2491                           ;MCAL_Layer/Interrupt/External_Interrupt.c: 165:    return ret;
  2492   0018D4  0E01               	movlw	1
  2493   0018D6                     l290:
  2494                           
  2495                           ; BSR set to: 0
  2496   0018D6  0012               	return		;funcret
  2497   0018D8                     __end_of_Interrupt_INTx_Disable:
  2498                           	callstack 0
  2499                           
  2500 ;; *************** function _Interrupt_INTx_Clear_Flag *****************
  2501 ;; Defined at:
  2502 ;;		line 226 in file "MCAL_Layer/Interrupt/External_Interrupt.c"
  2503 ;; Parameters:    Size  Location     Type
  2504 ;;  int_obj         1    0[BANK0 ] PTR const struct .
  2505 ;;		 -> int2_obj(6), int1_obj(6), int0_obj(6), 
  2506 ;; Auto vars:     Size  Location     Type
  2507 ;;  ret             1    3[BANK0 ] unsigned char 
  2508 ;; Return value:  Size  Location     Type
  2509 ;;                  1    wreg      unsigned char 
  2510 ;; Registers used:
  2511 ;;		wreg, fsr2l, fsr2h, status,2, status,0
  2512 ;; Tracked objects:
  2513 ;;		On entry : 0/0
  2514 ;;		On exit  : 0/0
  2515 ;;		Unchanged: 0/0
  2516 ;; Data sizes:     COMRAM   BANK0   BANK1   BANK2   BANK3   BANK4   BANK5   BANK6   BANK7   BANK8   BANK9  BANK10  BANK1
      +1  BANK12  BANK13  BANK14  BANK15
  2517 ;;      Params:         0       1       0       0       0       0       0       0       0       0       0       0       
      +0       0       0       0       0
  2518 ;;      Locals:         0       1       0       0       0       0       0       0       0       0       0       0       
      +0       0       0       0       0
  2519 ;;      Temps:          0       2       0       0       0       0       0       0       0       0       0       0       
      +0       0       0       0       0
  2520 ;;      Totals:         0       4       0       0       0       0       0       0       0       0       0       0       
      +0       0       0       0       0
  2521 ;;Total ram usage:        4 bytes
  2522 ;; Hardware stack levels used: 1
  2523 ;; Hardware stack levels required when called: 10
  2524 ;; This function calls:
  2525 ;;		Nothing
  2526 ;; This function is called by:
  2527 ;;		_Interrupt_INTx_Init
  2528 ;; This function uses a non-reentrant model
  2529 ;;
  2530                           
  2531                           	psect	text16
  2532   001796                     __ptext16:
  2533                           	callstack 0
  2534   001796                     _Interrupt_INTx_Clear_Flag:
  2535                           	callstack 18
  2536   001796                     
  2537                           ;MCAL_Layer/Interrupt/External_Interrupt.c: 227:     Std_ReturnType ret = (Std_ReturnTyp
      +                          e)0x01;
  2538   001796  0E01               	movlw	1
  2539   001798  0100               	movlb	0	; () banked
  2540   00179A  6F83               	movwf	Interrupt_INTx_Clear_Flag@ret& (0+255),b
  2541                           
  2542                           ;MCAL_Layer/Interrupt/External_Interrupt.c: 228:    if(((void*)0) == int_obj){
  2543   00179C  5180               	movf	Interrupt_INTx_Clear_Flag@int_obj& (0+255),w,b
  2544   00179E  A4D8               	btfss	status,2,c
  2545   0017A0  EFD4  F00B         	goto	u1831
  2546   0017A4  EFD6  F00B         	goto	u1830
  2547   0017A8                     u1831:
  2548   0017A8  EFE3  F00B         	goto	l2417
  2549   0017AC                     u1830:
  2550   0017AC                     l2413:
  2551                           
  2552                           ; BSR set to: 0
  2553                           ;MCAL_Layer/Interrupt/External_Interrupt.c: 229:        ret = (Std_ReturnType)0x00;
  2554   0017AC  0E00               	movlw	0
  2555   0017AE  6F83               	movwf	Interrupt_INTx_Clear_Flag@ret& (0+255),b
  2556                           
  2557                           ;MCAL_Layer/Interrupt/External_Interrupt.c: 230:    }else{
  2558   0017B0  EF01  F00C         	goto	l2419
  2559   0017B4                     l340:
  2560                           
  2561                           ; BSR set to: 0
  2562   0017B4  92F2               	bcf	242,1,c	;volatile
  2563   0017B6  EF01  F00C         	goto	l2419
  2564   0017BA                     l342:
  2565                           
  2566                           ; BSR set to: 0
  2567   0017BA  90F0               	bcf	240,0,c	;volatile
  2568   0017BC  EF01  F00C         	goto	l2419
  2569   0017C0                     l343:
  2570                           
  2571                           ; BSR set to: 0
  2572   0017C0  92F0               	bcf	240,1,c	;volatile
  2573   0017C2  EF01  F00C         	goto	l2419
  2574   0017C6                     l2417:
  2575                           
  2576                           ; BSR set to: 0
  2577   0017C6  5180               	movf	Interrupt_INTx_Clear_Flag@int_obj& (0+255),w,b
  2578   0017C8  6ED9               	movwf	fsr2l,c
  2579   0017CA  6ADA               	clrf	fsr2h,c
  2580   0017CC  0E04               	movlw	4
  2581   0017CE  26D9               	addwf	fsr2l,f,c
  2582   0017D0  50DF               	movf	indf2,w,c
  2583   0017D2  6F81               	movwf	??_Interrupt_INTx_Clear_Flag& (0+255),b
  2584   0017D4  6B82               	clrf	(??_Interrupt_INTx_Clear_Flag+1)& (0+255),b
  2585                           
  2586                           ; Switch on 2 bytes has been partitioned into a top level switch of size 1, and 1 sub-sw
      +                          itches
  2587                           ; Switch size 1, requested type "simple"
  2588                           ; Number of cases is 1, Range of values is 0 to 0
  2589                           ; switch strategies available:
  2590                           ; Name         Instructions Cycles
  2591                           ; simple_byte            4     3 (average)
  2592                           ;	Chosen strategy is simple_byte
  2593   0017D6  5182               	movf	(??_Interrupt_INTx_Clear_Flag+1)& (0+255),w,b
  2594   0017D8  0A00               	xorlw	0	; case 0
  2595   0017DA  B4D8               	btfsc	status,2,c
  2596   0017DC  EFF2  F00B         	goto	l2859
  2597   0017E0  EFD6  F00B         	goto	l2413
  2598   0017E4                     l2859:
  2599                           
  2600                           ; BSR set to: 0
  2601                           ; Switch size 1, requested type "simple"
  2602                           ; Number of cases is 3, Range of values is 0 to 2
  2603                           ; switch strategies available:
  2604                           ; Name         Instructions Cycles
  2605                           ; simple_byte           10     6 (average)
  2606                           ;	Chosen strategy is simple_byte
  2607   0017E4  5181               	movf	??_Interrupt_INTx_Clear_Flag& (0+255),w,b
  2608   0017E6  0A00               	xorlw	0	; case 0
  2609   0017E8  B4D8               	btfsc	status,2,c
  2610   0017EA  EFDA  F00B         	goto	l340
  2611   0017EE  0A01               	xorlw	1	; case 1
  2612   0017F0  B4D8               	btfsc	status,2,c
  2613   0017F2  EFDD  F00B         	goto	l342
  2614   0017F6  0A03               	xorlw	3	; case 2
  2615   0017F8  B4D8               	btfsc	status,2,c
  2616   0017FA  EFE0  F00B         	goto	l343
  2617   0017FE  EFD6  F00B         	goto	l2413
  2618   001802                     l2419:
  2619                           
  2620                           ; BSR set to: 0
  2621                           ;MCAL_Layer/Interrupt/External_Interrupt.c: 238:    return ret;
  2622   001802  5183               	movf	Interrupt_INTx_Clear_Flag@ret& (0+255),w,b
  2623   001804                     
  2624                           ; BSR set to: 0
  2625   001804  0012               	return		;funcret
  2626   001806                     __end_of_Interrupt_INTx_Clear_Flag:
  2627                           	callstack 0
  2628                           
  2629 ;; *************** function _InterruptManagerLow *****************
  2630 ;; Defined at:
  2631 ;;		line 19 in file "MCAL_Layer/Interrupt/Interrupt_manager.c"
  2632 ;; Parameters:    Size  Location     Type
  2633 ;;		None
  2634 ;; Auto vars:     Size  Location     Type
  2635 ;;		None
  2636 ;; Return value:  Size  Location     Type
  2637 ;;                  1    wreg      void 
  2638 ;; Registers used:
  2639 ;;		wreg, fsr2l, fsr2h, status,2, status,0, pcl, pclath, pclatu, tosl, prodl, prodh, cstack
  2640 ;; Tracked objects:
  2641 ;;		On entry : 0/0
  2642 ;;		On exit  : 0/0
  2643 ;;		Unchanged: 0/0
  2644 ;; Data sizes:     COMRAM   BANK0   BANK1   BANK2   BANK3   BANK4   BANK5   BANK6   BANK7   BANK8   BANK9  BANK10  BANK1
      +1  BANK12  BANK13  BANK14  BANK15
  2645 ;;      Params:         0       0       0       0       0       0       0       0       0       0       0       0       
      +0       0       0       0       0
  2646 ;;      Locals:         0       0       0       0       0       0       0       0       0       0       0       0       
      +0       0       0       0       0
  2647 ;;      Temps:          9       0       0       0       0       0       0       0       0       0       0       0       
      +0       0       0       0       0
  2648 ;;      Totals:         9       0       0       0       0       0       0       0       0       0       0       0       
      +0       0       0       0       0
  2649 ;;Total ram usage:        9 bytes
  2650 ;; Hardware stack levels used: 1
  2651 ;; Hardware stack levels required when called: 9
  2652 ;; This function calls:
  2653 ;;		_INT1_ISR
  2654 ;; This function is called by:
  2655 ;;		Interrupt level 1
  2656 ;; This function uses a non-reentrant model
  2657 ;;
  2658                           
  2659                           	psect	intcodelo
  2660   000018                     __pintcodelo:
  2661                           	callstack 0
  2662   000018                     _InterruptManagerLow:
  2663                           	callstack 17
  2664                           
  2665                           ; BSR set to: 0
  2666                           ;incstack = 0
  2667   000018  8061               	bsf	int$flags,0,c	;set compiler interrupt flag (level 1)
  2668   00001A  CFD8 F04E          	movff	status,??_InterruptManagerLow
  2669   00001E  CFE8 F04F          	movff	wreg,??_InterruptManagerLow+1
  2670   000022  CFE0 F050          	movff	bsr,??_InterruptManagerLow+2
  2671   000026  CFFA F051          	movff	pclath,??_InterruptManagerLow+3
  2672   00002A  CFFB F052          	movff	pclatu,??_InterruptManagerLow+4
  2673   00002E  CFD9 F053          	movff	fsr2l,??_InterruptManagerLow+5
  2674   000032  CFDA F054          	movff	fsr2h,??_InterruptManagerLow+6
  2675   000036  CFF3 F055          	movff	prodl,??_InterruptManagerLow+7
  2676   00003A  CFF4 F056          	movff	prodh,??_InterruptManagerLow+8
  2677   00003E                     
  2678                           ;MCAL_Layer/Interrupt/Interrupt_manager.c: 20: if((INTCON3bits.INT1IE == 1) && (INTCON3b
      +                          its.INT1IF == 1) ){
  2679   00003E  A6F0               	btfss	240,3,c	;volatile
  2680   000040  EF24  F000         	goto	i1u165_21
  2681   000044  EF26  F000         	goto	i1u165_20
  2682   000048                     i1u165_21:
  2683   000048  EF2F  F000         	goto	i1l213
  2684   00004C                     i1u165_20:
  2685   00004C  A0F0               	btfss	240,0,c	;volatile
  2686   00004E  EF2B  F000         	goto	i1u166_21
  2687   000052  EF2D  F000         	goto	i1u166_20
  2688   000056                     i1u166_21:
  2689   000056  EF2F  F000         	goto	i1l213
  2690   00005A                     i1u166_20:
  2691   00005A                     
  2692                           ;MCAL_Layer/Interrupt/Interrupt_manager.c: 21:        INT1_ISR();
  2693   00005A  ECAE  F00D         	call	_INT1_ISR	;wreg free
  2694   00005E                     i1l213:
  2695   00005E  C056  FFF4         	movff	??_InterruptManagerLow+8,prodh
  2696   000062  C055  FFF3         	movff	??_InterruptManagerLow+7,prodl
  2697   000066  C054  FFDA         	movff	??_InterruptManagerLow+6,fsr2h
  2698   00006A  C053  FFD9         	movff	??_InterruptManagerLow+5,fsr2l
  2699   00006E  C052  FFFB         	movff	??_InterruptManagerLow+4,pclatu
  2700   000072  C051  FFFA         	movff	??_InterruptManagerLow+3,pclath
  2701   000076  C050  FFE0         	movff	??_InterruptManagerLow+2,bsr
  2702   00007A  C04F  FFE8         	movff	??_InterruptManagerLow+1,wreg
  2703   00007E  C04E  FFD8         	movff	??_InterruptManagerLow,status
  2704   000082  9061               	bcf	int$flags,0,c	;clear compiler interrupt flag (level 1)
  2705   000084  0010               	retfie	
  2706   000086                     __end_of_InterruptManagerLow:
  2707                           	callstack 0
  2708                           
  2709 ;; *************** function _INT1_ISR *****************
  2710 ;; Defined at:
  2711 ;;		line 293 in file "MCAL_Layer/Interrupt/External_Interrupt.c"
  2712 ;; Parameters:    Size  Location     Type
  2713 ;;		None
  2714 ;; Auto vars:     Size  Location     Type
  2715 ;;		None
  2716 ;; Return value:  Size  Location     Type
  2717 ;;                  1    wreg      void 
  2718 ;; Registers used:
  2719 ;;		wreg, fsr2l, fsr2h, status,2, status,0, pcl, pclath, pclatu, tosl, prodl, prodh, cstack
  2720 ;; Tracked objects:
  2721 ;;		On entry : 0/0
  2722 ;;		On exit  : 0/0
  2723 ;;		Unchanged: 0/0
  2724 ;; Data sizes:     COMRAM   BANK0   BANK1   BANK2   BANK3   BANK4   BANK5   BANK6   BANK7   BANK8   BANK9  BANK10  BANK1
      +1  BANK12  BANK13  BANK14  BANK15
  2725 ;;      Params:         0       0       0       0       0       0       0       0       0       0       0       0       
      +0       0       0       0       0
  2726 ;;      Locals:         0       0       0       0       0       0       0       0       0       0       0       0       
      +0       0       0       0       0
  2727 ;;      Temps:          0       0       0       0       0       0       0       0       0       0       0       0       
      +0       0       0       0       0
  2728 ;;      Totals:         0       0       0       0       0       0       0       0       0       0       0       0       
      +0       0       0       0       0
  2729 ;;Total ram usage:        0 bytes
  2730 ;; Hardware stack levels used: 1
  2731 ;; Hardware stack levels required when called: 8
  2732 ;; This function calls:
  2733 ;;		NULL
  2734 ;;		_Int0_APP_ISR
  2735 ;;		_Int1_APP_ISR
  2736 ;;		_Int2_APP_ISR
  2737 ;; This function is called by:
  2738 ;;		_InterruptManagerLow
  2739 ;; This function uses a non-reentrant model
  2740 ;;
  2741                           
  2742                           	psect	text18
  2743   001B5C                     __ptext18:
  2744                           	callstack 0
  2745   001B5C                     _INT1_ISR:
  2746                           	callstack 17
  2747   001B5C                     
  2748                           ;MCAL_Layer/Interrupt/External_Interrupt.c: 295:     (INTCON3bits.INT1IF = 0);
  2749   001B5C  90F0               	bcf	240,0,c	;volatile
  2750   001B5E                     
  2751                           ;MCAL_Layer/Interrupt/External_Interrupt.c: 299:     if(INT1_InterruptHandler){ INT1_Int
      +                          erruptHandler(); }
  2752   001B5E  5059               	movf	_INT1_InterruptHandler^0,w,c
  2753   001B60  105A               	iorwf	(_INT1_InterruptHandler+1)^0,w,c
  2754   001B62  B4D8               	btfsc	status,2,c
  2755   001B64  EFB6  F00D         	goto	i1u154_21
  2756   001B68  EFB8  F00D         	goto	i1u154_20
  2757   001B6C                     i1u154_21:
  2758   001B6C  EFC5  F00D         	goto	i1l379
  2759   001B70                     i1u154_20:
  2760   001B70  D802               	call	i1u155_28
  2761   001B72  EFC5  F00D         	goto	i1u155_29
  2762   001B76                     i1u155_28:
  2763   001B76  0005               	push	
  2764   001B78  6EFA               	movwf	pclath,c
  2765   001B7A  5059               	movf	_INT1_InterruptHandler^0,w,c
  2766   001B7C  6EFD               	movwf	tosl,c
  2767   001B7E  505A               	movf	(_INT1_InterruptHandler+1)^0,w,c
  2768   001B80  6EFE               	movwf	tosh,c
  2769   001B82  50F8               	movf	tblptru,w,c
  2770   001B84  6EFF               	movwf	tosu,c
  2771   001B86  50FA               	movf	pclath,w,c
  2772   001B88  0012               	return		;indir
  2773   001B8A                     i1u155_29:
  2774   001B8A                     i1l379:
  2775   001B8A  0012               	return		;funcret
  2776   001B8C                     __end_of_INT1_ISR:
  2777                           	callstack 0
  2778                           
  2779 ;; *************** function _Int1_APP_ISR *****************
  2780 ;; Defined at:
  2781 ;;		line 64 in file "application.c"
  2782 ;; Parameters:    Size  Location     Type
  2783 ;;		None
  2784 ;; Auto vars:     Size  Location     Type
  2785 ;;  i               1   25[COMRAM] unsigned char 
  2786 ;; Return value:  Size  Location     Type
  2787 ;;                  1    wreg      void 
  2788 ;; Registers used:
  2789 ;;		wreg, fsr2l, fsr2h, status,2, status,0, prodl, prodh, cstack
  2790 ;; Tracked objects:
  2791 ;;		On entry : 0/0
  2792 ;;		On exit  : 0/0
  2793 ;;		Unchanged: 0/0
  2794 ;; Data sizes:     COMRAM   BANK0   BANK1   BANK2   BANK3   BANK4   BANK5   BANK6   BANK7   BANK8   BANK9  BANK10  BANK1
      +1  BANK12  BANK13  BANK14  BANK15
  2795 ;;      Params:         0       0       0       0       0       0       0       0       0       0       0       0       
      +0       0       0       0       0
  2796 ;;      Locals:         1       0       0       0       0       0       0       0       0       0       0       0       
      +0       0       0       0       0
  2797 ;;      Temps:          1       0       0       0       0       0       0       0       0       0       0       0       
      +0       0       0       0       0
  2798 ;;      Totals:         2       0       0       0       0       0       0       0       0       0       0       0       
      +0       0       0       0       0
  2799 ;;Total ram usage:        2 bytes
  2800 ;; Hardware stack levels used: 1
  2801 ;; Hardware stack levels required when called: 7
  2802 ;; This function calls:
  2803 ;;		_led_turn_toggle
  2804 ;; This function is called by:
  2805 ;;		_INT0_ISR
  2806 ;;		_INT2_ISR
  2807 ;;		_INT1_ISR
  2808 ;; This function uses a non-reentrant model
  2809 ;;
  2810                           
  2811                           	psect	text19
  2812   001A7A                     __ptext19:
  2813                           	callstack 0
  2814   001A7A                     _Int1_APP_ISR:
  2815                           	callstack 0
  2816                           
  2817                           ;Skip over the trampoline to the duplicate function for level 2
  2818   001A7A  A261               	btfss	int$flags,1,c
  2819   001A7C  EF42  F00D         	goto	_Int1_APP_ISR$intlevel1
  2820   001A80  EFF6  F00D         	goto	i2_Int1_APP_ISR
  2821   001A84                     _Int1_APP_ISR$intlevel1:
  2822                           	callstack 17
  2823   001A84                     
  2824                           ;application.c: 65:     for(uint8 i=0;i<100;i++){
  2825   001A84  0E00               	movlw	0
  2826   001A86  6E4D               	movwf	Int1_APP_ISR@i^0,c
  2827   001A88                     i1l2117:
  2828                           
  2829                           ;application.c: 66:     led_turn_toggle(&led1);
  2830   001A88  0E32               	movlw	low _led1
  2831   001A8A  6E49               	movwf	led_turn_toggle@led^0,c
  2832   001A8C  EC6C  F00C         	call	_led_turn_toggle	;wreg free
  2833   001A90                     
  2834                           ;application.c: 67:     _delay((unsigned long)((100)*((uint64)3200000/4000.0)));
  2835   001A90  0E68               	movlw	104
  2836   001A92  6E4C               	movwf	??_Int1_APP_ISR^0,c
  2837   001A94  0EE4               	movlw	228
  2838   001A96                     i1u212_27:
  2839   001A96  2EE8               	decfsz	wreg,f,c
  2840   001A98  D7FE               	bra	i1u212_27
  2841   001A9A  2E4C               	decfsz	??_Int1_APP_ISR^0,f,c
  2842   001A9C  D7FC               	bra	i1u212_27
  2843   001A9E  D000               	nop2	
  2844   001AA0                     
  2845                           ;application.c: 68:     }
  2846   001AA0  2A4D               	incf	Int1_APP_ISR@i^0,f,c
  2847   001AA2  0E63               	movlw	99
  2848   001AA4  644D               	cpfsgt	Int1_APP_ISR@i^0,c
  2849   001AA6  EF57  F00D         	goto	i1u145_21
  2850   001AAA  EF59  F00D         	goto	i1u145_20
  2851   001AAE                     i1u145_21:
  2852   001AAE  EF44  F00D         	goto	i1l2117
  2853   001AB2                     i1u145_20:
  2854   001AB2  0012               	return		;funcret
  2855   001AB4                     __end_of_Int1_APP_ISR:
  2856                           	callstack 0
  2857                           
  2858 ;; *************** function _Int0_APP_ISR *****************
  2859 ;; Defined at:
  2860 ;;		line 58 in file "application.c"
  2861 ;; Parameters:    Size  Location     Type
  2862 ;;		None
  2863 ;; Auto vars:     Size  Location     Type
  2864 ;;  i               1   25[COMRAM] unsigned char 
  2865 ;; Return value:  Size  Location     Type
  2866 ;;                  1    wreg      void 
  2867 ;; Registers used:
  2868 ;;		wreg, fsr2l, fsr2h, status,2, status,0, prodl, prodh, cstack
  2869 ;; Tracked objects:
  2870 ;;		On entry : 0/0
  2871 ;;		On exit  : 0/0
  2872 ;;		Unchanged: 0/0
  2873 ;; Data sizes:     COMRAM   BANK0   BANK1   BANK2   BANK3   BANK4   BANK5   BANK6   BANK7   BANK8   BANK9  BANK10  BANK1
      +1  BANK12  BANK13  BANK14  BANK15
  2874 ;;      Params:         0       0       0       0       0       0       0       0       0       0       0       0       
      +0       0       0       0       0
  2875 ;;      Locals:         1       0       0       0       0       0       0       0       0       0       0       0       
      +0       0       0       0       0
  2876 ;;      Temps:          1       0       0       0       0       0       0       0       0       0       0       0       
      +0       0       0       0       0
  2877 ;;      Totals:         2       0       0       0       0       0       0       0       0       0       0       0       
      +0       0       0       0       0
  2878 ;;Total ram usage:        2 bytes
  2879 ;; Hardware stack levels used: 1
  2880 ;; Hardware stack levels required when called: 7
  2881 ;; This function calls:
  2882 ;;		_led_turn_toggle
  2883 ;; This function is called by:
  2884 ;;		_INT0_ISR
  2885 ;;		_INT2_ISR
  2886 ;;		_INT1_ISR
  2887 ;; This function uses a non-reentrant model
  2888 ;;
  2889                           
  2890                           	psect	text20
  2891   001AB4                     __ptext20:
  2892                           	callstack 0
  2893   001AB4                     _Int0_APP_ISR:
  2894                           	callstack 0
  2895                           
  2896                           ;Skip over the trampoline to the duplicate function for level 2
  2897   001AB4  A261               	btfss	int$flags,1,c
  2898   001AB6  EF5F  F00D         	goto	_Int0_APP_ISR$intlevel1
  2899   001ABA  EF0E  F00E         	goto	i2_Int0_APP_ISR
  2900   001ABE                     _Int0_APP_ISR$intlevel1:
  2901                           	callstack 17
  2902   001ABE                     
  2903                           ;application.c: 59:     for(uint8 i=0;i<100;i++){
  2904   001ABE  0E00               	movlw	0
  2905   001AC0  6E4D               	movwf	Int0_APP_ISR@i^0,c
  2906   001AC2                     i1l2103:
  2907                           
  2908                           ;application.c: 60:     led_turn_toggle(&led0);
  2909   001AC2  0E33               	movlw	low _led0
  2910   001AC4  6E49               	movwf	led_turn_toggle@led^0,c
  2911   001AC6  EC6C  F00C         	call	_led_turn_toggle	;wreg free
  2912   001ACA                     
  2913                           ;application.c: 61:     _delay((unsigned long)((100)*((uint64)3200000/4000.0)));
  2914   001ACA  0E68               	movlw	104
  2915   001ACC  6E4C               	movwf	??_Int0_APP_ISR^0,c
  2916   001ACE  0EE4               	movlw	228
  2917   001AD0                     i1u213_27:
  2918   001AD0  2EE8               	decfsz	wreg,f,c
  2919   001AD2  D7FE               	bra	i1u213_27
  2920   001AD4  2E4C               	decfsz	??_Int0_APP_ISR^0,f,c
  2921   001AD6  D7FC               	bra	i1u213_27
  2922   001AD8  D000               	nop2	
  2923   001ADA                     
  2924                           ;application.c: 62:     }
  2925   001ADA  2A4D               	incf	Int0_APP_ISR@i^0,f,c
  2926   001ADC  0E63               	movlw	99
  2927   001ADE  644D               	cpfsgt	Int0_APP_ISR@i^0,c
  2928   001AE0  EF74  F00D         	goto	i1u144_21
  2929   001AE4  EF76  F00D         	goto	i1u144_20
  2930   001AE8                     i1u144_21:
  2931   001AE8  EF61  F00D         	goto	i1l2103
  2932   001AEC                     i1u144_20:
  2933   001AEC  0012               	return		;funcret
  2934   001AEE                     __end_of_Int0_APP_ISR:
  2935                           	callstack 0
  2936                           
  2937 ;; *************** function _Int2_APP_ISR *****************
  2938 ;; Defined at:
  2939 ;;		line 70 in file "application.c"
  2940 ;; Parameters:    Size  Location     Type
  2941 ;;		None
  2942 ;; Auto vars:     Size  Location     Type
  2943 ;;  i               1   25[COMRAM] unsigned char 
  2944 ;; Return value:  Size  Location     Type
  2945 ;;                  1    wreg      void 
  2946 ;; Registers used:
  2947 ;;		wreg, fsr2l, fsr2h, status,2, status,0, prodl, prodh, cstack
  2948 ;; Tracked objects:
  2949 ;;		On entry : 0/0
  2950 ;;		On exit  : 0/0
  2951 ;;		Unchanged: 0/0
  2952 ;; Data sizes:     COMRAM   BANK0   BANK1   BANK2   BANK3   BANK4   BANK5   BANK6   BANK7   BANK8   BANK9  BANK10  BANK1
      +1  BANK12  BANK13  BANK14  BANK15
  2953 ;;      Params:         0       0       0       0       0       0       0       0       0       0       0       0       
      +0       0       0       0       0
  2954 ;;      Locals:         1       0       0       0       0       0       0       0       0       0       0       0       
      +0       0       0       0       0
  2955 ;;      Temps:          1       0       0       0       0       0       0       0       0       0       0       0       
      +0       0       0       0       0
  2956 ;;      Totals:         2       0       0       0       0       0       0       0       0       0       0       0       
      +0       0       0       0       0
  2957 ;;Total ram usage:        2 bytes
  2958 ;; Hardware stack levels used: 1
  2959 ;; Hardware stack levels required when called: 7
  2960 ;; This function calls:
  2961 ;;		_led_turn_toggle
  2962 ;; This function is called by:
  2963 ;;		_INT0_ISR
  2964 ;;		_INT2_ISR
  2965 ;;		_INT1_ISR
  2966 ;; This function uses a non-reentrant model
  2967 ;;
  2968                           
  2969                           	psect	text21
  2970   001AEE                     __ptext21:
  2971                           	callstack 0
  2972   001AEE                     _Int2_APP_ISR:
  2973                           	callstack 0
  2974                           
  2975                           ;Skip over the trampoline to the duplicate function for level 2
  2976   001AEE  A261               	btfss	int$flags,1,c
  2977   001AF0  EF7C  F00D         	goto	_Int2_APP_ISR$intlevel1
  2978   001AF4  EF26  F00E         	goto	i2_Int2_APP_ISR
  2979   001AF8                     _Int2_APP_ISR$intlevel1:
  2980                           	callstack 17
  2981   001AF8                     
  2982                           ;application.c: 71:     for(uint8 i=0;i<100;i++){
  2983   001AF8  0E00               	movlw	0
  2984   001AFA  6E4D               	movwf	Int2_APP_ISR@i^0,c
  2985   001AFC                     i1l2131:
  2986                           
  2987                           ;application.c: 72:     led_turn_toggle(&led2);
  2988   001AFC  0E31               	movlw	low _led2
  2989   001AFE  6E49               	movwf	led_turn_toggle@led^0,c
  2990   001B00  EC6C  F00C         	call	_led_turn_toggle	;wreg free
  2991   001B04                     
  2992                           ;application.c: 73:     _delay((unsigned long)((100)*((uint64)3200000/4000.0)));
  2993   001B04  0E68               	movlw	104
  2994   001B06  6E4C               	movwf	??_Int2_APP_ISR^0,c
  2995   001B08  0EE4               	movlw	228
  2996   001B0A                     i1u214_27:
  2997   001B0A  2EE8               	decfsz	wreg,f,c
  2998   001B0C  D7FE               	bra	i1u214_27
  2999   001B0E  2E4C               	decfsz	??_Int2_APP_ISR^0,f,c
  3000   001B10  D7FC               	bra	i1u214_27
  3001   001B12  D000               	nop2	
  3002   001B14                     
  3003                           ;application.c: 74:     }
  3004   001B14  2A4D               	incf	Int2_APP_ISR@i^0,f,c
  3005   001B16  0E63               	movlw	99
  3006   001B18  644D               	cpfsgt	Int2_APP_ISR@i^0,c
  3007   001B1A  EF91  F00D         	goto	i1u146_21
  3008   001B1E  EF93  F00D         	goto	i1u146_20
  3009   001B22                     i1u146_21:
  3010   001B22  EF7E  F00D         	goto	i1l2131
  3011   001B26                     i1u146_20:
  3012   001B26  0012               	return		;funcret
  3013   001B28                     __end_of_Int2_APP_ISR:
  3014                           	callstack 0
  3015                           
  3016 ;; *************** function _led_turn_toggle *****************
  3017 ;; Defined at:
  3018 ;;		line 83 in file "ECU_Layer/led/led.c"
  3019 ;; Parameters:    Size  Location     Type
  3020 ;;  led             1   21[COMRAM] PTR const struct .
  3021 ;;		 -> led2(1), led1(1), led0(1), 
  3022 ;; Auto vars:     Size  Location     Type
  3023 ;;  pin_obj         1   23[COMRAM] struct .
  3024 ;;  ret             1    0        unsigned char 
  3025 ;; Return value:  Size  Location     Type
  3026 ;;                  1    wreg      unsigned char 
  3027 ;; Registers used:
  3028 ;;		wreg, fsr2l, fsr2h, status,2, status,0, prodl, prodh, cstack
  3029 ;; Tracked objects:
  3030 ;;		On entry : 0/0
  3031 ;;		On exit  : 0/0
  3032 ;;		Unchanged: 0/0
  3033 ;; Data sizes:     COMRAM   BANK0   BANK1   BANK2   BANK3   BANK4   BANK5   BANK6   BANK7   BANK8   BANK9  BANK10  BANK1
      +1  BANK12  BANK13  BANK14  BANK15
  3034 ;;      Params:         1       0       0       0       0       0       0       0       0       0       0       0       
      +0       0       0       0       0
  3035 ;;      Locals:         1       0       0       0       0       0       0       0       0       0       0       0       
      +0       0       0       0       0
  3036 ;;      Temps:          1       0       0       0       0       0       0       0       0       0       0       0       
      +0       0       0       0       0
  3037 ;;      Totals:         3       0       0       0       0       0       0       0       0       0       0       0       
      +0       0       0       0       0
  3038 ;;Total ram usage:        3 bytes
  3039 ;; Hardware stack levels used: 1
  3040 ;; Hardware stack levels required when called: 6
  3041 ;; This function calls:
  3042 ;;		_gpio_pin_toggle_logic
  3043 ;; This function is called by:
  3044 ;;		_Int0_APP_ISR
  3045 ;;		_Int1_APP_ISR
  3046 ;;		_Int2_APP_ISR
  3047 ;; This function uses a non-reentrant model
  3048 ;;
  3049                           
  3050                           	psect	text22
  3051   0018D8                     __ptext22:
  3052                           	callstack 0
  3053   0018D8                     _led_turn_toggle:
  3054                           	callstack 17
  3055   0018D8                     
  3056                           ;ECU_Layer/led/led.c: 85:     if(((void*)0) == led){
  3057   0018D8  5049               	movf	led_turn_toggle@led^0,w,c
  3058   0018DA  A4D8               	btfss	status,2,c
  3059   0018DC  EF72  F00C         	goto	i1u116_21
  3060   0018E0  EF74  F00C         	goto	i1u116_20
  3061   0018E4                     i1u116_21:
  3062   0018E4  EF76  F00C         	goto	i1l30
  3063   0018E8                     i1u116_20:
  3064   0018E8                     
  3065                           ;ECU_Layer/led/led.c: 87:     }else{
  3066   0018E8  EF9E  F00C         	goto	i1l34
  3067   0018EC                     i1l30:
  3068                           
  3069                           ;ECU_Layer/led/led.c: 88:         pin_config_t pin_obj ={
  3070   0018EC  C05D  F04B         	movff	led_turn_toggle@F3077,led_turn_toggle@pin_obj
  3071   0018F0  5049               	movf	led_turn_toggle@led^0,w,c
  3072   0018F2  6ED9               	movwf	fsr2l,c
  3073   0018F4  6ADA               	clrf	fsr2h,c
  3074   0018F6  50DF               	movf	223,w,c
  3075   0018F8  0B0F               	andlw	15
  3076   0018FA  6E4A               	movwf	??_led_turn_toggle^0,c
  3077   0018FC  504B               	movf	led_turn_toggle@pin_obj^0,w,c
  3078   0018FE  184A               	xorwf	??_led_turn_toggle^0,w,c
  3079   001900  0BF8               	andlw	-8
  3080   001902  184A               	xorwf	??_led_turn_toggle^0,w,c
  3081   001904  6E4B               	movwf	led_turn_toggle@pin_obj^0,c
  3082   001906  5049               	movf	led_turn_toggle@led^0,w,c
  3083   001908  6ED9               	movwf	fsr2l,c
  3084   00190A  6ADA               	clrf	fsr2h,c
  3085   00190C  38DF               	swapf	223,w,c
  3086   00190E  0B07               	andlw	7
  3087   001910  6E4A               	movwf	??_led_turn_toggle^0,c
  3088   001912  464A               	rlncf	??_led_turn_toggle^0,f,c
  3089   001914  464A               	rlncf	??_led_turn_toggle^0,f,c
  3090   001916  464A               	rlncf	??_led_turn_toggle^0,f,c
  3091   001918  504B               	movf	led_turn_toggle@pin_obj^0,w,c
  3092   00191A  184A               	xorwf	??_led_turn_toggle^0,w,c
  3093   00191C  0BC7               	andlw	-57
  3094   00191E  184A               	xorwf	??_led_turn_toggle^0,w,c
  3095   001920  6E4B               	movwf	led_turn_toggle@pin_obj^0,c
  3096   001922  9C4B               	bcf	led_turn_toggle@pin_obj^0,6,c
  3097   001924  5049               	movf	led_turn_toggle@led^0,w,c
  3098   001926  6ED9               	movwf	fsr2l,c
  3099   001928  6ADA               	clrf	fsr2h,c
  3100   00192A  AEDF               	btfss	indf2,7,c
  3101   00192C  D002               	bra	i1u117_25
  3102   00192E  8E4B               	bsf	led_turn_toggle@pin_obj^0,7,c
  3103   001930  D001               	bra	i1u117_27
  3104   001932                     i1u117_25:
  3105   001932  9E4B               	bcf	led_turn_toggle@pin_obj^0,7,c
  3106   001934                     i1u117_27:
  3107   001934                     
  3108                           ;ECU_Layer/led/led.c: 94:       gpio_pin_toggle_logic(&pin_obj);
  3109   001934  0E4B               	movlw	low led_turn_toggle@pin_obj
  3110   001936  6E44               	movwf	gpio_pin_toggle_logic@_pin_config^0,c
  3111   001938  ECD3  F00A         	call	_gpio_pin_toggle_logic	;wreg free
  3112   00193C                     i1l34:
  3113   00193C  0012               	return		;funcret
  3114   00193E                     __end_of_led_turn_toggle:
  3115                           	callstack 0
  3116                           
  3117 ;; *************** function _gpio_pin_toggle_logic *****************
  3118 ;; Defined at:
  3119 ;;		line 115 in file "MCAL_Layer/GPIO/hal_gpio.c"
  3120 ;; Parameters:    Size  Location     Type
  3121 ;;  _pin_config     1   16[COMRAM] PTR const struct .
  3122 ;;		 -> led_turn_toggle@pin_obj(1), 
  3123 ;; Auto vars:     Size  Location     Type
  3124 ;;  ret             1    0        unsigned char 
  3125 ;; Return value:  Size  Location     Type
  3126 ;;                  1    wreg      unsigned char 
  3127 ;; Registers used:
  3128 ;;		wreg, fsr2l, fsr2h, status,2, status,0, prodl, prodh
  3129 ;; Tracked objects:
  3130 ;;		On entry : 0/0
  3131 ;;		On exit  : 0/0
  3132 ;;		Unchanged: 0/0
  3133 ;; Data sizes:     COMRAM   BANK0   BANK1   BANK2   BANK3   BANK4   BANK5   BANK6   BANK7   BANK8   BANK9  BANK10  BANK1
      +1  BANK12  BANK13  BANK14  BANK15
  3134 ;;      Params:         1       0       0       0       0       0       0       0       0       0       0       0       
      +0       0       0       0       0
  3135 ;;      Locals:         0       0       0       0       0       0       0       0       0       0       0       0       
      +0       0       0       0       0
  3136 ;;      Temps:          4       0       0       0       0       0       0       0       0       0       0       0       
      +0       0       0       0       0
  3137 ;;      Totals:         5       0       0       0       0       0       0       0       0       0       0       0       
      +0       0       0       0       0
  3138 ;;Total ram usage:        5 bytes
  3139 ;; Hardware stack levels used: 1
  3140 ;; Hardware stack levels required when called: 5
  3141 ;; This function calls:
  3142 ;;		Nothing
  3143 ;; This function is called by:
  3144 ;;		_led_turn_toggle
  3145 ;; This function uses a non-reentrant model
  3146 ;;
  3147                           
  3148                           	psect	text23
  3149   0015A6                     __ptext23:
  3150                           	callstack 0
  3151   0015A6                     _gpio_pin_toggle_logic:
  3152                           	callstack 17
  3153   0015A6                     
  3154                           ;MCAL_Layer/GPIO/hal_gpio.c: 117:     if(((void*)0)==_pin_config || _pin_config->pin >8 
      +                          -1){
  3155   0015A6  5044               	movf	gpio_pin_toggle_logic@_pin_config^0,w,c
  3156   0015A8  B4D8               	btfsc	status,2,c
  3157   0015AA  EFD9  F00A         	goto	i1u100_21
  3158   0015AE  EFDB  F00A         	goto	i1u100_20
  3159   0015B2                     i1u100_21:
  3160   0015B2  EFEB  F00A         	goto	i1l1799
  3161   0015B6                     i1u100_20:
  3162   0015B6  5044               	movf	gpio_pin_toggle_logic@_pin_config^0,w,c
  3163   0015B8  6ED9               	movwf	fsr2l,c
  3164   0015BA  6ADA               	clrf	fsr2h,c
  3165   0015BC  30DF               	rrcf	223,w,c
  3166   0015BE  32E8               	rrcf	wreg,f,c
  3167   0015C0  32E8               	rrcf	wreg,f,c
  3168   0015C2  0B07               	andlw	7
  3169   0015C4  6E45               	movwf	??_gpio_pin_toggle_logic^0,c
  3170   0015C6  0E07               	movlw	7
  3171   0015C8  6445               	cpfsgt	??_gpio_pin_toggle_logic^0,c
  3172   0015CA  EFE9  F00A         	goto	i1u101_21
  3173   0015CE  EFEB  F00A         	goto	i1u101_20
  3174   0015D2                     i1u101_21:
  3175   0015D2  EFED  F00A         	goto	i1l1801
  3176   0015D6                     i1u101_20:
  3177   0015D6                     i1l1799:
  3178                           
  3179                           ;MCAL_Layer/GPIO/hal_gpio.c: 119:     }else{
  3180   0015D6  EF13  F00B         	goto	i1l151
  3181   0015DA                     i1l1801:
  3182                           
  3183                           ;MCAL_Layer/GPIO/hal_gpio.c: 120:         (*port_registers[_pin_config->port] ^= ((uint8
      +                          )1 << _pin_config->pin));
  3184   0015DA  5044               	movf	gpio_pin_toggle_logic@_pin_config^0,w,c
  3185   0015DC  6ED9               	movwf	fsr2l,c
  3186   0015DE  6ADA               	clrf	fsr2h,c
  3187   0015E0  30DF               	rrcf	223,w,c
  3188   0015E2  32E8               	rrcf	wreg,f,c
  3189   0015E4  32E8               	rrcf	wreg,f,c
  3190   0015E6  0B07               	andlw	7
  3191   0015E8  6E45               	movwf	??_gpio_pin_toggle_logic^0,c
  3192   0015EA  0E01               	movlw	1
  3193   0015EC  6E46               	movwf	(??_gpio_pin_toggle_logic+1)^0,c
  3194   0015EE  2A45               	incf	??_gpio_pin_toggle_logic^0,f,c
  3195   0015F0  EFFC  F00A         	goto	i1u102_24
  3196   0015F4                     i1u102_25:
  3197   0015F4  90D8               	bcf	status,0,c
  3198   0015F6  3646               	rlcf	(??_gpio_pin_toggle_logic+1)^0,f,c
  3199   0015F8                     i1u102_24:
  3200   0015F8  2E45               	decfsz	??_gpio_pin_toggle_logic^0,f,c
  3201   0015FA  EFFA  F00A         	goto	i1u102_25
  3202   0015FE  5044               	movf	gpio_pin_toggle_logic@_pin_config^0,w,c
  3203   001600  6ED9               	movwf	fsr2l,c
  3204   001602  6ADA               	clrf	fsr2h,c
  3205   001604  50DF               	movf	223,w,c
  3206   001606  0B07               	andlw	7
  3207   001608  0D02               	mullw	2
  3208   00160A  50F3               	movf	243,w,c
  3209   00160C  0F01               	addlw	low _port_registers
  3210   00160E  6ED9               	movwf	fsr2l,c
  3211   001610  6ADA               	clrf	fsr2h,c
  3212   001612  CFDE F047          	movff	postinc2,??_gpio_pin_toggle_logic+2
  3213   001616  CFDD F048          	movff	postdec2,??_gpio_pin_toggle_logic+3
  3214   00161A  C047  FFD9         	movff	??_gpio_pin_toggle_logic+2,fsr2l
  3215   00161E  C048  FFDA         	movff	??_gpio_pin_toggle_logic+3,fsr2h
  3216   001622  5046               	movf	(??_gpio_pin_toggle_logic+1)^0,w,c
  3217   001624  1ADF               	xorwf	indf2,f,c
  3218   001626                     i1l151:
  3219   001626  0012               	return		;funcret
  3220   001628                     __end_of_gpio_pin_toggle_logic:
  3221                           	callstack 0
  3222                           
  3223 ;; *************** function _InterruptManagerHigh *****************
  3224 ;; Defined at:
  3225 ;;		line 11 in file "MCAL_Layer/Interrupt/Interrupt_manager.c"
  3226 ;; Parameters:    Size  Location     Type
  3227 ;;		None
  3228 ;; Auto vars:     Size  Location     Type
  3229 ;;		None
  3230 ;; Return value:  Size  Location     Type
  3231 ;;                  1    wreg      void 
  3232 ;; Registers used:
  3233 ;;		wreg, fsr2l, fsr2h, status,2, status,0, pcl, pclath, pclatu, tosl, prodl, prodh, cstack
  3234 ;; Tracked objects:
  3235 ;;		On entry : 0/0
  3236 ;;		On exit  : 0/0
  3237 ;;		Unchanged: 0/0
  3238 ;; Data sizes:     COMRAM   BANK0   BANK1   BANK2   BANK3   BANK4   BANK5   BANK6   BANK7   BANK8   BANK9  BANK10  BANK1
      +1  BANK12  BANK13  BANK14  BANK15
  3239 ;;      Params:         0       0       0       0       0       0       0       0       0       0       0       0       
      +0       0       0       0       0
  3240 ;;      Locals:         0       0       0       0       0       0       0       0       0       0       0       0       
      +0       0       0       0       0
  3241 ;;      Temps:          6       0       0       0       0       0       0       0       0       0       0       0       
      +0       0       0       0       0
  3242 ;;      Totals:         6       0       0       0       0       0       0       0       0       0       0       0       
      +0       0       0       0       0
  3243 ;;Total ram usage:        6 bytes
  3244 ;; Hardware stack levels used: 1
  3245 ;; Hardware stack levels required when called: 4
  3246 ;; This function calls:
  3247 ;;		_INT0_ISR
  3248 ;;		_INT2_ISR
  3249 ;; This function is called by:
  3250 ;;		Interrupt level 2
  3251 ;; This function uses a non-reentrant model
  3252 ;;
  3253                           
  3254                           	psect	intcode
  3255   000008                     __pintcode:
  3256                           	callstack 0
  3257   000008                     _InterruptManagerHigh:
  3258                           	callstack 17
  3259                           
  3260                           ;incstack = 0
  3261   000008  8261               	bsf	int$flags,1,c	;set compiler interrupt flag (level 2)
  3262   00000A  ED90  F00B         	call	int_func,f	;refresh shadow registers
  3263                           
  3264                           	psect	intcode_body
  3265   001720                     __pintcode_body:
  3266                           	callstack 17
  3267   001720                     int_func:
  3268                           	callstack 17
  3269   001720  0006               	pop		; remove dummy address from shadow register refresh
  3270   001722  CFFA F03E          	movff	pclath,??_InterruptManagerHigh
  3271   001726  CFFB F03F          	movff	pclatu,??_InterruptManagerHigh+1
  3272   00172A  CFD9 F040          	movff	fsr2l,??_InterruptManagerHigh+2
  3273   00172E  CFDA F041          	movff	fsr2h,??_InterruptManagerHigh+3
  3274   001732  CFF3 F042          	movff	prodl,??_InterruptManagerHigh+4
  3275   001736  CFF4 F043          	movff	prodh,??_InterruptManagerHigh+5
  3276   00173A                     
  3277                           ;MCAL_Layer/Interrupt/Interrupt_manager.c: 12: if((INTCONbits.INT0IE == 1) && (INTCONbit
      +                          s.INT0IF == 1) ){
  3278   00173A  A8F2               	btfss	242,4,c	;volatile
  3279   00173C  EFA2  F00B         	goto	i2u161_41
  3280   001740  EFA4  F00B         	goto	i2u161_40
  3281   001744                     i2u161_41:
  3282   001744  EFAD  F00B         	goto	i2l203
  3283   001748                     i2u161_40:
  3284   001748  A2F2               	btfss	242,1,c	;volatile
  3285   00174A  EFA9  F00B         	goto	i2u162_41
  3286   00174E  EFAB  F00B         	goto	i2u162_40
  3287   001752                     i2u162_41:
  3288   001752  EFAD  F00B         	goto	i2l203
  3289   001756                     i2u162_40:
  3290   001756                     
  3291                           ;MCAL_Layer/Interrupt/Interrupt_manager.c: 13:        INT0_ISR();
  3292   001756  ECDE  F00D         	call	_INT0_ISR	;wreg free
  3293   00175A                     i2l203:
  3294                           
  3295                           ;MCAL_Layer/Interrupt/Interrupt_manager.c: 15: if((INTCON3bits.INT2IE == 1) && (INTCON3b
      +                          its.INT2IF == 1) ){
  3296   00175A  A8F0               	btfss	240,4,c	;volatile
  3297   00175C  EFB2  F00B         	goto	i2u163_41
  3298   001760  EFB4  F00B         	goto	i2u163_40
  3299   001764                     i2u163_41:
  3300   001764  EFBD  F00B         	goto	i2l206
  3301   001768                     i2u163_40:
  3302   001768  A2F0               	btfss	240,1,c	;volatile
  3303   00176A  EFB9  F00B         	goto	i2u164_41
  3304   00176E  EFBB  F00B         	goto	i2u164_40
  3305   001772                     i2u164_41:
  3306   001772  EFBD  F00B         	goto	i2l206
  3307   001776                     i2u164_40:
  3308   001776                     
  3309                           ;MCAL_Layer/Interrupt/Interrupt_manager.c: 16:        INT2_ISR();
  3310   001776  ECC6  F00D         	call	_INT2_ISR	;wreg free
  3311   00177A                     i2l206:
  3312   00177A  C043  FFF4         	movff	??_InterruptManagerHigh+5,prodh
  3313   00177E  C042  FFF3         	movff	??_InterruptManagerHigh+4,prodl
  3314   001782  C041  FFDA         	movff	??_InterruptManagerHigh+3,fsr2h
  3315   001786  C040  FFD9         	movff	??_InterruptManagerHigh+2,fsr2l
  3316   00178A  C03F  FFFB         	movff	??_InterruptManagerHigh+1,pclatu
  3317   00178E  C03E  FFFA         	movff	??_InterruptManagerHigh,pclath
  3318   001792  9261               	bcf	int$flags,1,c	;clear compiler interrupt flag (level 2)
  3319   001794  0011               	retfie		f
  3320   001796                     __end_of_InterruptManagerHigh:
  3321                           	callstack 0
  3322                           
  3323 ;; *************** function _INT2_ISR *****************
  3324 ;; Defined at:
  3325 ;;		line 301 in file "MCAL_Layer/Interrupt/External_Interrupt.c"
  3326 ;; Parameters:    Size  Location     Type
  3327 ;;		None
  3328 ;; Auto vars:     Size  Location     Type
  3329 ;;		None
  3330 ;; Return value:  Size  Location     Type
  3331 ;;                  1    wreg      void 
  3332 ;; Registers used:
  3333 ;;		wreg, fsr2l, fsr2h, status,2, status,0, pcl, pclath, pclatu, tosl, prodl, prodh, cstack
  3334 ;; Tracked objects:
  3335 ;;		On entry : 0/0
  3336 ;;		On exit  : 0/0
  3337 ;;		Unchanged: 0/0
  3338 ;; Data sizes:     COMRAM   BANK0   BANK1   BANK2   BANK3   BANK4   BANK5   BANK6   BANK7   BANK8   BANK9  BANK10  BANK1
      +1  BANK12  BANK13  BANK14  BANK15
  3339 ;;      Params:         0       0       0       0       0       0       0       0       0       0       0       0       
      +0       0       0       0       0
  3340 ;;      Locals:         0       0       0       0       0       0       0       0       0       0       0       0       
      +0       0       0       0       0
  3341 ;;      Temps:          0       0       0       0       0       0       0       0       0       0       0       0       
      +0       0       0       0       0
  3342 ;;      Totals:         0       0       0       0       0       0       0       0       0       0       0       0       
      +0       0       0       0       0
  3343 ;;Total ram usage:        0 bytes
  3344 ;; Hardware stack levels used: 1
  3345 ;; Hardware stack levels required when called: 3
  3346 ;; This function calls:
  3347 ;;		NULL
  3348 ;;		i2_Int0_APP_ISR
  3349 ;;		i2_Int1_APP_ISR
  3350 ;;		i2_Int2_APP_ISR
  3351 ;; This function is called by:
  3352 ;;		_InterruptManagerHigh
  3353 ;; This function uses a non-reentrant model
  3354 ;;
  3355                           
  3356                           	psect	text25
  3357   001B8C                     __ptext25:
  3358                           	callstack 0
  3359   001B8C                     _INT2_ISR:
  3360                           	callstack 17
  3361   001B8C                     
  3362                           ;MCAL_Layer/Interrupt/External_Interrupt.c: 303:     (INTCON3bits.INT2IF = 0);
  3363   001B8C  92F0               	bcf	240,1,c	;volatile
  3364   001B8E                     
  3365                           ;MCAL_Layer/Interrupt/External_Interrupt.c: 307:     if(INT2_InterruptHandler){ INT2_Int
      +                          erruptHandler(); }
  3366   001B8E  5057               	movf	_INT2_InterruptHandler^0,w,c
  3367   001B90  1058               	iorwf	(_INT2_InterruptHandler+1)^0,w,c
  3368   001B92  B4D8               	btfsc	status,2,c
  3369   001B94  EFCE  F00D         	goto	i2u152_41
  3370   001B98  EFD0  F00D         	goto	i2u152_40
  3371   001B9C                     i2u152_41:
  3372   001B9C  EFDD  F00D         	goto	i2l383
  3373   001BA0                     i2u152_40:
  3374   001BA0  D802               	call	i2u153_48
  3375   001BA2  EFDD  F00D         	goto	i2u153_49
  3376   001BA6                     i2u153_48:
  3377   001BA6  0005               	push	
  3378   001BA8  6EFA               	movwf	pclath,c
  3379   001BAA  5057               	movf	_INT2_InterruptHandler^0,w,c
  3380   001BAC  6EFD               	movwf	tosl,c
  3381   001BAE  5058               	movf	(_INT2_InterruptHandler+1)^0,w,c
  3382   001BB0  6EFE               	movwf	tosh,c
  3383   001BB2  50F8               	movf	tblptru,w,c
  3384   001BB4  6EFF               	movwf	tosu,c
  3385   001BB6  50FA               	movf	pclath,w,c
  3386   001BB8  0012               	return		;indir
  3387   001BBA                     i2u153_49:
  3388   001BBA                     i2l383:
  3389   001BBA  0012               	return		;funcret
  3390   001BBC                     __end_of_INT2_ISR:
  3391                           	callstack 0
  3392                           
  3393 ;; *************** function _INT0_ISR *****************
  3394 ;; Defined at:
  3395 ;;		line 285 in file "MCAL_Layer/Interrupt/External_Interrupt.c"
  3396 ;; Parameters:    Size  Location     Type
  3397 ;;		None
  3398 ;; Auto vars:     Size  Location     Type
  3399 ;;		None
  3400 ;; Return value:  Size  Location     Type
  3401 ;;                  1    wreg      void 
  3402 ;; Registers used:
  3403 ;;		wreg, fsr2l, fsr2h, status,2, status,0, pcl, pclath, pclatu, tosl, prodl, prodh, cstack
  3404 ;; Tracked objects:
  3405 ;;		On entry : 0/0
  3406 ;;		On exit  : 0/0
  3407 ;;		Unchanged: 0/0
  3408 ;; Data sizes:     COMRAM   BANK0   BANK1   BANK2   BANK3   BANK4   BANK5   BANK6   BANK7   BANK8   BANK9  BANK10  BANK1
      +1  BANK12  BANK13  BANK14  BANK15
  3409 ;;      Params:         0       0       0       0       0       0       0       0       0       0       0       0       
      +0       0       0       0       0
  3410 ;;      Locals:         0       0       0       0       0       0       0       0       0       0       0       0       
      +0       0       0       0       0
  3411 ;;      Temps:          0       0       0       0       0       0       0       0       0       0       0       0       
      +0       0       0       0       0
  3412 ;;      Totals:         0       0       0       0       0       0       0       0       0       0       0       0       
      +0       0       0       0       0
  3413 ;;Total ram usage:        0 bytes
  3414 ;; Hardware stack levels used: 1
  3415 ;; Hardware stack levels required when called: 3
  3416 ;; This function calls:
  3417 ;;		NULL
  3418 ;;		i2_Int0_APP_ISR
  3419 ;;		i2_Int1_APP_ISR
  3420 ;;		i2_Int2_APP_ISR
  3421 ;; This function is called by:
  3422 ;;		_InterruptManagerHigh
  3423 ;; This function uses a non-reentrant model
  3424 ;;
  3425                           
  3426                           	psect	text26
  3427   001BBC                     __ptext26:
  3428                           	callstack 0
  3429   001BBC                     _INT0_ISR:
  3430                           	callstack 17
  3431   001BBC                     
  3432                           ;MCAL_Layer/Interrupt/External_Interrupt.c: 287:     (INTCONbits.INT0IF = 0);
  3433   001BBC  92F2               	bcf	242,1,c	;volatile
  3434   001BBE                     
  3435                           ;MCAL_Layer/Interrupt/External_Interrupt.c: 291:     if(INT0_InterruptHandler){ INT0_Int
      +                          erruptHandler(); }
  3436   001BBE  505B               	movf	_INT0_InterruptHandler^0,w,c
  3437   001BC0  105C               	iorwf	(_INT0_InterruptHandler+1)^0,w,c
  3438   001BC2  B4D8               	btfsc	status,2,c
  3439   001BC4  EFE6  F00D         	goto	i2u150_41
  3440   001BC8  EFE8  F00D         	goto	i2u150_40
  3441   001BCC                     i2u150_41:
  3442   001BCC  EFF5  F00D         	goto	i2l375
  3443   001BD0                     i2u150_40:
  3444   001BD0  D802               	call	i2u151_48
  3445   001BD2  EFF5  F00D         	goto	i2u151_49
  3446   001BD6                     i2u151_48:
  3447   001BD6  0005               	push	
  3448   001BD8  6EFA               	movwf	pclath,c
  3449   001BDA  505B               	movf	_INT0_InterruptHandler^0,w,c
  3450   001BDC  6EFD               	movwf	tosl,c
  3451   001BDE  505C               	movf	(_INT0_InterruptHandler+1)^0,w,c
  3452   001BE0  6EFE               	movwf	tosh,c
  3453   001BE2  50F8               	movf	tblptru,w,c
  3454   001BE4  6EFF               	movwf	tosu,c
  3455   001BE6  50FA               	movf	pclath,w,c
  3456   001BE8  0012               	return		;indir
  3457   001BEA                     i2u151_49:
  3458   001BEA                     i2l375:
  3459   001BEA  0012               	return		;funcret
  3460   001BEC                     __end_of_INT0_ISR:
  3461                           	callstack 0
  3462                           
  3463 ;; *************** function i2_Int1_APP_ISR *****************
  3464 ;; Defined at:
  3465 ;;		line 64 in file "application.c"
  3466 ;; Parameters:    Size  Location     Type
  3467 ;;		None
  3468 ;; Auto vars:     Size  Location     Type
  3469 ;;  i               1    9[COMRAM] unsigned char 
  3470 ;; Return value:  Size  Location     Type
  3471 ;;                  1    wreg      void 
  3472 ;; Registers used:
  3473 ;;		wreg, fsr2l, fsr2h, status,2, status,0, prodl, prodh, cstack
  3474 ;; Tracked objects:
  3475 ;;		On entry : 0/0
  3476 ;;		On exit  : 0/0
  3477 ;;		Unchanged: 0/0
  3478 ;; Data sizes:     COMRAM   BANK0   BANK1   BANK2   BANK3   BANK4   BANK5   BANK6   BANK7   BANK8   BANK9  BANK10  BANK1
      +1  BANK12  BANK13  BANK14  BANK15
  3479 ;;      Params:         0       0       0       0       0       0       0       0       0       0       0       0       
      +0       0       0       0       0
  3480 ;;      Locals:         1       0       0       0       0       0       0       0       0       0       0       0       
      +0       0       0       0       0
  3481 ;;      Temps:          1       0       0       0       0       0       0       0       0       0       0       0       
      +0       0       0       0       0
  3482 ;;      Totals:         2       0       0       0       0       0       0       0       0       0       0       0       
      +0       0       0       0       0
  3483 ;;Total ram usage:        2 bytes
  3484 ;; Hardware stack levels used: 1
  3485 ;; Hardware stack levels required when called: 2
  3486 ;; This function calls:
  3487 ;;		i2_led_turn_toggle
  3488 ;; This function is called by:
  3489 ;;		_INT0_ISR
  3490 ;;		_INT2_ISR
  3491 ;;		_INT1_ISR
  3492 ;; This function uses a non-reentrant model
  3493 ;;
  3494                           
  3495                           	psect	text27
  3496   001BEC                     __ptext27:
  3497                           	callstack 0
  3498   001BEC                     i2_Int1_APP_ISR:
  3499                           	callstack 17
  3500   001BEC                     
  3501                           ;application.c: 65:     for(uint8 i=0;i<100;i++){
  3502   001BEC  0E00               	movlw	0
  3503   001BEE  6E3D               	movwf	i2Int1_APP_ISR@i^0,c
  3504   001BF0                     i2l2159:
  3505                           
  3506                           ;application.c: 66:     led_turn_toggle(&led1);
  3507   001BF0  0E32               	movlw	low _led1
  3508   001BF2  6E39               	movwf	i2led_turn_toggle@led^0,c
  3509   001BF4  EC9F  F00C         	call	i2_led_turn_toggle	;wreg free
  3510   001BF8                     
  3511                           ;application.c: 67:     _delay((unsigned long)((100)*((uint64)3200000/4000.0)));
  3512   001BF8  0E68               	movlw	104
  3513   001BFA  6E3C               	movwf	??i2_Int1_APP_ISR^0,c
  3514   001BFC  0EE4               	movlw	228
  3515   001BFE                     i2u215_47:
  3516   001BFE  2EE8               	decfsz	wreg,f,c
  3517   001C00  D7FE               	bra	i2u215_47
  3518   001C02  2E3C               	decfsz	??i2_Int1_APP_ISR^0,f,c
  3519   001C04  D7FC               	bra	i2u215_47
  3520   001C06  D000               	nop2	
  3521   001C08                     
  3522                           ;application.c: 68:     }
  3523   001C08  2A3D               	incf	i2Int1_APP_ISR@i^0,f,c
  3524   001C0A  0E63               	movlw	99
  3525   001C0C  643D               	cpfsgt	i2Int1_APP_ISR@i^0,c
  3526   001C0E  EF0B  F00E         	goto	i2u148_41
  3527   001C12  EF0D  F00E         	goto	i2u148_40
  3528   001C16                     i2u148_41:
  3529   001C16  EFF8  F00D         	goto	i2l2159
  3530   001C1A                     i2u148_40:
  3531   001C1A  0012               	return		;funcret
  3532   001C1C                     __end_ofi2_Int1_APP_ISR:
  3533                           	callstack 0
  3534                           
  3535 ;; *************** function i2_Int0_APP_ISR *****************
  3536 ;; Defined at:
  3537 ;;		line 58 in file "application.c"
  3538 ;; Parameters:    Size  Location     Type
  3539 ;;		None
  3540 ;; Auto vars:     Size  Location     Type
  3541 ;;  i               1    9[COMRAM] unsigned char 
  3542 ;; Return value:  Size  Location     Type
  3543 ;;                  1    wreg      void 
  3544 ;; Registers used:
  3545 ;;		wreg, fsr2l, fsr2h, status,2, status,0, prodl, prodh, cstack
  3546 ;; Tracked objects:
  3547 ;;		On entry : 0/0
  3548 ;;		On exit  : 0/0
  3549 ;;		Unchanged: 0/0
  3550 ;; Data sizes:     COMRAM   BANK0   BANK1   BANK2   BANK3   BANK4   BANK5   BANK6   BANK7   BANK8   BANK9  BANK10  BANK1
      +1  BANK12  BANK13  BANK14  BANK15
  3551 ;;      Params:         0       0       0       0       0       0       0       0       0       0       0       0       
      +0       0       0       0       0
  3552 ;;      Locals:         1       0       0       0       0       0       0       0       0       0       0       0       
      +0       0       0       0       0
  3553 ;;      Temps:          1       0       0       0       0       0       0       0       0       0       0       0       
      +0       0       0       0       0
  3554 ;;      Totals:         2       0       0       0       0       0       0       0       0       0       0       0       
      +0       0       0       0       0
  3555 ;;Total ram usage:        2 bytes
  3556 ;; Hardware stack levels used: 1
  3557 ;; Hardware stack levels required when called: 2
  3558 ;; This function calls:
  3559 ;;		i2_led_turn_toggle
  3560 ;; This function is called by:
  3561 ;;		_INT0_ISR
  3562 ;;		_INT2_ISR
  3563 ;;		_INT1_ISR
  3564 ;; This function uses a non-reentrant model
  3565 ;;
  3566                           
  3567                           	psect	text28
  3568   001C1C                     __ptext28:
  3569                           	callstack 0
  3570   001C1C                     i2_Int0_APP_ISR:
  3571                           	callstack 17
  3572   001C1C                     
  3573                           ;application.c: 59:     for(uint8 i=0;i<100;i++){
  3574   001C1C  0E00               	movlw	0
  3575   001C1E  6E3D               	movwf	i2Int0_APP_ISR@i^0,c
  3576   001C20                     i2l2145:
  3577                           
  3578                           ;application.c: 60:     led_turn_toggle(&led0);
  3579   001C20  0E33               	movlw	low _led0
  3580   001C22  6E39               	movwf	i2led_turn_toggle@led^0,c
  3581   001C24  EC9F  F00C         	call	i2_led_turn_toggle	;wreg free
  3582   001C28                     
  3583                           ;application.c: 61:     _delay((unsigned long)((100)*((uint64)3200000/4000.0)));
  3584   001C28  0E68               	movlw	104
  3585   001C2A  6E3C               	movwf	??i2_Int0_APP_ISR^0,c
  3586   001C2C  0EE4               	movlw	228
  3587   001C2E                     i2u216_47:
  3588   001C2E  2EE8               	decfsz	wreg,f,c
  3589   001C30  D7FE               	bra	i2u216_47
  3590   001C32  2E3C               	decfsz	??i2_Int0_APP_ISR^0,f,c
  3591   001C34  D7FC               	bra	i2u216_47
  3592   001C36  D000               	nop2	
  3593   001C38                     
  3594                           ;application.c: 62:     }
  3595   001C38  2A3D               	incf	i2Int0_APP_ISR@i^0,f,c
  3596   001C3A  0E63               	movlw	99
  3597   001C3C  643D               	cpfsgt	i2Int0_APP_ISR@i^0,c
  3598   001C3E  EF23  F00E         	goto	i2u147_41
  3599   001C42  EF25  F00E         	goto	i2u147_40
  3600   001C46                     i2u147_41:
  3601   001C46  EF10  F00E         	goto	i2l2145
  3602   001C4A                     i2u147_40:
  3603   001C4A  0012               	return		;funcret
  3604   001C4C                     __end_ofi2_Int0_APP_ISR:
  3605                           	callstack 0
  3606                           
  3607 ;; *************** function i2_Int2_APP_ISR *****************
  3608 ;; Defined at:
  3609 ;;		line 70 in file "application.c"
  3610 ;; Parameters:    Size  Location     Type
  3611 ;;		None
  3612 ;; Auto vars:     Size  Location     Type
  3613 ;;  i               1    9[COMRAM] unsigned char 
  3614 ;; Return value:  Size  Location     Type
  3615 ;;                  1    wreg      void 
  3616 ;; Registers used:
  3617 ;;		wreg, fsr2l, fsr2h, status,2, status,0, prodl, prodh, cstack
  3618 ;; Tracked objects:
  3619 ;;		On entry : 0/0
  3620 ;;		On exit  : 0/0
  3621 ;;		Unchanged: 0/0
  3622 ;; Data sizes:     COMRAM   BANK0   BANK1   BANK2   BANK3   BANK4   BANK5   BANK6   BANK7   BANK8   BANK9  BANK10  BANK1
      +1  BANK12  BANK13  BANK14  BANK15
  3623 ;;      Params:         0       0       0       0       0       0       0       0       0       0       0       0       
      +0       0       0       0       0
  3624 ;;      Locals:         1       0       0       0       0       0       0       0       0       0       0       0       
      +0       0       0       0       0
  3625 ;;      Temps:          1       0       0       0       0       0       0       0       0       0       0       0       
      +0       0       0       0       0
  3626 ;;      Totals:         2       0       0       0       0       0       0       0       0       0       0       0       
      +0       0       0       0       0
  3627 ;;Total ram usage:        2 bytes
  3628 ;; Hardware stack levels used: 1
  3629 ;; Hardware stack levels required when called: 2
  3630 ;; This function calls:
  3631 ;;		i2_led_turn_toggle
  3632 ;; This function is called by:
  3633 ;;		_INT0_ISR
  3634 ;;		_INT2_ISR
  3635 ;;		_INT1_ISR
  3636 ;; This function uses a non-reentrant model
  3637 ;;
  3638                           
  3639                           	psect	text29
  3640   001C4C                     __ptext29:
  3641                           	callstack 0
  3642   001C4C                     i2_Int2_APP_ISR:
  3643                           	callstack 17
  3644   001C4C                     
  3645                           ;application.c: 71:     for(uint8 i=0;i<100;i++){
  3646   001C4C  0E00               	movlw	0
  3647   001C4E  6E3D               	movwf	i2Int2_APP_ISR@i^0,c
  3648   001C50                     i2l2173:
  3649                           
  3650                           ;application.c: 72:     led_turn_toggle(&led2);
  3651   001C50  0E31               	movlw	low _led2
  3652   001C52  6E39               	movwf	i2led_turn_toggle@led^0,c
  3653   001C54  EC9F  F00C         	call	i2_led_turn_toggle	;wreg free
  3654   001C58                     
  3655                           ;application.c: 73:     _delay((unsigned long)((100)*((uint64)3200000/4000.0)));
  3656   001C58  0E68               	movlw	104
  3657   001C5A  6E3C               	movwf	??i2_Int2_APP_ISR^0,c
  3658   001C5C  0EE4               	movlw	228
  3659   001C5E                     i2u217_47:
  3660   001C5E  2EE8               	decfsz	wreg,f,c
  3661   001C60  D7FE               	bra	i2u217_47
  3662   001C62  2E3C               	decfsz	??i2_Int2_APP_ISR^0,f,c
  3663   001C64  D7FC               	bra	i2u217_47
  3664   001C66  D000               	nop2	
  3665   001C68                     
  3666                           ;application.c: 74:     }
  3667   001C68  2A3D               	incf	i2Int2_APP_ISR@i^0,f,c
  3668   001C6A  0E63               	movlw	99
  3669   001C6C  643D               	cpfsgt	i2Int2_APP_ISR@i^0,c
  3670   001C6E  EF3B  F00E         	goto	i2u149_41
  3671   001C72  EF3D  F00E         	goto	i2u149_40
  3672   001C76                     i2u149_41:
  3673   001C76  EF28  F00E         	goto	i2l2173
  3674   001C7A                     i2u149_40:
  3675   001C7A  0012               	return		;funcret
  3676   001C7C                     __end_ofi2_Int2_APP_ISR:
  3677                           	callstack 0
  3678                           
  3679 ;; *************** function i2_led_turn_toggle *****************
  3680 ;; Defined at:
  3681 ;;		line 83 in file "ECU_Layer/led/led.c"
  3682 ;; Parameters:    Size  Location     Type
  3683 ;;  led             1    5[COMRAM] PTR const struct .
  3684 ;;		 -> led2(1), led1(1), led0(1), 
  3685 ;; Auto vars:     Size  Location     Type
  3686 ;;  pin_obj         1    7[COMRAM] struct .
  3687 ;;  ret             1    0        unsigned char 
  3688 ;; Return value:  Size  Location     Type
  3689 ;;                  1    wreg      unsigned char 
  3690 ;; Registers used:
  3691 ;;		wreg, fsr2l, fsr2h, status,2, status,0, prodl, prodh, cstack
  3692 ;; Tracked objects:
  3693 ;;		On entry : 0/0
  3694 ;;		On exit  : 0/0
  3695 ;;		Unchanged: 0/0
  3696 ;; Data sizes:     COMRAM   BANK0   BANK1   BANK2   BANK3   BANK4   BANK5   BANK6   BANK7   BANK8   BANK9  BANK10  BANK1
      +1  BANK12  BANK13  BANK14  BANK15
  3697 ;;      Params:         1       0       0       0       0       0       0       0       0       0       0       0       
      +0       0       0       0       0
  3698 ;;      Locals:         1       0       0       0       0       0       0       0       0       0       0       0       
      +0       0       0       0       0
  3699 ;;      Temps:          1       0       0       0       0       0       0       0       0       0       0       0       
      +0       0       0       0       0
  3700 ;;      Totals:         3       0       0       0       0       0       0       0       0       0       0       0       
      +0       0       0       0       0
  3701 ;;Total ram usage:        3 bytes
  3702 ;; Hardware stack levels used: 1
  3703 ;; Hardware stack levels required when called: 1
  3704 ;; This function calls:
  3705 ;;		i2_gpio_pin_toggle_logic
  3706 ;; This function is called by:
  3707 ;;		i2_Int0_APP_ISR
  3708 ;;		i2_Int1_APP_ISR
  3709 ;;		i2_Int2_APP_ISR
  3710 ;; This function uses a non-reentrant model
  3711 ;;
  3712                           
  3713                           	psect	text30
  3714   00193E                     __ptext30:
  3715                           	callstack 0
  3716   00193E                     i2_led_turn_toggle:
  3717                           	callstack 17
  3718   00193E                     
  3719                           ;ECU_Layer/led/led.c: 85:     if(((void*)0) == led){
  3720   00193E  5039               	movf	i2led_turn_toggle@led^0,w,c
  3721   001940  A4D8               	btfss	status,2,c
  3722   001942  EFA5  F00C         	goto	i2u139_41
  3723   001946  EFA7  F00C         	goto	i2u139_40
  3724   00194A                     i2u139_41:
  3725   00194A  EFA9  F00C         	goto	i2l30
  3726   00194E                     i2u139_40:
  3727   00194E                     
  3728                           ;ECU_Layer/led/led.c: 87:     }else{
  3729   00194E  EFD1  F00C         	goto	i2l34
  3730   001952                     i2l30:
  3731                           
  3732                           ;ECU_Layer/led/led.c: 88:         pin_config_t pin_obj ={
  3733   001952  C05D  F03B         	movff	led_turn_toggle@F3077,i2led_turn_toggle@pin_obj
  3734   001956  5039               	movf	i2led_turn_toggle@led^0,w,c
  3735   001958  6ED9               	movwf	fsr2l,c
  3736   00195A  6ADA               	clrf	fsr2h,c
  3737   00195C  50DF               	movf	223,w,c
  3738   00195E  0B0F               	andlw	15
  3739   001960  6E3A               	movwf	??i2_led_turn_toggle^0,c
  3740   001962  503B               	movf	i2led_turn_toggle@pin_obj^0,w,c
  3741   001964  183A               	xorwf	??i2_led_turn_toggle^0,w,c
  3742   001966  0BF8               	andlw	-8
  3743   001968  183A               	xorwf	??i2_led_turn_toggle^0,w,c
  3744   00196A  6E3B               	movwf	i2led_turn_toggle@pin_obj^0,c
  3745   00196C  5039               	movf	i2led_turn_toggle@led^0,w,c
  3746   00196E  6ED9               	movwf	fsr2l,c
  3747   001970  6ADA               	clrf	fsr2h,c
  3748   001972  38DF               	swapf	223,w,c
  3749   001974  0B07               	andlw	7
  3750   001976  6E3A               	movwf	??i2_led_turn_toggle^0,c
  3751   001978  463A               	rlncf	??i2_led_turn_toggle^0,f,c
  3752   00197A  463A               	rlncf	??i2_led_turn_toggle^0,f,c
  3753   00197C  463A               	rlncf	??i2_led_turn_toggle^0,f,c
  3754   00197E  503B               	movf	i2led_turn_toggle@pin_obj^0,w,c
  3755   001980  183A               	xorwf	??i2_led_turn_toggle^0,w,c
  3756   001982  0BC7               	andlw	-57
  3757   001984  183A               	xorwf	??i2_led_turn_toggle^0,w,c
  3758   001986  6E3B               	movwf	i2led_turn_toggle@pin_obj^0,c
  3759   001988  9C3B               	bcf	i2led_turn_toggle@pin_obj^0,6,c
  3760   00198A  5039               	movf	i2led_turn_toggle@led^0,w,c
  3761   00198C  6ED9               	movwf	fsr2l,c
  3762   00198E  6ADA               	clrf	fsr2h,c
  3763   001990  AEDF               	btfss	indf2,7,c
  3764   001992  D002               	bra	i2u140_45
  3765   001994  8E3B               	bsf	i2led_turn_toggle@pin_obj^0,7,c
  3766   001996  D001               	bra	i2u140_47
  3767   001998                     i2u140_45:
  3768   001998  9E3B               	bcf	i2led_turn_toggle@pin_obj^0,7,c
  3769   00199A                     i2u140_47:
  3770   00199A                     
  3771                           ;ECU_Layer/led/led.c: 94:       gpio_pin_toggle_logic(&pin_obj);
  3772   00199A  0E3B               	movlw	low i2led_turn_toggle@pin_obj
  3773   00199C  6E34               	movwf	i2gpio_pin_toggle_logic@_pin_config^0,c
  3774   00199E  EC14  F00B         	call	i2_gpio_pin_toggle_logic	;wreg free
  3775   0019A2                     i2l34:
  3776   0019A2  0012               	return		;funcret
  3777   0019A4                     __end_ofi2_led_turn_toggle:
  3778                           	callstack 0
  3779                           
  3780 ;; *************** function i2_gpio_pin_toggle_logic *****************
  3781 ;; Defined at:
  3782 ;;		line 115 in file "MCAL_Layer/GPIO/hal_gpio.c"
  3783 ;; Parameters:    Size  Location     Type
  3784 ;;  _pin_config     1    0[COMRAM] PTR const struct .
  3785 ;;		 -> i2led_turn_toggle@pin_obj(1), led_turn_toggle@pin_obj(1), 
  3786 ;; Auto vars:     Size  Location     Type
  3787 ;;  ret             1    0        unsigned char 
  3788 ;; Return value:  Size  Location     Type
  3789 ;;                  1    wreg      unsigned char 
  3790 ;; Registers used:
  3791 ;;		wreg, fsr2l, fsr2h, status,2, status,0, prodl, prodh
  3792 ;; Tracked objects:
  3793 ;;		On entry : 0/0
  3794 ;;		On exit  : 0/0
  3795 ;;		Unchanged: 0/0
  3796 ;; Data sizes:     COMRAM   BANK0   BANK1   BANK2   BANK3   BANK4   BANK5   BANK6   BANK7   BANK8   BANK9  BANK10  BANK1
      +1  BANK12  BANK13  BANK14  BANK15
  3797 ;;      Params:         1       0       0       0       0       0       0       0       0       0       0       0       
      +0       0       0       0       0
  3798 ;;      Locals:         0       0       0       0       0       0       0       0       0       0       0       0       
      +0       0       0       0       0
  3799 ;;      Temps:          4       0       0       0       0       0       0       0       0       0       0       0       
      +0       0       0       0       0
  3800 ;;      Totals:         5       0       0       0       0       0       0       0       0       0       0       0       
      +0       0       0       0       0
  3801 ;;Total ram usage:        5 bytes
  3802 ;; Hardware stack levels used: 1
  3803 ;; This function calls:
  3804 ;;		Nothing
  3805 ;; This function is called by:
  3806 ;;		i2_led_turn_toggle
  3807 ;; This function uses a non-reentrant model
  3808 ;;
  3809                           
  3810                           	psect	text31
  3811   001628                     __ptext31:
  3812                           	callstack 0
  3813   001628                     i2_gpio_pin_toggle_logic:
  3814                           	callstack 17
  3815   001628                     
  3816                           ;MCAL_Layer/GPIO/hal_gpio.c: 117:     if(((void*)0)==_pin_config || _pin_config->pin >8 
      +                          -1){
  3817   001628  5034               	movf	i2gpio_pin_toggle_logic@_pin_config^0,w,c
  3818   00162A  B4D8               	btfsc	status,2,c
  3819   00162C  EF1A  F00B         	goto	i2u111_41
  3820   001630  EF1C  F00B         	goto	i2u111_40
  3821   001634                     i2u111_41:
  3822   001634  EF2C  F00B         	goto	i2l1857
  3823   001638                     i2u111_40:
  3824   001638  5034               	movf	i2gpio_pin_toggle_logic@_pin_config^0,w,c
  3825   00163A  6ED9               	movwf	fsr2l,c
  3826   00163C  6ADA               	clrf	fsr2h,c
  3827   00163E  30DF               	rrcf	223,w,c
  3828   001640  32E8               	rrcf	wreg,f,c
  3829   001642  32E8               	rrcf	wreg,f,c
  3830   001644  0B07               	andlw	7
  3831   001646  6E35               	movwf	??i2_gpio_pin_toggle_logic^0,c
  3832   001648  0E07               	movlw	7
  3833   00164A  6435               	cpfsgt	??i2_gpio_pin_toggle_logic^0,c
  3834   00164C  EF2A  F00B         	goto	i2u112_41
  3835   001650  EF2C  F00B         	goto	i2u112_40
  3836   001654                     i2u112_41:
  3837   001654  EF2E  F00B         	goto	i2l1859
  3838   001658                     i2u112_40:
  3839   001658                     i2l1857:
  3840                           
  3841                           ;MCAL_Layer/GPIO/hal_gpio.c: 119:     }else{
  3842   001658  EF54  F00B         	goto	i2l151
  3843   00165C                     i2l1859:
  3844                           
  3845                           ;MCAL_Layer/GPIO/hal_gpio.c: 120:         (*port_registers[_pin_config->port] ^= ((uint8
      +                          )1 << _pin_config->pin));
  3846   00165C  5034               	movf	i2gpio_pin_toggle_logic@_pin_config^0,w,c
  3847   00165E  6ED9               	movwf	fsr2l,c
  3848   001660  6ADA               	clrf	fsr2h,c
  3849   001662  30DF               	rrcf	223,w,c
  3850   001664  32E8               	rrcf	wreg,f,c
  3851   001666  32E8               	rrcf	wreg,f,c
  3852   001668  0B07               	andlw	7
  3853   00166A  6E35               	movwf	??i2_gpio_pin_toggle_logic^0,c
  3854   00166C  0E01               	movlw	1
  3855   00166E  6E36               	movwf	(??i2_gpio_pin_toggle_logic+1)^0,c
  3856   001670  2A35               	incf	??i2_gpio_pin_toggle_logic^0,f,c
  3857   001672  EF3D  F00B         	goto	i2u113_44
  3858   001676                     i2u113_45:
  3859   001676  90D8               	bcf	status,0,c
  3860   001678  3636               	rlcf	(??i2_gpio_pin_toggle_logic+1)^0,f,c
  3861   00167A                     i2u113_44:
  3862   00167A  2E35               	decfsz	??i2_gpio_pin_toggle_logic^0,f,c
  3863   00167C  EF3B  F00B         	goto	i2u113_45
  3864   001680  5034               	movf	i2gpio_pin_toggle_logic@_pin_config^0,w,c
  3865   001682  6ED9               	movwf	fsr2l,c
  3866   001684  6ADA               	clrf	fsr2h,c
  3867   001686  50DF               	movf	223,w,c
  3868   001688  0B07               	andlw	7
  3869   00168A  0D02               	mullw	2
  3870   00168C  50F3               	movf	243,w,c
  3871   00168E  0F01               	addlw	low _port_registers
  3872   001690  6ED9               	movwf	fsr2l,c
  3873   001692  6ADA               	clrf	fsr2h,c
  3874   001694  CFDE F037          	movff	postinc2,??i2_gpio_pin_toggle_logic+2
  3875   001698  CFDD F038          	movff	postdec2,??i2_gpio_pin_toggle_logic+3
  3876   00169C  C037  FFD9         	movff	??i2_gpio_pin_toggle_logic+2,fsr2l
  3877   0016A0  C038  FFDA         	movff	??i2_gpio_pin_toggle_logic+3,fsr2h
  3878   0016A4  5036               	movf	(??i2_gpio_pin_toggle_logic+1)^0,w,c
  3879   0016A6  1ADF               	xorwf	indf2,f,c
  3880   0016A8                     i2l151:
  3881   0016A8  0012               	return		;funcret
  3882   0016AA                     __end_ofi2_gpio_pin_toggle_logic:
  3883                           	callstack 0
  3884                           
  3885                           	psect	smallconst
  3886   001000                     __psmallconst:
  3887                           	callstack 0
  3888   001000  00                 	db	0
  3889   001001  00                 	db	0	; dummy byte at the end
  3890   000000                     
  3891                           	psect	rparam
  3892   000000                     
  3893                           	psect	temp
  3894   000061                     btemp:
  3895                           	callstack 0
  3896   000061                     	ds	1
  3897   000000                     int$flags	set	btemp
  3898   000000                     wtemp8	set	btemp+1
  3899   000000                     ttemp5	set	btemp+1
  3900   000000                     ttemp6	set	btemp+4
  3901   000000                     ttemp7	set	btemp+8
  3902                           
  3903                           	psect	config
  3904                           
  3905                           ; Padding undefined space
  3906   300000                     	org	3145728
  3907   300000  FF                 	db	255
  3908                           
  3909                           ;Config register CONFIG1H @ 0x300001
  3910                           ;	Oscillator Selection bits
  3911                           ;	OSC = HS, HS oscillator
  3912                           ;	Fail-Safe Clock Monitor Enable bit
  3913                           ;	FCMEN = OFF, Fail-Safe Clock Monitor disabled
  3914                           ;	Internal/External Oscillator Switchover bit
  3915                           ;	IESO = OFF, Oscillator Switchover mode disabled
  3916   300001                     	org	3145729
  3917   300001  02                 	db	2
  3918                           
  3919                           ;Config register CONFIG2L @ 0x300002
  3920                           ;	Power-up Timer Enable bit
  3921                           ;	PWRT = OFF, PWRT disabled
  3922                           ;	Brown-out Reset Enable bits
  3923                           ;	BOREN = OFF, Brown-out Reset disabled in hardware and software
  3924                           ;	Brown Out Reset Voltage bits
  3925                           ;	BORV = 1, 
  3926   300002                     	org	3145730
  3927   300002  09                 	db	9
  3928                           
  3929                           ;Config register CONFIG2H @ 0x300003
  3930                           ;	Watchdog Timer Enable bit
  3931                           ;	WDT = OFF, WDT disabled (control is placed on the SWDTEN bit)
  3932                           ;	Watchdog Timer Postscale Select bits
  3933                           ;	WDTPS = 32768, 1:32768
  3934   300003                     	org	3145731
  3935   300003  1E                 	db	30
  3936                           
  3937                           ; Padding undefined space
  3938   300004                     	org	3145732
  3939   300004  FF                 	db	255
  3940                           
  3941                           ;Config register CONFIG3H @ 0x300005
  3942                           ;	CCP2 MUX bit
  3943                           ;	CCP2MX = PORTC, CCP2 input/output is multiplexed with RC1
  3944                           ;	PORTB A/D Enable bit
  3945                           ;	PBADEN = OFF, PORTB<4:0> pins are configured as digital I/O on Reset
  3946                           ;	Low-Power Timer1 Oscillator Enable bit
  3947                           ;	LPT1OSC = OFF, Timer1 configured for higher power operation
  3948                           ;	MCLR Pin Enable bit
  3949                           ;	MCLRE = ON, MCLR pin enabled; RE3 input pin disabled
  3950   300005                     	org	3145733
  3951   300005  81                 	db	129
  3952                           
  3953                           ;Config register CONFIG4L @ 0x300006
  3954                           ;	Stack Full/Underflow Reset Enable bit
  3955                           ;	STVREN = ON, Stack full/underflow will cause Reset
  3956                           ;	Single-Supply ICSP Enable bit
  3957                           ;	LVP = OFF, Single-Supply ICSP disabled
  3958                           ;	Extended Instruction Set Enable bit
  3959                           ;	XINST = OFF, Instruction set extension and Indexed Addressing mode disabled (Legacy mo
      +                          de)
  3960                           ;	Background Debugger Enable bit
  3961                           ;	DEBUG = 0x1, unprogrammed default
  3962   300006                     	org	3145734
  3963   300006  81                 	db	129
  3964                           
  3965                           ; Padding undefined space
  3966   300007                     	org	3145735
  3967   300007  FF                 	db	255
  3968                           
  3969                           ;Config register CONFIG5L @ 0x300008
  3970                           ;	Code Protection bit
  3971                           ;	CP0 = OFF, Block 0 (000800-003FFFh) not code-protected
  3972                           ;	Code Protection bit
  3973                           ;	CP1 = OFF, Block 1 (004000-007FFFh) not code-protected
  3974                           ;	Code Protection bit
  3975                           ;	CP2 = OFF, Block 2 (008000-00BFFFh) not code-protected
  3976                           ;	Code Protection bit
  3977                           ;	CP3 = OFF, Block 3 (00C000-00FFFFh) not code-protected
  3978   300008                     	org	3145736
  3979   300008  0F                 	db	15
  3980                           
  3981                           ;Config register CONFIG5H @ 0x300009
  3982                           ;	Boot Block Code Protection bit
  3983                           ;	CPB = OFF, Boot block (000000-0007FFh) not code-protected
  3984                           ;	Data EEPROM Code Protection bit
  3985                           ;	CPD = OFF, Data EEPROM not code-protected
  3986   300009                     	org	3145737
  3987   300009  C0                 	db	192
  3988                           
  3989                           ;Config register CONFIG6L @ 0x30000A
  3990                           ;	Write Protection bit
  3991                           ;	WRT0 = OFF, Block 0 (000800-003FFFh) not write-protected
  3992                           ;	Write Protection bit
  3993                           ;	WRT1 = OFF, Block 1 (004000-007FFFh) not write-protected
  3994                           ;	Write Protection bit
  3995                           ;	WRT2 = OFF, Block 2 (008000-00BFFFh) not write-protected
  3996                           ;	Write Protection bit
  3997                           ;	WRT3 = OFF, Block 3 (00C000-00FFFFh) not write-protected
  3998   30000A                     	org	3145738
  3999   30000A  0F                 	db	15
  4000                           
  4001                           ;Config register CONFIG6H @ 0x30000B
  4002                           ;	Configuration Register Write Protection bit
  4003                           ;	WRTC = OFF, Configuration registers (300000-3000FFh) not write-protected
  4004                           ;	Boot Block Write Protection bit
  4005                           ;	WRTB = OFF, Boot Block (000000-0007FFh) not write-protected
  4006                           ;	Data EEPROM Write Protection bit
  4007                           ;	WRTD = OFF, Data EEPROM not write-protected
  4008   30000B                     	org	3145739
  4009   30000B  E0                 	db	224
  4010                           
  4011                           ;Config register CONFIG7L @ 0x30000C
  4012                           ;	Table Read Protection bit
  4013                           ;	EBTR0 = OFF, Block 0 (000800-003FFFh) not protected from table reads executed in other
      +                           blocks
  4014                           ;	Table Read Protection bit
  4015                           ;	EBTR1 = OFF, Block 1 (004000-007FFFh) not protected from table reads executed in other
      +                           blocks
  4016                           ;	Table Read Protection bit
  4017                           ;	EBTR2 = OFF, Block 2 (008000-00BFFFh) not protected from table reads executed in other
      +                           blocks
  4018                           ;	Table Read Protection bit
  4019                           ;	EBTR3 = OFF, Block 3 (00C000-00FFFFh) not protected from table reads executed in other
      +                           blocks
  4020   30000C                     	org	3145740
  4021   30000C  0F                 	db	15
  4022                           
  4023                           ;Config register CONFIG7H @ 0x30000D
  4024                           ;	Boot Block Table Read Protection bit
  4025                           ;	EBTRB = OFF, Boot Block (000000-0007FFh) not protected from table reads executed in ot
      +                          her blocks
  4026   30000D                     	org	3145741
  4027   30000D  40                 	db	64
  4028                           tosu	equ	0xFFF
  4029                           tosh	equ	0xFFE
  4030                           tosl	equ	0xFFD
  4031                           stkptr	equ	0xFFC
  4032                           pclatu	equ	0xFFB
  4033                           pclath	equ	0xFFA
  4034                           pcl	equ	0xFF9
  4035                           tblptru	equ	0xFF8
  4036                           tblptrh	equ	0xFF7
  4037                           tblptrl	equ	0xFF6
  4038                           tablat	equ	0xFF5
  4039                           prodh	equ	0xFF4
  4040                           prodl	equ	0xFF3
  4041                           indf0	equ	0xFEF
  4042                           postinc0	equ	0xFEE
  4043                           postdec0	equ	0xFED
  4044                           preinc0	equ	0xFEC
  4045                           plusw0	equ	0xFEB
  4046                           fsr0h	equ	0xFEA
  4047                           fsr0l	equ	0xFE9
  4048                           wreg	equ	0xFE8
  4049                           indf1	equ	0xFE7
  4050                           postinc1	equ	0xFE6
  4051                           postdec1	equ	0xFE5
  4052                           preinc1	equ	0xFE4
  4053                           plusw1	equ	0xFE3
  4054                           fsr1h	equ	0xFE2
  4055                           fsr1l	equ	0xFE1
  4056                           bsr	equ	0xFE0
  4057                           indf2	equ	0xFDF
  4058                           postinc2	equ	0xFDE
  4059                           postdec2	equ	0xFDD
  4060                           preinc2	equ	0xFDC
  4061                           plusw2	equ	0xFDB
  4062                           fsr2h	equ	0xFDA
  4063                           fsr2l	equ	0xFD9
  4064                           status	equ	0xFD8

Data Sizes:
    Strings     0
    Constant    0
    Data        51
    BSS         10
    Persistent  0
    Stack       0

Auto Spaces:
    Space          Size  Autos    Used
    COMRAM          126     35      96
    BANK0           128     15      15
    BANK1           256      0       0
    BANK2           256      0       0
    BANK3           256      0       0
    BANK4           256      0       0
    BANK5           256      0       0
    BANK6           256      0       0
    BANK7           256      0       0
    BANK8           256      0       0
    BANK9           256      0       0
    BANK10          256      0       0
    BANK11          256      0       0
    BANK12          256      0       0
    BANK13          256      0       0
    BANK14          256      0       0
    BANK15          128      0       0

Pointer List with Targets:

    gpio_pin_direction_intialize@_pin_config	PTR const struct . size(1) Largest target is 6
		 -> int0_obj(COMRAM[6]), int1_obj(COMRAM[6]), int2_obj(COMRAM[6]), led_intialize@pin_obj(BANK0[1]), 

    gpio_pin_intialize@_pin_config	PTR const struct . size(1) Largest target is 1
		 -> led_intialize@pin_obj(BANK0[1]), 

    gpio_pin_toggle_logic@_pin_config	PTR const struct . size(1) Largest target is 1
		 -> led_turn_toggle@pin_obj(COMRAM[1]), 

    gpio_pin_write_logic@_pin_config	PTR const struct . size(1) Largest target is 1
		 -> led_intialize@pin_obj(BANK0[1]), led_turn_off@pin_obj(COMRAM[1]), led_turn_on@pin_obj(COMRAM[1]), 

    INT0_InterruptHandler	PTR FTN()void  size(2) Largest target is 1
		 -> i2_Int0_APP_ISR(), i2_Int1_APP_ISR(), i2_Int2_APP_ISR(), Int0_APP_ISR(), 
		 -> Int1_APP_ISR(), Int2_APP_ISR(), NULL(), 

    int0_obj$EXT_InterruptHandler	PTR FTN()void  size(2) Largest target is 1
		 -> i2_Int0_APP_ISR(), Int0_APP_ISR(), Int1_APP_ISR(), Int2_APP_ISR(), 

    INT0_SetInterruptHandler@InterruptHandler	PTR FTN()void  size(2) Largest target is 1
		 -> i2_Int0_APP_ISR(), i2_Int1_APP_ISR(), i2_Int2_APP_ISR(), Int0_APP_ISR(), 
		 -> Int1_APP_ISR(), Int2_APP_ISR(), 

    INT1_InterruptHandler	PTR FTN()void  size(2) Largest target is 1
		 -> i2_Int0_APP_ISR(), i2_Int1_APP_ISR(), i2_Int2_APP_ISR(), Int0_APP_ISR(), 
		 -> Int1_APP_ISR(), Int2_APP_ISR(), NULL(), 

    int1_obj$EXT_InterruptHandler	PTR FTN()void  size(2) Largest target is 1
		 -> i2_Int1_APP_ISR(), Int0_APP_ISR(), Int1_APP_ISR(), Int2_APP_ISR(), 

    INT1_SetInterruptHandler@InterruptHandler	PTR FTN()void  size(2) Largest target is 1
		 -> i2_Int0_APP_ISR(), i2_Int1_APP_ISR(), i2_Int2_APP_ISR(), Int0_APP_ISR(), 
		 -> Int1_APP_ISR(), Int2_APP_ISR(), 

    INT2_InterruptHandler	PTR FTN()void  size(2) Largest target is 1
		 -> i2_Int0_APP_ISR(), i2_Int1_APP_ISR(), i2_Int2_APP_ISR(), Int0_APP_ISR(), 
		 -> Int1_APP_ISR(), Int2_APP_ISR(), NULL(), 

    int2_obj$EXT_InterruptHandler	PTR FTN()void  size(2) Largest target is 1
		 -> i2_Int2_APP_ISR(), Int0_APP_ISR(), Int1_APP_ISR(), Int2_APP_ISR(), 

    INT2_SetInterruptHandler@InterruptHandler	PTR FTN()void  size(2) Largest target is 1
		 -> i2_Int0_APP_ISR(), i2_Int1_APP_ISR(), i2_Int2_APP_ISR(), Int0_APP_ISR(), 
		 -> Int1_APP_ISR(), Int2_APP_ISR(), 

    Interrupt_INTx_Clear_Flag@int_obj	PTR const struct . size(1) Largest target is 6
		 -> int0_obj(COMRAM[6]), int1_obj(COMRAM[6]), int2_obj(COMRAM[6]), 

    Interrupt_INTx_Clear_Flag@int_obj$EXT_InterruptHandler	PTR FTN()void  size(2) Largest target is 1
		 -> Int0_APP_ISR(), Int1_APP_ISR(), Int2_APP_ISR(), 

    Interrupt_INTx_DeInit@int_obj$EXT_InterruptHandler	PTR FTN()void  size(2) Largest target is 0
		 -> Int0_APP_ISR(), Int1_APP_ISR(), Int2_APP_ISR(), 

    Interrupt_INTx_Disable@int_obj	PTR const struct . size(1) Largest target is 6
		 -> int0_obj(COMRAM[6]), int1_obj(COMRAM[6]), int2_obj(COMRAM[6]), Interrupt_INTx_DeInit@int_obj(COMRAM[2]), 

    Interrupt_INTx_Disable@int_obj$EXT_InterruptHandler	PTR FTN()void  size(2) Largest target is 1
		 -> Int0_APP_ISR(), Int1_APP_ISR(), Int2_APP_ISR(), 

    Interrupt_INTx_Edge_Init@int_obj	PTR const struct . size(1) Largest target is 6
		 -> int0_obj(COMRAM[6]), int1_obj(COMRAM[6]), int2_obj(COMRAM[6]), 

    Interrupt_INTx_Edge_Init@int_obj$EXT_InterruptHandler	PTR FTN()void  size(2) Largest target is 1
		 -> Int0_APP_ISR(), Int1_APP_ISR(), Int2_APP_ISR(), 

    Interrupt_INTx_Enable@int_obj	PTR const struct . size(1) Largest target is 6
		 -> int0_obj(COMRAM[6]), int1_obj(COMRAM[6]), int2_obj(COMRAM[6]), 

    Interrupt_INTx_Enable@int_obj$EXT_InterruptHandler	PTR FTN()void  size(2) Largest target is 1
		 -> Int0_APP_ISR(), Int1_APP_ISR(), Int2_APP_ISR(), 

    Interrupt_INTx_Init@int_obj	PTR const struct . size(1) Largest target is 6
		 -> int0_obj(COMRAM[6]), int1_obj(COMRAM[6]), int2_obj(COMRAM[6]), 

    Interrupt_INTx_Pin_Init@int_obj	PTR const struct . size(1) Largest target is 6
		 -> int0_obj(COMRAM[6]), int1_obj(COMRAM[6]), int2_obj(COMRAM[6]), 

    Interrupt_INTx_Pin_Init@int_obj$EXT_InterruptHandler	PTR FTN()void  size(2) Largest target is 1
		 -> Int0_APP_ISR(), Int1_APP_ISR(), Int2_APP_ISR(), 

    Interrupt_INTx_Priority_Init@int_obj	PTR const struct . size(1) Largest target is 6
		 -> int0_obj(COMRAM[6]), int1_obj(COMRAM[6]), int2_obj(COMRAM[6]), 

    Interrupt_INTx_Priority_Init@int_obj$EXT_InterruptHandler	PTR FTN()void  size(2) Largest target is 1
		 -> Int0_APP_ISR(), Int1_APP_ISR(), Int2_APP_ISR(), 

    Interrupt_INTx_SetInterruptHandler@int_obj	PTR const struct . size(1) Largest target is 6
		 -> int0_obj(COMRAM[6]), int1_obj(COMRAM[6]), int2_obj(COMRAM[6]), 

    Interrupt_INTx_SetInterruptHandler@int_obj$EXT_InterruptHandler	PTR FTN()void  size(2) Largest target is 1
		 -> Int0_APP_ISR(), Int1_APP_ISR(), Int2_APP_ISR(), 

    lat_registers	PTR volatile unsigned char [5] size(2) Largest target is 1
		 -> LATA(BITBIGSFRll[1]), LATB(BITBIGSFRlh[1]), LATC(BITBIGSFRlh[1]), LATD(BITBIGSFRlh[1]), 
		 -> LATE(BITBIGSFRlh[1]), 

    led_intialize@led	PTR const struct . size(1) Largest target is 1
		 -> led0(COMRAM[1]), led1(COMRAM[1]), led2(COMRAM[1]), 

    led_turn_toggle@led	PTR const struct . size(1) Largest target is 1
		 -> led0(COMRAM[1]), led1(COMRAM[1]), led2(COMRAM[1]), 

    port_registers	PTR volatile unsigned char [5] size(2) Largest target is 1
		 -> PORTA(BITBIGSFRll[1]), PORTB(BITBIGSFRll[1]), PORTC(BITBIGSFRll[1]), PORTD(BITBIGSFRll[1]), 
		 -> PORTE(BITBIGSFRll[1]), 

    S456$EXT_InterruptHandler	PTR FTN()void  size(2) Largest target is 1
		 -> Int0_APP_ISR(), Int1_APP_ISR(), Int2_APP_ISR(), 

    tris_registers	PTR volatile unsigned char [5] size(2) Largest target is 1
		 -> TRISA(BITBIGSFRll[1]), TRISB(BITBIGSFRhlll[1]), TRISC(BITBIGSFRhlll[1]), TRISD(BITBIGSFRhlll[1]), 
		 -> TRISE(BITBIGSFRhlll[1]), 


Critical Paths under _main in COMRAM

    None.

Critical Paths under _InterruptManagerLow in COMRAM

    _INT1_ISR->_Int0_APP_ISR
    _INT1_ISR->_Int1_APP_ISR
    _INT1_ISR->_Int2_APP_ISR
    _Int2_APP_ISR->_led_turn_toggle
    _Int1_APP_ISR->_led_turn_toggle
    _Int0_APP_ISR->_led_turn_toggle
    _led_turn_toggle->_gpio_pin_toggle_logic

Critical Paths under _InterruptManagerHigh in COMRAM

    _INT2_ISR->i2_Int0_APP_ISR
    _INT2_ISR->i2_Int1_APP_ISR
    _INT2_ISR->i2_Int2_APP_ISR
    _INT0_ISR->i2_Int0_APP_ISR
    _INT0_ISR->i2_Int1_APP_ISR
    _INT0_ISR->i2_Int2_APP_ISR
    i2_Int2_APP_ISR->i2_led_turn_toggle
    i2_Int1_APP_ISR->i2_led_turn_toggle
    i2_Int0_APP_ISR->i2_led_turn_toggle
    i2_led_turn_toggle->i2_gpio_pin_toggle_logic

Critical Paths under _main in BANK0

    _application_intialize->_led_intialize
    _led_intialize->_gpio_pin_intialize
    _gpio_pin_intialize->_gpio_pin_write_logic
    _Interrupt_INTx_Init->_Interrupt_INTx_Pin_Init
    _Interrupt_INTx_SetInterruptHandler->_INT0_SetInterruptHandler
    _Interrupt_INTx_SetInterruptHandler->_INT1_SetInterruptHandler
    _Interrupt_INTx_SetInterruptHandler->_INT2_SetInterruptHandler
    _Interrupt_INTx_Pin_Init->_gpio_pin_direction_intialize

Critical Paths under _InterruptManagerLow in BANK0

    None.

Critical Paths under _InterruptManagerHigh in BANK0

    None.

Critical Paths under _main in BANK1

    None.

Critical Paths under _InterruptManagerLow in BANK1

    None.

Critical Paths under _InterruptManagerHigh in BANK1

    None.

Critical Paths under _main in BANK2

    None.

Critical Paths under _InterruptManagerLow in BANK2

    None.

Critical Paths under _InterruptManagerHigh in BANK2

    None.

Critical Paths under _main in BANK3

    None.

Critical Paths under _InterruptManagerLow in BANK3

    None.

Critical Paths under _InterruptManagerHigh in BANK3

    None.

Critical Paths under _main in BANK4

    None.

Critical Paths under _InterruptManagerLow in BANK4

    None.

Critical Paths under _InterruptManagerHigh in BANK4

    None.

Critical Paths under _main in BANK5

    None.

Critical Paths under _InterruptManagerLow in BANK5

    None.

Critical Paths under _InterruptManagerHigh in BANK5

    None.

Critical Paths under _main in BANK6

    None.

Critical Paths under _InterruptManagerLow in BANK6

    None.

Critical Paths under _InterruptManagerHigh in BANK6

    None.

Critical Paths under _main in BANK7

    None.

Critical Paths under _InterruptManagerLow in BANK7

    None.

Critical Paths under _InterruptManagerHigh in BANK7

    None.

Critical Paths under _main in BANK8

    None.

Critical Paths under _InterruptManagerLow in BANK8

    None.

Critical Paths under _InterruptManagerHigh in BANK8

    None.

Critical Paths under _main in BANK9

    None.

Critical Paths under _InterruptManagerLow in BANK9

    None.

Critical Paths under _InterruptManagerHigh in BANK9

    None.

Critical Paths under _main in BANK10

    None.

Critical Paths under _InterruptManagerLow in BANK10

    None.

Critical Paths under _InterruptManagerHigh in BANK10

    None.

Critical Paths under _main in BANK11

    None.

Critical Paths under _InterruptManagerLow in BANK11

    None.

Critical Paths under _InterruptManagerHigh in BANK11

    None.

Critical Paths under _main in BANK12

    None.

Critical Paths under _InterruptManagerLow in BANK12

    None.

Critical Paths under _InterruptManagerHigh in BANK12

    None.

Critical Paths under _main in BANK13

    None.

Critical Paths under _InterruptManagerLow in BANK13

    None.

Critical Paths under _InterruptManagerHigh in BANK13

    None.

Critical Paths under _main in BANK14

    None.

Critical Paths under _InterruptManagerLow in BANK14

    None.

Critical Paths under _InterruptManagerHigh in BANK14

    None.

Critical Paths under _main in BANK15

    None.

Critical Paths under _InterruptManagerLow in BANK15

    None.

Critical Paths under _InterruptManagerHigh in BANK15

    None.

Call Graph Tables:

 ---------------------------------------------------------------------------------
 (Depth) Function   	        Calls       Base Space   Used Autos Params    Refs
 ---------------------------------------------------------------------------------
 (0) _main                                                 1     1      0    5647
              _application_intialize
 ---------------------------------------------------------------------------------
 (1) _application_intialize                                1     1      0    5644
                _Interrupt_INTx_Init
                      _led_intialize
 ---------------------------------------------------------------------------------
 (2) _led_intialize                                        4     3      1    2104
                                             11 BANK0      4     3      1
                 _gpio_pin_intialize
 ---------------------------------------------------------------------------------
 (3) _gpio_pin_intialize                                   3     2      1    1588
                                              8 BANK0      3     2      1
       _gpio_pin_direction_intialize
               _gpio_pin_write_logic
 ---------------------------------------------------------------------------------
 (4) _gpio_pin_write_logic                                 8     6      2     797
                                              0 BANK0      8     6      2
 ---------------------------------------------------------------------------------
 (2) _Interrupt_INTx_Init                                  2     1      1    3519
                                              9 BANK0      2     1      1
          _Interrupt_INTx_Clear_Flag
             _Interrupt_INTx_Disable
           _Interrupt_INTx_Edge_Init
              _Interrupt_INTx_Enable
            _Interrupt_INTx_Pin_Init
       _Interrupt_INTx_Priority_Init
 _Interrupt_INTx_SetInterruptHandler
 ---------------------------------------------------------------------------------
 (3) _Interrupt_INTx_SetInterruptHandler                   4     3      1     749
                                              2 BANK0      3     2      1
           _INT0_SetInterruptHandler
           _INT1_SetInterruptHandler
           _INT2_SetInterruptHandler
 ---------------------------------------------------------------------------------
 (4) _INT2_SetInterruptHandler                             3     1      2     165
                                              0 BANK0      2     0      2
 ---------------------------------------------------------------------------------
 (4) _INT1_SetInterruptHandler                             3     1      2     165
                                              0 BANK0      2     0      2
 ---------------------------------------------------------------------------------
 (4) _INT0_SetInterruptHandler                             3     1      2     165
                                              0 BANK0      2     0      2
 ---------------------------------------------------------------------------------
 (3) _Interrupt_INTx_Priority_Init                         4     3      1     313
                                              0 BANK0      3     2      1
 ---------------------------------------------------------------------------------
 (3) _Interrupt_INTx_Pin_Init                              2     1      1     719
                                              7 BANK0      2     1      1
       _gpio_pin_direction_intialize
 ---------------------------------------------------------------------------------
 (4) _gpio_pin_direction_intialize                         7     6      1     527
                                              0 BANK0      7     6      1
 ---------------------------------------------------------------------------------
 (3) _Interrupt_INTx_Enable                                4     3      1     316
                                              0 BANK0      4     3      1
 ---------------------------------------------------------------------------------
 (3) _Interrupt_INTx_Edge_Init                             4     3      1     375
                                              0 BANK0      4     3      1
 ---------------------------------------------------------------------------------
 (3) _Interrupt_INTx_Disable                               4     3      1     279
                                              0 BANK0      3     2      1
 ---------------------------------------------------------------------------------
 (3) _Interrupt_INTx_Clear_Flag                            4     3      1     192
                                              0 BANK0      4     3      1
 ---------------------------------------------------------------------------------
 Estimated maximum stack depth 4
 ---------------------------------------------------------------------------------
 (Depth) Function   	        Calls       Base Space   Used Autos Params    Refs
 ---------------------------------------------------------------------------------
 (5) _InterruptManagerLow                                  9     9      0    1725
                                             26 COMRAM     9     9      0
                           _INT1_ISR
 ---------------------------------------------------------------------------------
 (6) _INT1_ISR                                             0     0      0    1725
                                NULL *
                       _Int0_APP_ISR *
                       _Int1_APP_ISR *
                       _Int2_APP_ISR *
 ---------------------------------------------------------------------------------
 (7) _Int2_APP_ISR                                         2     2      0     575
                                             24 COMRAM     2     2      0
                    _led_turn_toggle
 ---------------------------------------------------------------------------------
 (7) _Int1_APP_ISR                                         2     2      0     575
                                             24 COMRAM     2     2      0
                    _led_turn_toggle
 ---------------------------------------------------------------------------------
 (7) _Int0_APP_ISR                                         2     2      0     575
                                             24 COMRAM     2     2      0
                    _led_turn_toggle
 ---------------------------------------------------------------------------------
 (8) _led_turn_toggle                                      4     3      1     529
                                             21 COMRAM     3     2      1
              _gpio_pin_toggle_logic
 ---------------------------------------------------------------------------------
 (9) _gpio_pin_toggle_logic                                6     5      1     172
                                             16 COMRAM     5     4      1
 ---------------------------------------------------------------------------------
 (12) NULL(Fake)                                           0     0      0       0
 ---------------------------------------------------------------------------------
 Estimated maximum stack depth 12
 ---------------------------------------------------------------------------------
 (Depth) Function   	        Calls       Base Space   Used Autos Params    Refs
 ---------------------------------------------------------------------------------
 (10) _InterruptManagerHigh                                6     6      0    2232
                                             10 COMRAM     6     6      0
                           _INT0_ISR
                           _INT2_ISR
 ---------------------------------------------------------------------------------
 (11) _INT2_ISR                                            0     0      0    1116
                                NULL *
                     i2_Int0_APP_ISR *
                     i2_Int1_APP_ISR *
                     i2_Int2_APP_ISR *
 ---------------------------------------------------------------------------------
 (11) _INT0_ISR                                            0     0      0    1116
                                NULL *
                     i2_Int0_APP_ISR *
                     i2_Int1_APP_ISR *
                     i2_Int2_APP_ISR *
 ---------------------------------------------------------------------------------
 (12) i2_Int2_APP_ISR                                      2     2      0     372
                                              8 COMRAM     2     2      0
                  i2_led_turn_toggle
 ---------------------------------------------------------------------------------
 (12) i2_Int1_APP_ISR                                      2     2      0     372
                                              8 COMRAM     2     2      0
                  i2_led_turn_toggle
 ---------------------------------------------------------------------------------
 (12) i2_Int0_APP_ISR                                      2     2      0     372
                                              8 COMRAM     2     2      0
                  i2_led_turn_toggle
 ---------------------------------------------------------------------------------
 (13) i2_led_turn_toggle                                   4     3      1     326
                                              5 COMRAM     3     2      1
            i2_gpio_pin_toggle_logic
 ---------------------------------------------------------------------------------
 (14) i2_gpio_pin_toggle_logic                             6     5      1     122
                                              0 COMRAM     5     4      1
 ---------------------------------------------------------------------------------
 (12) NULL(Fake)                                           0     0      0       0
 ---------------------------------------------------------------------------------
 Estimated maximum stack depth 14
 ---------------------------------------------------------------------------------

 Call Graph Graphs:

 _main (ROOT)
   _application_intialize
     _Interrupt_INTx_Init
       _Interrupt_INTx_Clear_Flag
       _Interrupt_INTx_Disable
       _Interrupt_INTx_Edge_Init
       _Interrupt_INTx_Enable
       _Interrupt_INTx_Pin_Init
         _gpio_pin_direction_intialize
       _Interrupt_INTx_Priority_Init
       _Interrupt_INTx_SetInterruptHandler
         _INT0_SetInterruptHandler
         _INT1_SetInterruptHandler
         _INT2_SetInterruptHandler
     _led_intialize
       _gpio_pin_intialize
         _gpio_pin_direction_intialize
         _gpio_pin_write_logic

 _InterruptManagerLow (ROOT)
   _INT1_ISR
     NULL(Fake) *
     _Int0_APP_ISR *
       _led_turn_toggle
         _gpio_pin_toggle_logic
     _Int1_APP_ISR *
       _led_turn_toggle
     _Int2_APP_ISR *
       _led_turn_toggle

 _InterruptManagerHigh (ROOT)
   _INT0_ISR
     NULL(Fake) *
     i2_Int0_APP_ISR *
       i2_led_turn_toggle
         i2_gpio_pin_toggle_logic
     i2_Int1_APP_ISR *
       i2_led_turn_toggle
     i2_Int2_APP_ISR *
       i2_led_turn_toggle
   _INT2_ISR
     NULL(Fake) *
     i2_Int0_APP_ISR *
     i2_Int1_APP_ISR *
     i2_Int2_APP_ISR *

 Address spaces:
Name               Size   Autos  Total    Cost      Usage
BIGRAM             F7F      0       0      42        0.0%
EEDATA             400      0       0       0        0.0%
BITBANK14          100      0       0      32        0.0%
BANK14             100      0       0      33        0.0%
BITBANK13          100      0       0      30        0.0%
BANK13             100      0       0      31        0.0%
BITBANK12          100      0       0      28        0.0%
BANK12             100      0       0      29        0.0%
BITBANK11          100      0       0      26        0.0%
BANK11             100      0       0      27        0.0%
BITBANK10          100      0       0      24        0.0%
BANK10             100      0       0      25        0.0%
BITBANK9           100      0       0      22        0.0%
BANK9              100      0       0      23        0.0%
BITBANK8           100      0       0      20        0.0%
BANK8              100      0       0      21        0.0%
BITBANK7           100      0       0      18        0.0%
BANK7              100      0       0      19        0.0%
BITBANK6           100      0       0      16        0.0%
BANK6              100      0       0      17        0.0%
BITBANK5           100      0       0      14        0.0%
BANK5              100      0       0      15        0.0%
BITBANK4           100      0       0      12        0.0%
BANK4              100      0       0      13        0.0%
BITBANK3           100      0       0      10        0.0%
BANK3              100      0       0      11        0.0%
BITBANK2           100      0       0       8        0.0%
BANK2              100      0       0       9        0.0%
BITBANK1           100      0       0       6        0.0%
BANK1              100      0       0       7        0.0%
BITBANK15           80      0       0      34        0.0%
BANK15              80      0       0      35        0.0%
BITBANK0            80      0       0       4        0.0%
BANK0               80      F       F       5       11.7%
BITCOMRAM           7E      0       0       0        0.0%
COMRAM              7E     23      60       1       76.2%
BITBIGSFRhlll       39      0       0      38        0.0%
BITBIGSFRhllh       1F      0       0      37        0.0%
BITBIGSFRhh          D      0       0      36        0.0%
BITBIGSFRlh          4      0       0      39        0.0%
BITBIGSFRll          4      0       0      40        0.0%
BIGSFR               0      0       0     200        0.0%
BITSFR               0      0       0     200        0.0%
SFR                  0      0       0     200        0.0%
STACK                0      0       0       2        0.0%
NULL                 0      0       0       0        0.0%
ABS                  0      0      6F      41        0.0%
DATA                 0      0      6F       3        0.0%
CODE                 0      0       0       0        0.0%


Microchip Technology PIC18 Macro Assembler V2.46 build 20240104201356 
Symbol Table                                                                                   Fri Nov 08 20:12:22 2024

                             _led_intialize 16AA                                           l9 16C8  
                                        l13 171E                                          bsr 0FE0  
                     ??_InterruptManagerLow 004E                           ??_led_turn_toggle 004A  
                                       l118 1236                                         l137 134C  
                                       l307 150E                                         l340 17B4  
                                       l342 17BA                                         l318 111C  
                                       l334 1CA6                                         l350 1D0C  
                                       l158 1A00                                         l422 1A3E  
                                       l343 17C0                                         l271 1376  
                                       l280 143C                                         l360 1CC8  
                                       l248 186E                                         l416 1D12  
                                       l345 1804                                         l329 111E  
                                       l273 13B4                                         l417 1D12  
                                       l290 18D6                                         l275 13BA  
                                       l355 1CEA                                         l371 15A4  
                                       l277 13F8                                         l269 136C  
                                       l286 1886                                         l288 188C  
                                       l289 1892                                         l298 1494  
                ??_INT0_SetInterruptHandler 0082                      ??_InterruptManagerHigh 003E  
                                       tosl 0FFD                                         wreg 0FE8  
                                      l2401 18D4                                        l2321 12C8  
                                      l2313 1238                                        l2411 1796  
                                      l2315 124E                                        l2413 17AC  
                                      l2341 115E                                        l2501 1C7C  
                                      l2325 1320                                        l2317 126E  
                                      l2431 1018                                        l2343 11B6  
                                      l2335 1120                                        l2503 1C8E  
                                      l2511 1510                                        l2319 1276  
                                      l2327 134A                                        l2417 17C6  
                                      l2441 1060                                        l2433 1020  
                                      l2337 1136                                        l2505 1C96  
                                      l2353 1CEC                                        l2513 1522  
                                      l2601 1A0C                                        l2419 1802  
                                      l2451 10BA                                        l2443 107A  
                                      l2435 103A                                        l2531 134E  
                                      l2347 1208                                        l2339 1156  
                                      l2507 1CA4                                        l2355 1CEC  
                                      l2363 1CCA                                        l2515 1526  
                                      l2523 1568                                        l2603 1A16  
                                      l2453 10C0                                        l2445 1080  
                                      l2437 1040                                        l2461 111C  
                                      l2429 1002                                        l2541 13B2  
                                      l2533 1364                                        l2349 1234  
                                      l2357 1D00                                        l2365 1CCA  
                                      l2373 1CA8                                        l2517 153C  
                                      l2605 1A20                                        l2455 10DA  
                                      l2447 109A                                        l2439 105A  
                                      l2543 13BC                                        l2535 1378  
                                      l2471 1450                                        l2359 1D04  
                                      l2367 1CDE                                        l2375 1CA8  
                                      l2519 1552                                        l2383 19A4  
                                      l2607 1A2A                                        l2393 1870  
                                      l2449 10A0                                        l2545 13D6  
                                      l2537 1392                                        l2553 13FE  
                                      l2481 1498                                        l2473 1454  
                                      l2369 1CE2                                        l2377 1CBC  
                                      l2385 19B6                                        l2609 1A34  
                                      l2395 1882                                        l2459 10E0  
                                      l2547 13DC                                        l2539 1398  
                                      l2555 143A                                        l2483 14B2  
                                      l2475 146E                                        l2491 14D8  
                                      l2379 1CC0                                        l2387 19D6  
                                      l2571 16FE                                        l2549 13F6  
                                      l2485 14B8                                        l2493 150C  
                                      l2477 1474                                        l2469 143E  
                                      l2581 1806                                        l2389 19DA  
                                      l2573 1700                                        l2565 16AA  
                                      l2399 1898                                        l2487 14D2  
                                      l2479 148E                                        l2591 1860  
                                      l2583 1818                                        l2575 1712  
                                      l2567 16C0                                        l2663 1D0E  
                                      l2593 186C                                        l2585 1820  
                                      l2569 16CC                                        l2577 171A  
                                      l2665 1D0E                                        l2851 14F6  
                                      l2587 1850                                        l2853 141C  
                                      l2589 1858                                        l2597 1A02  
                                      l2855 10FE                                        l2847 1334  
                                      l2599 1A02                                        l2857 18B6  
                                      l2849 1586                                        l2859 17E4  
                                      u2000 13B2                                        u2001 13AE  
                                      u2010 13D6                                        u2011 13D2  
                                      u2020 13F6                                        u2021 13F2  
                                      u2030 16C0                                        u2031 16BC  
                                      u2050 1818                                        u2051 1814  
                                      u2045 170E                                        _LATA 0F89  
                                      _LATB 0F8A                                        u2047 1712  
                                      _LATC 0F8B                                        _LATD 0F8C  
                                      _LATE 0F8D                                        u1720 1136  
                                      u1704 1294                                        u1800 19B6  
                                      u1721 1132                                        u1705 1290  
                                      u1801 19B2                                        u1730 1156  
                                      u1714 12E6                                        u1810 19D6  
                                      u1731 1152                                        u1715 12E2  
                                      u1811 19D2                                        u1820 1882  
                                      u1900 10DA                                        u1821 187E  
                                      u1901 10D6                                        u1830 17AC  
                                      u1910 1450                                        u1831 17A8  
                                      u1911 144C                                        u1840 1018  
                                      u1760 121E                                        u1744 117C  
                                      u1920 146E                                        u1680 124E  
                                      u1841 1014                                        u1761 1218  
                                      u1745 1178                                        u1921 146A  
                                      u1681 124A                                        u1850 103A  
                                      u1754 11D4                                        u1930 148E  
                                      u1770 1D00                                        u1690 126E  
                                      u1851 1036                                        u1755 11D0  
                                      u1931 148A                                        u1771 1CFC  
                                      u1691 126A                                        u1860 105A  
                                      u1940 14B2                                        u1780 1CDE  
                                      u1861 1056                                        u1941 14AE  
                                      u1781 1CDA                                        u1870 107A  
                                      u1766 1220                                        u1950 14D2  
                                      u1790 1CBC                                        u1871 1076  
                                      u1951 14CE                                        u1791 1CB8  
                                      u1880 109A                                        u1960 1C8E  
                                      u1881 1096                                        u1961 1C8A  
                                      u1890 10BA                                        u1970 1522  
                                      u1891 10B6                                        u1971 151E  
                                      u1980 1364                                        u1981 1360  
                                      i1l30 18EC                                        u1990 1392  
                                      u1991 138E                                        i1l34 193C  
                                      i2l30 1952                                        i2l34 19A2  
                   ??_application_intialize 008F                                        _led0 0033  
                                      _led1 0032                                        _led2 0031  
                                      _main 1D0E                                        fsr2h 0FDA  
                                      indf2 0FDF                                        fsr1l 0FE1  
                                      fsr2l 0FD9                                        btemp 0061  
                 ?_INT2_SetInterruptHandler 0080                                        prodh 0FF4  
                                      prodl 0FF3                                        start 0086  
                            ?_led_intialize 008B                                ___param_bank 0000  
                    ?_gpio_pin_toggle_logic 0044                        __end_of_Int0_APP_ISR 1AEE  
                      _gpio_pin_write_logic 1238                        __end_of_Int1_APP_ISR 1AB4  
                          __end_of_INT0_ISR 1BEC                            __end_of_INT1_ISR 1B8C  
                          __end_of_INT2_ISR 1BBC                        __end_of_Int2_APP_ISR 1B28  
                 ?_Interrupt_INTx_Edge_Init 0080                                       ?_main 0034  
                                     i1l213 005E                                       i1l151 1626  
                                     i1l432 1AB2                                       i2l203 175A  
                                     i1l427 1AEC                                       i1l437 1B26  
                                     i2l206 177A                                       i2l151 16A8  
                                     i1l379 1B8A                                       i2l432 1C1A  
                                     i2l427 1C4A                                       i2l437 1C7A  
                                     i2l375 1BEA                                       i2l383 1BBA  
                                     _PORTA 0F80                                       _PORTB 0F81  
                                     _PORTC 0F82                                       _PORTD 0F83  
                                     _PORTE 0F84                                       _TRISA 0F92  
                                     _TRISB 0F93                                       _TRISC 0F94  
                                     _TRISD 0F95                                       _TRISE 0F96  
                  Interrupt_INTx_Enable@ret 0083                    _INT1_SetInterruptHandler 1CCA  
                                     pclath 0FFA                                       pclatu 0FFB  
                                     tablat 0FF5                                       ttemp5 0062  
                                     ttemp6 0065                                       ttemp7 0069  
                                     status 0FD8                                       wtemp8 0062  
                    _Interrupt_INTx_Disable 1870   Interrupt_INTx_SetInterruptHandler@int_obj 0082  
                           __initialization 1A40                     i2_gpio_pin_toggle_logic 1628  
                              __end_of_main 1D1A                       ?_gpio_pin_write_logic 0080  
                             _lat_registers 000B                                      ??_main 008F  
                             __activetblptr 0002                            led_turn_on@F3067 005F  
                    _Int0_APP_ISR$intlevel1 1ABE                                      i1l2103 1AC2  
                                    i1l2111 1A84                                      i1l2105 1ACA  
                                    i1l2121 1AA0                                      i1l2131 1AFC  
                                    i1l2107 1ADA                                      i1l2123 1AA2  
                                    i1l2133 1B04                                      i1l2125 1AF8  
                                    i1l2109 1ADC                                      i1l2117 1A88  
                                    i1l2135 1B14                                      i1l2119 1A90  
                                    i1l2137 1B16                                      i1l1801 15DA  
                                    i1l2097 1ABE                                      i1l2193 1B5C  
                                    i1l2265 003E                                      i1l2195 1B5E  
                                    i1l2267 004C                                      i1l2197 1B70  
                                    i1l2269 005A                                      i1l1881 1924  
                                    i1l1873 18D8                                      i2l2051 193E  
                                    i1l1795 15A6                                      i1l1883 1934  
                                    i1l1875 18E8                                      i2l2061 199A  
                                    i2l2053 194E                                      i1l1797 15B6  
                                    i1l1877 18F0                                      i2l2055 1956  
                                    i2l2151 1C3A                                      i1l1799 15D6  
                                    i1l1879 1922                                      i2l2057 1988  
                                    i2l2145 1C20                                      i2l2161 1BF8  
                                    i2l2153 1BEC                                      i2l2059 198A  
                                    i2l2147 1C28                                      i2l2139 1C1C  
                                    i2l2163 1C08                                      i2l2173 1C50  
                                    i2l2149 1C38                                      i2l2165 1C0A  
                                    i2l2181 1BBC                                      i2l2261 1768  
                                    i2l2175 1C58                                      i2l2167 1C4C  
                                    i2l2159 1BF0                                      i2l2183 1BBE  
                                    i2l2191 1BA0                                      i2l2263 1776  
                                    i2l2255 173A                                      i2l2177 1C68  
                                    i2l2185 1BD0                                      i2l2257 1748  
                                    i2l2179 1C6A                                      i2l2187 1B8C  
                                    i2l2259 1756                                      i2l2189 1B8E  
              Interrupt_INTx_Enable@int_obj 0080                                      i2l1853 1628  
                                    i2l1855 1638                                      i2l1857 1658  
                                    i2l1859 165C                  ?_Interrupt_INTx_Clear_Flag 0080  
          gpio_pin_toggle_logic@_pin_config 0044          i2gpio_pin_toggle_logic@_pin_config 0034  
                           ??_led_intialize 008C                            led_intialize@led 008B  
                          led_intialize@ret 008D                                      clear_0 1A66  
                                    isa$std 0001               __end_of_Interrupt_INTx_Enable 143E  
   gpio_pin_direction_intialize@_pin_config 0080                                __pdataCOMRAM 0001  
                              __mediumconst 0000                                      tblptrh 0FF7  
                                    tblptrl 0FF6                                      tblptru 0FF8  
  INT2_SetInterruptHandler@InterruptHandler 0080    INT1_SetInterruptHandler@InterruptHandler 0080  
  INT0_SetInterruptHandler@InterruptHandler 0080                        i2led_turn_toggle@led 0039  
                                __accesstop 0080                     __end_of__initialization 1A6C  
                                 ?_INT0_ISR 0034                                   ?_INT1_ISR 0034  
                                 ?_INT2_ISR 0034                               ___rparam_used 0001  
         __end_of_Interrupt_INTx_Clear_Flag 1806                   ??i2_gpio_pin_toggle_logic 0035  
                           _led_turn_toggle 18D8                     _Interrupt_INTx_Pin_Init 1C7C  
                    ??_gpio_pin_write_logic 0082                              __pcstackCOMRAM 0034  
          __end_of_INT2_SetInterruptHandler 1CCA                 __end_of_Interrupt_INTx_Init 1870  
                              _Int0_APP_ISR 1AB4                                _Int1_APP_ISR 1A7A  
                              _Int2_APP_ISR 1AEE                       _INT0_InterruptHandler 005B  
                                ??_INT0_ISR 003E                                  ??_INT1_ISR 004E  
                                ??_INT2_ISR 003E               __end_of_application_intialize 1A40  
          __end_of_Interrupt_INTx_Edge_Init 1120                     ??_gpio_pin_toggle_logic 0045  
               __end_of_InterruptManagerLow 0086                           led_turn_off@F3072 005E  
__end_of_Interrupt_INTx_SetInterruptHandler 15A6        ??_Interrupt_INTx_SetInterruptHandler 0083  
       ?_Interrupt_INTx_SetInterruptHandler 0082          _Interrupt_INTx_SetInterruptHandler 1510  
                ??_INT1_SetInterruptHandler 0082                        led_turn_toggle@F3077 005D  
                   ?_Interrupt_INTx_Disable 0080                     __end_of_led_turn_toggle 193E  
                            _tris_registers 0015                   ??_Interrupt_INTx_Pin_Init 0088  
                 ?_INT0_SetInterruptHandler 0080                                     __Hparam 0000  
                                   __Lparam 0000                        led_intialize@pin_obj 008E  
                              __psmallconst 1000                  __end_of_gpio_pin_intialize 1A02  
                                   __pcinit 1A40                                     __ramtop 1000  
                                   __ptext0 1D0E                                     __ptext1 1A02  
                                   __ptext2 16AA                                     __ptext3 19A4  
                                   __ptext4 1238                                     __ptext5 1806  
                                   __ptext6 1510                                     __ptext7 1CA8  
                                   __ptext8 1CCA                                     __ptext9 1CEC  
            __end_of_Interrupt_INTx_Disable 18D8                              __pintcode_body 1720  
                      end_of_initialization 1A6C                    _INT2_SetInterruptHandler 1CA8  
                             __Lmediumconst 0000                                     int_func 1720  
               ??_Interrupt_INTx_Clear_Flag 0081                       gpio_pin_intialize@ret 008A  
                                   postdec1 0FE5                                     postdec2 0FDD  
                  _Interrupt_INTx_Edge_Init 1002                                     postinc0 0FEE  
                                   postinc2 0FDE                       _INT1_InterruptHandler 0059  
             gpio_pin_intialize@_pin_config 0088        __end_of_gpio_pin_direction_intialize 1238  
              _gpio_pin_direction_intialize 1120                               Int0_APP_ISR@i 004D  
                    _Int1_APP_ISR$intlevel1 1A84                 Interrupt_INTx_Edge_Init@ret 0083  
                             Int1_APP_ISR@i 004D                            ?_led_turn_toggle 0049  
                            i2_Int0_APP_ISR 1C1C                              i2_Int1_APP_ISR 1BEC  
       Interrupt_INTx_Priority_Init@int_obj 0080                              i2_Int2_APP_ISR 1C4C  
                             Int2_APP_ISR@i 004D                       __end_of_led_intialize 1720  
                    Interrupt_INTx_Init@ret 008A        __end_of_Interrupt_INTx_Priority_Init 1510  
              _Interrupt_INTx_Priority_Init 143E                               __pidataCOMRAM 1B28  
             Interrupt_INTx_Disable@int_obj 0080                   _Interrupt_INTx_Clear_Flag 1796  
                     _Interrupt_INTx_Enable 134E                         start_initialization 1A40  
                    led_turn_toggle@pin_obj 004B               ?_gpio_pin_direction_intialize 0080  
                    __end_ofi2_Int0_APP_ISR 1C4C                      __end_ofi2_Int1_APP_ISR 1C1C  
                    __end_ofi2_Int2_APP_ISR 1C7C               __end_of_gpio_pin_toggle_logic 1628  
             ?_Interrupt_INTx_Priority_Init 0080                                 __pbssCOMRAM 0057  
          __end_of_INT0_SetInterruptHandler 1D0E                               __pcstackBANK0 0080  
                           ?i2_Int0_APP_ISR 0034                             ?i2_Int1_APP_ISR 0034  
                  ?i2_gpio_pin_toggle_logic 0034                             ?i2_Int2_APP_ISR 0034  
                     _INT2_InterruptHandler 0057             gpio_pin_direction_intialize@ret 0086  
              __end_of_InterruptManagerHigh 1796                       _application_intialize 1A02  
                                 __pintcode 0008             gpio_pin_write_logic@_pin_config 0080  
                               __pintcodelo 0018                   gpio_pin_write_logic@logic 0081  
                    ?_Interrupt_INTx_Enable 0080                                 __smallconst 1000  
                ??_INT2_SetInterruptHandler 0082                          _gpio_pin_intialize 19A4  
           Interrupt_INTx_Edge_Init@int_obj 0080              ??_gpio_pin_direction_intialize 0081  
                ??_Interrupt_INTx_Edge_Init 0081                                    _INT0_ISR 1BBC  
                                  _INT1_ISR 1B5C                                    _INT2_ISR 1B8C  
                       ?_gpio_pin_intialize 0088                   ?_INT1_SetInterruptHandler 0080  
                                  i1u100_20 15B6                                    i1u100_21 15B2  
                                  i1u101_20 15D6                                    i1u101_21 15D2  
                                  i1u102_24 15F8                                    i1u102_25 15F4  
                                  i1u116_20 18E8                                    i1u116_21 18E4  
                                  i1u212_27 1A96                                    i1u117_25 1932  
                                  i1u117_27 1934                                    i1u213_27 1AD0  
                                  i1u214_27 1B0A                                    i1u144_20 1AEC  
                                  i1u144_21 1AE8                                    i1u145_20 1AB2  
                                  i1u145_21 1AAE                                    i1u146_20 1B26  
                                  i1u154_20 1B70                                    i1u146_21 1B22  
                                  i1u154_21 1B6C                                    i1u155_28 1B76  
                                  i1u155_29 1B8A                                    i1u165_20 004C  
                                  i1u165_21 0048                                    i1u166_20 005A  
                                  i1u166_21 0056                                    i2u111_40 1638  
                                  i2u111_41 1634                                    i2u112_40 1658  
                                  i2u112_41 1654                                    i2u113_44 167A  
                                  i2u113_45 1676                                    i2u140_45 1998  
                                  i2u140_47 199A                                    i2u150_40 1BD0  
                                  i2u150_41 1BCC                                    i2u215_47 1BFE  
                                  i2u151_48 1BD6                                    i2u152_40 1BA0  
                                  i2u151_49 1BEA                                    i2u152_41 1B9C  
                                  i2u216_47 1C2E                                    i2u161_40 1748  
                                  i2u161_41 1744                                    i2u217_47 1C5E  
                                  i2u153_48 1BA6                                    i2u162_40 1756  
                                  i2u153_49 1BBA                                    i2u162_41 1752  
                                  i2u139_40 194E                                    i2u147_40 1C4A  
                                  i2u163_40 1768                                    i2u139_41 194A  
                                  i2u147_41 1C46                                    i2u163_41 1764  
                                  i2u148_40 1C1A                                    i2u164_40 1776  
                                  i2u148_41 1C16                                    i2u164_41 1772  
                                  i2u149_40 1C7A                                    i2u149_41 1C76  
            Interrupt_INTx_Pin_Init@int_obj 0087                                    _RCONbits 0FD0  
                      ??_gpio_pin_intialize 0089             __end_ofi2_gpio_pin_toggle_logic 16AA  
            ??_Interrupt_INTx_Priority_Init 0081                     gpio_pin_write_logic@ret 0087  
                               _INTCON2bits 0FF1                                 _INTCON3bits 0FF0  
                                 copy_data0 1A54                    ?_Interrupt_INTx_Pin_Init 0087  
                  _INT0_SetInterruptHandler 1CEC                      ?_application_intialize 0034  
                                  __Hrparam 0000                                    __Lrparam 0000  
                Interrupt_INTx_Init@int_obj 0089                          led_intialize@F3062 0060  
                      _InterruptManagerHigh 0008                                    __ptext10 143E  
                                  __ptext11 1C7C                                    __ptext20 1AB4  
                                  __ptext12 1120                                    __ptext21 1AEE  
                                  __ptext13 134E                                    __ptext30 193E  
                                  __ptext22 18D8                                    __ptext14 1002  
                                  __ptext31 1628                                    __ptext23 15A6  
                                  __ptext15 1870                                    __ptext16 1796  
                                  __ptext25 1B8C                                    __ptext26 1BBC  
                                  __ptext18 1B5C                                    __ptext27 1BEC  
                                  __ptext19 1A7A                                    __ptext28 1C1C  
                                  __ptext29 1C4C                               ?_Int0_APP_ISR 0034  
                    _Int2_APP_ISR$intlevel1 1AF8                                    _int0_obj 002B  
                                  _int1_obj 0025                                    _int2_obj 001F  
                             ?_Int1_APP_ISR 0034                               ?_Int2_APP_ISR 0034  
          Interrupt_INTx_Clear_Flag@int_obj 0080                          led_turn_toggle@led 0049  
                                  isa$xinst 0000                                    int$flags 0061  
                  ??_Interrupt_INTx_Disable 0081                         _Interrupt_INTx_Init 1806  
                                _INTCONbits 0FF2                            ??i2_Int0_APP_ISR 003C  
           __end_of_Interrupt_INTx_Pin_Init 1CA8                       ?_InterruptManagerHigh 0034  
                          ??i2_Int1_APP_ISR 003C                              ??_Int0_APP_ISR 004C  
                          ??i2_Int2_APP_ISR 003C                __end_of_gpio_pin_write_logic 134E  
                            ??_Int1_APP_ISR 004C                              ??_Int2_APP_ISR 004C  
                                  intlevel1 0000                                    intlevel2 0000  
                           i2Int0_APP_ISR@i 003D                         _InterruptManagerLow 0018  
              Interrupt_INTx_Clear_Flag@ret 0083                        ?_Interrupt_INTx_Init 0089  
                           i2Int1_APP_ISR@i 003D                           i2_led_turn_toggle 193E  
                Interrupt_INTx_Pin_Init@ret 0088                       _gpio_pin_toggle_logic 15A6  
                   ??_Interrupt_INTx_Enable 0081                          ?i2_led_turn_toggle 0039  
                      ?_InterruptManagerLow 0034                             i2Int2_APP_ISR@i 003D  
                  i2led_turn_toggle@pin_obj 003B                              _port_registers 0001  
                       ??i2_led_turn_toggle 003A            __end_of_INT1_SetInterruptHandler 1CEC  
                     ??_Interrupt_INTx_Init 008A                   __end_ofi2_led_turn_toggle 19A4  
