

Microchip MPLAB XC8 Assembler V2.46 build 20240104201356 
                                                                                               Fri Nov 08 21:04:11 2024

Microchip MPLAB XC8 C Compiler v2.46 (Free license) build 20240104201356 Og1 
     1                           	processor	18F4620
     2                           	fnconf	rparam,??,?,0
     3                           	pagewidth 120
     4                           	opt	flic
     5                           	psect	idataCOMRAM,global,class=CODE,delta=1,noexec
     6                           	psect	cinit,global,reloc=2,class=CODE,delta=1
     7                           	psect	bssCOMRAM,global,class=COMRAM,space=1,delta=1,lowdata,noexec
     8                           	psect	dataCOMRAM,global,class=COMRAM,space=1,delta=1,lowdata,noexec
     9                           	psect	cstackCOMRAM,global,class=COMRAM,space=1,delta=1,lowdata,noexec
    10                           	psect	text0,global,reloc=2,class=CODE,delta=1
    11                           	psect	text1,global,reloc=2,class=CODE,delta=1
    12                           	psect	text2,global,reloc=2,class=CODE,delta=1
    13                           	psect	text3,global,reloc=2,class=CODE,delta=1
    14                           	psect	text4,global,reloc=2,class=CODE,delta=1
    15                           	psect	text5,global,reloc=2,class=CODE,delta=1
    16                           	psect	text6,global,reloc=2,class=CODE,delta=1
    17                           	psect	text7,global,reloc=2,class=CODE,delta=1,inline
    18                           	psect	text8,global,reloc=2,class=CODE,delta=1,inline
    19                           	psect	text9,global,reloc=2,class=CODE,delta=1
    20                           	psect	text10,global,reloc=2,class=CODE,delta=1
    21                           	psect	text11,global,reloc=2,class=CODE,delta=1
    22                           	psect	text12,global,reloc=2,class=CODE,delta=1,inline
    23                           	psect	intcode,global,reloc=2,class=CODE,delta=1
    24                           	psect	intcode_body,global,reloc=2,class=CODE,delta=1
    25                           	psect	text14,global,reloc=2,class=CODE,delta=1
    26                           	psect	text15,global,reloc=2,class=CODE,delta=1
    27                           	psect	text16,global,reloc=2,class=CODE,delta=1
    28                           	psect	text17,global,reloc=2,class=CODE,delta=1
    29                           	psect	text18,global,reloc=2,class=CODE,delta=1
    30                           	psect	text19,global,reloc=2,class=CODE,delta=1
    31                           	psect	text20,global,reloc=2,class=CODE,delta=1
    32                           	psect	text21,global,reloc=2,class=CODE,delta=1
    33                           	psect	text22,global,reloc=2,class=CODE,delta=1
    34                           	psect	text23,global,reloc=2,class=CODE,delta=1
    35                           	psect	text24,global,reloc=2,class=CODE,delta=1
    36                           	psect	text25,global,reloc=2,class=CODE,delta=1
    37                           	psect	text26,global,reloc=2,class=CODE,delta=1
    38                           	psect	smallconst,global,reloc=2,class=SMALLCONST,delta=1,noexec
    39                           	psect	intsave_regs,global,class=BIGRAM,space=1,delta=1,noexec
    40                           	psect	rparam,global,class=COMRAM,space=1,delta=1,noexec
    41                           	psect	temp,global,ovrld,common,class=COMRAM,space=1,delta=1,lowdata
    42                           	psect	config,global,abs,ovrld,class=CONFIG,space=4,delta=1,noexec
    43   000000                     
    44                           ; Generated 17/10/2023 GMT
    45                           ; 
    46                           ; Copyright © 2023, Microchip Technology Inc. and its subsidiaries ("Microchip")
    47                           ; All rights reserved.
    48                           ; 
    49                           ; This software is developed by Microchip Technology Inc. and its subsidiaries ("Microch
      +                          ip").
    50                           ; 
    51                           ; Redistribution and use in source and binary forms, with or without modification, are
    52                           ; permitted provided that the following conditions are met:
    53                           ; 
    54                           ;     1. Redistributions of source code must retain the above copyright notice, this lis
      +                          t of
    55                           ;        conditions and the following disclaimer.
    56                           ; 
    57                           ;     2. Redistributions in binary form must reproduce the above copyright notice, this 
      +                          list
    58                           ;        of conditions and the following disclaimer in the documentation and/or other
    59                           ;        materials provided with the distribution. Publication is not required when
    60                           ;        this file is used in an embedded application.
    61                           ; 
    62                           ;     3. Microchip's name may not be used to endorse or promote products derived from th
      +                          is
    63                           ;        software without specific prior written permission.
    64                           ; 
    65                           ; THIS SOFTWARE IS PROVIDED BY MICROCHIP "AS IS" AND ANY EXPRESS OR IMPLIED WARRANTIES,
    66                           ; INCLUDING, BUT NOT LIMITED TO, THE IMPLIED WARRANTIES OF MERCHANTABILITY AND FITNESS F
      +                          OR
    67                           ; PURPOSE ARE DISCLAIMED.  IN NO EVENT SHALL MICROCHIP BE LIABLE FOR ANY DIRECT, INDIREC
      +                          T,
    68                           ; INCIDENTAL, SPECIAL, EXEMPLARY, OR CONSEQUENTIAL DAMAGES (INCLUDING BUT NOT LIMITED TO
    69                           ; PROCUREMENT OF SUBSTITUTE GOODS OR SERVICES; LOSS OF USE, DATA OR PROFITS; OR BUSINESS
    70                           ; INTERRUPTION) HOWSOEVER CAUSED AND ON ANY THEORY OF LIABILITY, WHETHER IN CONTRACT, ST
      +                          RICT
    71                           ; LIABILITY, OR TORT (INCLUDING NEGLIGENCE OR OTHERWISE) ARISING IN ANY WAY OUT OF THE U
      +                          SE OF
    72                           ; THIS SOFTWARE, EVEN IF ADVISED OF THE POSSIBILITY OF SUCH DAMAGE.
    73                           ; 
    74                           ; 
    75                           ; Code-generator required, PIC18F4620 Definitions
    76                           ; 
    77                           ; SFR Addresses
    78   000000                     
    79                           	psect	idataCOMRAM
    80   001C08                     __pidataCOMRAM:
    81                           	callstack 0
    82                           
    83                           ;initializer for _port_registers
    84   001C08  80                 	db	128
    85   001C09  0F                 	db	15
    86   001C0A  81                 	db	129
    87   001C0B  0F                 	db	15
    88   001C0C  82                 	db	130
    89   001C0D  0F                 	db	15
    90   001C0E  83                 	db	131
    91   001C0F  0F                 	db	15
    92   001C10  84                 	db	132
    93   001C11  0F                 	db	15
    94                           
    95                           ;initializer for _lat_registers
    96   001C12  89                 	db	137
    97   001C13  0F                 	db	15
    98   001C14  8A                 	db	138
    99   001C15  0F                 	db	15
   100   001C16  8B                 	db	139
   101   001C17  0F                 	db	15
   102   001C18  8C                 	db	140
   103   001C19  0F                 	db	15
   104   001C1A  8D                 	db	141
   105   001C1B  0F                 	db	15
   106                           
   107                           ;initializer for _tris_registers
   108   001C1C  92                 	db	146
   109   001C1D  0F                 	db	15
   110   001C1E  93                 	db	147
   111   001C1F  0F                 	db	15
   112   001C20  94                 	db	148
   113   001C21  0F                 	db	15
   114   001C22  95                 	db	149
   115   001C23  0F                 	db	15
   116   001C24  96                 	db	150
   117   001C25  0F                 	db	15
   118                           
   119                           ;initializer for _RB7_Flag
   120   001C26  01                 	db	1
   121                           
   122                           ;initializer for _RB6_Flag
   123   001C27  01                 	db	1
   124                           
   125                           ;initializer for _RB5_Flag
   126   001C28  01                 	db	1
   127                           
   128                           ;initializer for _RB4_Flag
   129   001C29  01                 	db	1
   130                           
   131                           ;initializer for _adc1
   132   001C2A  00                 	db	low _ADC_DefaultInterruptHandler
   133   001C2B  16                 	db	high _ADC_DefaultInterruptHandler
   134   001C2C  05                 	db	5
   135   001C2D  05                 	db	5
   136   001C2E  00                 	db	0
   137   001C2F  02                 	db	2
   138                           
   139                           ;initializer for _led3
   140   001C30  32                 	db	50
   141                           
   142                           ;initializer for _led2
   143   001C31  22                 	db	34
   144                           
   145                           ;initializer for _led1
   146   001C32  12                 	db	18
   147                           
   148                           ;initializer for _led0
   149   001C33  02                 	db	2
   150   000000                     _INTCON2bits	set	4081
   151   000000                     _EECON2	set	4007
   152   000000                     _ADCON1bits	set	4033
   153   000000                     _ADRESL	set	4035
   154   000000                     _ADRESH	set	4036
   155   000000                     _INTCONbits	set	4082
   156   000000                     _TRISD	set	3989
   157   000000                     _TRISC	set	3988
   158   000000                     _TRISB	set	3987
   159   000000                     _TRISE	set	3990
   160   000000                     _PORTBbits	set	3969
   161   000000                     _PIE1bits	set	3997
   162   000000                     _ADCON2bits	set	4032
   163   000000                     _ADCON0bits	set	4034
   164   000000                     _PORTE	set	3972
   165   000000                     _PORTD	set	3971
   166   000000                     _PORTC	set	3970
   167   000000                     _PORTB	set	3969
   168   000000                     _PORTA	set	3968
   169   000000                     _LATA	set	3977
   170   000000                     _TRISA	set	3986
   171   000000                     _EECON1bits	set	4006
   172   000000                     _EEDATA	set	4008
   173   000000                     _EEADR	set	4009
   174   000000                     _EEADRH	set	4010
   175   000000                     _PIR1bits	set	3998
   176   000000                     _INTCON3bits	set	4080
   177   000000                     _LATE	set	3981
   178   000000                     _LATD	set	3980
   179   000000                     _LATC	set	3979
   180   000000                     _LATB	set	3978
   181                           
   182                           ; #config settings
   183                           
   184                           	psect	cinit
   185   001AF4                     __pcinit:
   186                           	callstack 0
   187   001AF4                     start_initialization:
   188                           	callstack 0
   189   001AF4                     __initialization:
   190                           	callstack 0
   191                           
   192                           ; Initialize objects allocated to COMRAM (44 bytes)
   193                           ; load TBLPTR registers with __pidataCOMRAM
   194   001AF4  0E08               	movlw	low __pidataCOMRAM
   195   001AF6  6EF6               	movwf	tblptrl,c
   196   001AF8  0E1C               	movlw	high __pidataCOMRAM
   197   001AFA  6EF7               	movwf	tblptrh,c
   198   001AFC  0E00               	movlw	low (__pidataCOMRAM shr (0+16))
   199   001AFE  6EF8               	movwf	tblptru,c
   200   001B00  EE00  F001         	lfsr	0,__pdataCOMRAM
   201   001B04  EE10 F02C          	lfsr	1,44
   202   001B08                     copy_data0:
   203   001B08  0009               	tblrd		*+
   204   001B0A  CFF5 FFEE          	movff	tablat,postinc0
   205   001B0E  50E5               	movf	postdec1,w,c
   206   001B10  50E1               	movf	fsr1l,w,c
   207   001B12  E1FA               	bnz	copy_data0
   208                           
   209                           ; Clear objects allocated to COMRAM (31 bytes)
   210   001B14  EE00  F02D         	lfsr	0,__pbssCOMRAM
   211   001B18  0E1F               	movlw	31
   212   001B1A                     clear_0:
   213   001B1A  6AEE               	clrf	postinc0,c
   214   001B1C  06E8               	decf	wreg,f,c
   215   001B1E  E1FD               	bnz	clear_0
   216   001B20                     end_of_initialization:
   217                           	callstack 0
   218   001B20                     __end_of__initialization:
   219                           	callstack 0
   220   001B20  906B               	bcf	int$flags,0,c	;clear compiler interrupt flag (level 1)
   221   001B22  926B               	bcf	int$flags,1,c	;clear compiler interrupt flag (level 2)
   222   001B24  0E00               	movlw	low (__Lmediumconst shr (0+16))
   223   001B26  6EF8               	movwf	tblptru,c
   224   001B28  0100               	movlb	0
   225   001B2A  EF74  F00E         	goto	_main	;jump to C main() function
   226                           
   227                           	psect	bssCOMRAM
   228   00002D                     __pbssCOMRAM:
   229                           	callstack 0
   230   00002D                     _RB7_InterruptHandlerLow:
   231                           	callstack 0
   232   00002D                     	ds	2
   233   00002F                     _RB7_InterruptHandlerHigh:
   234                           	callstack 0
   235   00002F                     	ds	2
   236   000031                     _RB6_InterruptHandlerLow:
   237                           	callstack 0
   238   000031                     	ds	2
   239   000033                     _RB6_InterruptHandlerHigh:
   240                           	callstack 0
   241   000033                     	ds	2
   242   000035                     _RB5_InterruptHandlerLow:
   243                           	callstack 0
   244   000035                     	ds	2
   245   000037                     _RB5_InterruptHandlerHigh:
   246                           	callstack 0
   247   000037                     	ds	2
   248   000039                     _RB4_InterruptHandlerLow:
   249                           	callstack 0
   250   000039                     	ds	2
   251   00003B                     _RB4_InterruptHandlerHigh:
   252                           	callstack 0
   253   00003B                     	ds	2
   254   00003D                     _INT2_InterruptHandler:
   255                           	callstack 0
   256   00003D                     	ds	2
   257   00003F                     _INT1_InterruptHandler:
   258                           	callstack 0
   259   00003F                     	ds	2
   260   000041                     _INT0_InterruptHandler:
   261                           	callstack 0
   262   000041                     	ds	2
   263   000043                     _ADC_InterruptHandler:
   264                           	callstack 0
   265   000043                     	ds	2
   266   000045                     _adc_flag:
   267                           	callstack 0
   268   000045                     	ds	1
   269   000046                     led_turn_toggle@F3077:
   270                           	callstack 0
   271   000046                     	ds	1
   272   000047                     led_turn_off@F3072:
   273                           	callstack 0
   274   000047                     	ds	1
   275   000048                     led_turn_on@F3067:
   276                           	callstack 0
   277   000048                     	ds	1
   278   000049                     led_intialize@F3062:
   279                           	callstack 0
   280   000049                     	ds	1
   281   00004A                     _adc_res_1:
   282                           	callstack 0
   283   00004A                     	ds	2
   284                           
   285                           	psect	dataCOMRAM
   286   000001                     __pdataCOMRAM:
   287                           	callstack 0
   288   000001                     _port_registers:
   289                           	callstack 0
   290   000001                     	ds	10
   291   00000B                     _lat_registers:
   292                           	callstack 0
   293   00000B                     	ds	10
   294   000015                     _tris_registers:
   295                           	callstack 0
   296   000015                     	ds	10
   297   00001F                     _RB7_Flag:
   298                           	callstack 0
   299   00001F                     	ds	1
   300   000020                     _RB6_Flag:
   301                           	callstack 0
   302   000020                     	ds	1
   303   000021                     _RB5_Flag:
   304                           	callstack 0
   305   000021                     	ds	1
   306   000022                     _RB4_Flag:
   307                           	callstack 0
   308   000022                     	ds	1
   309   000023                     _adc1:
   310                           	callstack 0
   311   000023                     	ds	6
   312   000029                     _led3:
   313                           	callstack 0
   314   000029                     	ds	1
   315   00002A                     _led2:
   316                           	callstack 0
   317   00002A                     	ds	1
   318   00002B                     _led1:
   319                           	callstack 0
   320   00002B                     	ds	1
   321   00002C                     _led0:
   322                           	callstack 0
   323   00002C                     	ds	1
   324                           
   325                           	psect	cstackCOMRAM
   326   00004C                     __pcstackCOMRAM:
   327                           	callstack 0
   328   00004C                     ADC_GetConversionResult@_adc:
   329                           	callstack 0
   330   00004C                     RB4_ISR@RB4_source:
   331                           	callstack 0
   332   00004C                     RB5_ISR@RB5_source:
   333                           	callstack 0
   334   00004C                     RB6_ISR@RB6_source:
   335                           	callstack 0
   336   00004C                     RB7_ISR@RB7_source:
   337                           	callstack 0
   338   00004C                     i2gpio_pin_write_logic@_pin_config:
   339                           	callstack 0
   340                           
   341                           ; 1 bytes @ 0x0
   342   00004C                     	ds	1
   343   00004D                     ADC_GetConversionResult@Conversion_result:
   344                           	callstack 0
   345   00004D                     i2gpio_pin_write_logic@logic:
   346                           	callstack 0
   347                           
   348                           ; 1 bytes @ 0x1
   349   00004D                     	ds	1
   350   00004E                     ??_ADC_GetConversionResult:
   351   00004E                     ??i2_gpio_pin_write_logic:
   352                           
   353                           ; 1 bytes @ 0x2
   354   00004E                     	ds	3
   355   000051                     ADC_GetConversionResult@ret:
   356                           	callstack 0
   357                           
   358                           ; 1 bytes @ 0x5
   359   000051                     	ds	2
   360   000053                     led_turn_on@led:
   361                           	callstack 0
   362   000053                     led_turn_off@led:
   363                           	callstack 0
   364                           
   365                           ; 1 bytes @ 0x7
   366   000053                     	ds	1
   367   000054                     ??_led_turn_on:
   368   000054                     ??_led_turn_off:
   369                           
   370                           ; 1 bytes @ 0x8
   371   000054                     	ds	1
   372   000055                     led_turn_on@pin_obj:
   373                           	callstack 0
   374   000055                     led_turn_off@pin_obj:
   375                           	callstack 0
   376                           
   377                           ; 1 bytes @ 0x9
   378   000055                     	ds	1
   379   000056                     ??_InterruptManager:
   380                           
   381                           ; 1 bytes @ 0xA
   382   000056                     	ds	6
   383   00005C                     ??_adc_input_channel_pin_configure:
   384   00005C                     ADC_StartConversion@_adc:
   385                           	callstack 0
   386   00005C                     select_result_format@_adc:
   387                           	callstack 0
   388   00005C                     configure_voltage_reference@_adc:
   389                           	callstack 0
   390   00005C                     gpio_pin_direction_intialize@_pin_config:
   391                           	callstack 0
   392   00005C                     gpio_pin_write_logic@_pin_config:
   393                           	callstack 0
   394                           
   395                           ; 1 bytes @ 0x10
   396   00005C                     	ds	1
   397   00005D                     ??_gpio_pin_direction_intialize:
   398   00005D                     ADC_StartConversion@ret:
   399                           	callstack 0
   400   00005D                     gpio_pin_write_logic@logic:
   401                           	callstack 0
   402                           
   403                           ; 1 bytes @ 0x11
   404   00005D                     	ds	1
   405   00005E                     ??_gpio_pin_write_logic:
   406   00005E                     adc_input_channel_pin_configure@channel:
   407                           	callstack 0
   408                           
   409                           ; 1 bytes @ 0x12
   410   00005E                     	ds	1
   411   00005F                     ADC_Init@_adc:
   412                           	callstack 0
   413   00005F                     ADC_SelectChannel@_adc:
   414                           	callstack 0
   415                           
   416                           ; 1 bytes @ 0x13
   417   00005F                     	ds	1
   418   000060                     ??_ADC_Init:
   419   000060                     ADC_SelectChannel@channel:
   420                           	callstack 0
   421                           
   422                           ; 1 bytes @ 0x14
   423   000060                     	ds	1
   424   000061                     ??_ADC_SelectChannel:
   425   000061                     ADC_Init@ret:
   426                           	callstack 0
   427                           
   428                           ; 1 bytes @ 0x15
   429   000061                     	ds	1
   430   000062                     ADC_SelectChannel@ret:
   431                           	callstack 0
   432   000062                     gpio_pin_direction_intialize@ret:
   433                           	callstack 0
   434                           
   435                           ; 1 bytes @ 0x16
   436   000062                     	ds	1
   437   000063                     ADC_StartConversion_Interrupt@_adc:
   438                           	callstack 0
   439   000063                     gpio_pin_write_logic@ret:
   440                           	callstack 0
   441                           
   442                           ; 1 bytes @ 0x17
   443   000063                     	ds	1
   444   000064                     ADC_StartConversion_Interrupt@channel:
   445                           	callstack 0
   446   000064                     gpio_pin_intialize@_pin_config:
   447                           	callstack 0
   448                           
   449                           ; 1 bytes @ 0x18
   450   000064                     	ds	1
   451   000065                     ??_gpio_pin_intialize:
   452   000065                     ADC_StartConversion_Interrupt@l_conversion_status:
   453                           	callstack 0
   454                           
   455                           ; 1 bytes @ 0x19
   456   000065                     	ds	1
   457   000066                     ADC_StartConversion_Interrupt@ret:
   458                           	callstack 0
   459   000066                     gpio_pin_intialize@ret:
   460                           	callstack 0
   461                           
   462                           ; 1 bytes @ 0x1A
   463   000066                     	ds	1
   464   000067                     led_intialize@led:
   465                           	callstack 0
   466                           
   467                           ; 1 bytes @ 0x1B
   468   000067                     	ds	1
   469   000068                     ??_led_intialize:
   470                           
   471                           ; 1 bytes @ 0x1C
   472   000068                     	ds	1
   473   000069                     led_intialize@ret:
   474                           	callstack 0
   475                           
   476                           ; 1 bytes @ 0x1D
   477   000069                     	ds	1
   478   00006A                     led_intialize@pin_obj:
   479                           	callstack 0
   480                           
   481                           ; 1 bytes @ 0x1E
   482   00006A                     	ds	1
   483   00006B                     
   484                           ; 1 bytes @ 0x1F
   485 ;;
   486 ;;Main: autosize = 0, tempsize = 0, incstack = 0, save=0
   487 ;;
   488 ;; *************** function _main *****************
   489 ;; Defined at:
   490 ;;		line 36 in file "application.c"
   491 ;; Parameters:    Size  Location     Type
   492 ;;		None
   493 ;; Auto vars:     Size  Location     Type
   494 ;;  ret             1    0        unsigned char 
   495 ;; Return value:  Size  Location     Type
   496 ;;                  2  623[None  ] int 
   497 ;; Registers used:
   498 ;;		wreg, fsr2l, fsr2h, status,2, status,0, prodl, prodh, cstack
   499 ;; Tracked objects:
   500 ;;		On entry : 0/0
   501 ;;		On exit  : 0/0
   502 ;;		Unchanged: 0/0
   503 ;; Data sizes:     COMRAM   BANK0   BANK1   BANK2   BANK3   BANK4   BANK5   BANK6   BANK7   BANK8   BANK9  BANK10  BANK1
      +1  BANK12  BANK13  BANK14  BANK15
   504 ;;      Params:         0       0       0       0       0       0       0       0       0       0       0       0       
      +0       0       0       0       0
   505 ;;      Locals:         0       0       0       0       0       0       0       0       0       0       0       0       
      +0       0       0       0       0
   506 ;;      Temps:          0       0       0       0       0       0       0       0       0       0       0       0       
      +0       0       0       0       0
   507 ;;      Totals:         0       0       0       0       0       0       0       0       0       0       0       0       
      +0       0       0       0       0
   508 ;;Total ram usage:        0 bytes
   509 ;; Hardware stack levels required when called: 9
   510 ;; This function calls:
   511 ;;		_ADC_StartConversion_Interrupt
   512 ;;		_application_intialize
   513 ;; This function is called by:
   514 ;;		Startup code after reset
   515 ;; This function uses a non-reentrant model
   516 ;;
   517                           
   518                           	psect	text0
   519   001CE8                     __ptext0:
   520                           	callstack 0
   521   001CE8                     _main:
   522                           	callstack 22
   523   001CE8                     
   524                           ;application.c: 38:     application_intialize();
   525   001CE8  EC1A  F00E         	call	_application_intialize	;wreg free
   526   001CEC                     l2596:
   527   001CEC  0E23               	movlw	low _adc1
   528   001CEE  6E63               	movwf	ADC_StartConversion_Interrupt@_adc^0,c
   529   001CF0  0E00               	movlw	0
   530   001CF2  6E64               	movwf	ADC_StartConversion_Interrupt@channel^0,c
   531   001CF4  ECB4  F00D         	call	_ADC_StartConversion_Interrupt	;wreg free
   532   001CF8  EF76  F00E         	goto	l2596
   533   001CFC  EF07  F000         	goto	start
   534   001D00                     __end_of_main:
   535                           	callstack 0
   536                           
   537 ;; *************** function _application_intialize *****************
   538 ;; Defined at:
   539 ;;		line 49 in file "application.c"
   540 ;; Parameters:    Size  Location     Type
   541 ;;		None
   542 ;; Auto vars:     Size  Location     Type
   543 ;;  ret             1    0        unsigned char 
   544 ;; Return value:  Size  Location     Type
   545 ;;                  1    wreg      void 
   546 ;; Registers used:
   547 ;;		wreg, fsr2l, fsr2h, status,2, status,0, prodl, prodh, cstack
   548 ;; Tracked objects:
   549 ;;		On entry : 0/0
   550 ;;		On exit  : 0/0
   551 ;;		Unchanged: 0/0
   552 ;; Data sizes:     COMRAM   BANK0   BANK1   BANK2   BANK3   BANK4   BANK5   BANK6   BANK7   BANK8   BANK9  BANK10  BANK1
      +1  BANK12  BANK13  BANK14  BANK15
   553 ;;      Params:         0       0       0       0       0       0       0       0       0       0       0       0       
      +0       0       0       0       0
   554 ;;      Locals:         0       0       0       0       0       0       0       0       0       0       0       0       
      +0       0       0       0       0
   555 ;;      Temps:          0       0       0       0       0       0       0       0       0       0       0       0       
      +0       0       0       0       0
   556 ;;      Totals:         0       0       0       0       0       0       0       0       0       0       0       0       
      +0       0       0       0       0
   557 ;;Total ram usage:        0 bytes
   558 ;; Hardware stack levels used: 1
   559 ;; Hardware stack levels required when called: 8
   560 ;; This function calls:
   561 ;;		_ADC_Init
   562 ;;		_led_intialize
   563 ;; This function is called by:
   564 ;;		_main
   565 ;; This function uses a non-reentrant model
   566 ;;
   567                           
   568                           	psect	text1
   569   001C34                     __ptext1:
   570                           	callstack 0
   571   001C34                     _application_intialize:
   572                           	callstack 22
   573   001C34  0E23               	movlw	low _adc1
   574   001C36  6E5F               	movwf	ADC_Init@_adc^0,c
   575   001C38  EC37  F00C         	call	_ADC_Init	;wreg free
   576   001C3C  0E2C               	movlw	low _led0
   577   001C3E  6E67               	movwf	led_intialize@led^0,c
   578   001C40  EC8D  F00C         	call	_led_intialize	;wreg free
   579   001C44  0E2B               	movlw	low _led1
   580   001C46  6E67               	movwf	led_intialize@led^0,c
   581   001C48  EC8D  F00C         	call	_led_intialize	;wreg free
   582   001C4C  0E2A               	movlw	low _led2
   583   001C4E  6E67               	movwf	led_intialize@led^0,c
   584   001C50  EC8D  F00C         	call	_led_intialize	;wreg free
   585   001C54  0E29               	movlw	low _led3
   586   001C56  6E67               	movwf	led_intialize@led^0,c
   587   001C58  EC8D  F00C         	call	_led_intialize	;wreg free
   588   001C5C  0012               	return		;funcret
   589   001C5E                     __end_of_application_intialize:
   590                           	callstack 0
   591                           
   592 ;; *************** function _led_intialize *****************
   593 ;; Defined at:
   594 ;;		line 15 in file "ECU_Layer/led/led.c"
   595 ;; Parameters:    Size  Location     Type
   596 ;;  led             1   27[COMRAM] PTR const struct .
   597 ;;		 -> led3(1), led2(1), led1(1), led0(1), 
   598 ;; Auto vars:     Size  Location     Type
   599 ;;  pin_obj         1   30[COMRAM] struct .
   600 ;;  ret             1   29[COMRAM] unsigned char 
   601 ;; Return value:  Size  Location     Type
   602 ;;                  1    wreg      unsigned char 
   603 ;; Registers used:
   604 ;;		wreg, fsr2l, fsr2h, status,2, status,0, prodl, prodh, cstack
   605 ;; Tracked objects:
   606 ;;		On entry : 0/0
   607 ;;		On exit  : 0/0
   608 ;;		Unchanged: 0/0
   609 ;; Data sizes:     COMRAM   BANK0   BANK1   BANK2   BANK3   BANK4   BANK5   BANK6   BANK7   BANK8   BANK9  BANK10  BANK1
      +1  BANK12  BANK13  BANK14  BANK15
   610 ;;      Params:         1       0       0       0       0       0       0       0       0       0       0       0       
      +0       0       0       0       0
   611 ;;      Locals:         2       0       0       0       0       0       0       0       0       0       0       0       
      +0       0       0       0       0
   612 ;;      Temps:          1       0       0       0       0       0       0       0       0       0       0       0       
      +0       0       0       0       0
   613 ;;      Totals:         4       0       0       0       0       0       0       0       0       0       0       0       
      +0       0       0       0       0
   614 ;;Total ram usage:        4 bytes
   615 ;; Hardware stack levels used: 1
   616 ;; Hardware stack levels required when called: 7
   617 ;; This function calls:
   618 ;;		_gpio_pin_intialize
   619 ;; This function is called by:
   620 ;;		_application_intialize
   621 ;; This function uses a non-reentrant model
   622 ;;
   623                           
   624                           	psect	text2
   625   00191A                     __ptext2:
   626                           	callstack 0
   627   00191A                     _led_intialize:
   628                           	callstack 22
   629   00191A                     
   630                           ;ECU_Layer/led/led.c: 16:     Std_ReturnType ret = (Std_ReturnType)0x01 ;
   631   00191A  0E01               	movlw	1
   632   00191C  6E69               	movwf	led_intialize@ret^0,c
   633                           
   634                           ;ECU_Layer/led/led.c: 17:     if(((void*)0) == led){
   635   00191E  5067               	movf	led_intialize@led^0,w,c
   636   001920  A4D8               	btfss	status,2,c
   637   001922  EF95  F00C         	goto	u1631
   638   001926  EF97  F00C         	goto	u1630
   639   00192A                     u1631:
   640   00192A  EF9B  F00C         	goto	l9
   641   00192E                     u1630:
   642   00192E                     
   643                           ;ECU_Layer/led/led.c: 18:         ret = (Std_ReturnType)0x00 ;
   644   00192E  0E00               	movlw	0
   645   001930  6E69               	movwf	led_intialize@ret^0,c
   646                           
   647                           ;ECU_Layer/led/led.c: 19:     }else{
   648   001932  EFC3  F00C         	goto	l2304
   649   001936                     l9:
   650                           
   651                           ;ECU_Layer/led/led.c: 20:         pin_config_t pin_obj ={
   652   001936  C049  F06A         	movff	led_intialize@F3062,led_intialize@pin_obj
   653   00193A  5067               	movf	led_intialize@led^0,w,c
   654   00193C  6ED9               	movwf	fsr2l,c
   655   00193E  6ADA               	clrf	fsr2h,c
   656   001940  50DF               	movf	223,w,c
   657   001942  0B0F               	andlw	15
   658   001944  6E68               	movwf	??_led_intialize^0,c
   659   001946  506A               	movf	led_intialize@pin_obj^0,w,c
   660   001948  1868               	xorwf	??_led_intialize^0,w,c
   661   00194A  0BF8               	andlw	-8
   662   00194C  1868               	xorwf	??_led_intialize^0,w,c
   663   00194E  6E6A               	movwf	led_intialize@pin_obj^0,c
   664   001950  5067               	movf	led_intialize@led^0,w,c
   665   001952  6ED9               	movwf	fsr2l,c
   666   001954  6ADA               	clrf	fsr2h,c
   667   001956  38DF               	swapf	223,w,c
   668   001958  0B07               	andlw	7
   669   00195A  6E68               	movwf	??_led_intialize^0,c
   670   00195C  4668               	rlncf	??_led_intialize^0,f,c
   671   00195E  4668               	rlncf	??_led_intialize^0,f,c
   672   001960  4668               	rlncf	??_led_intialize^0,f,c
   673   001962  506A               	movf	led_intialize@pin_obj^0,w,c
   674   001964  1868               	xorwf	??_led_intialize^0,w,c
   675   001966  0BC7               	andlw	-57
   676   001968  1868               	xorwf	??_led_intialize^0,w,c
   677   00196A  6E6A               	movwf	led_intialize@pin_obj^0,c
   678   00196C  9C6A               	bcf	led_intialize@pin_obj^0,6,c
   679   00196E  5067               	movf	led_intialize@led^0,w,c
   680   001970  6ED9               	movwf	fsr2l,c
   681   001972  6ADA               	clrf	fsr2h,c
   682   001974  AEDF               	btfss	indf2,7,c
   683   001976  D002               	bra	u1645
   684   001978  8E6A               	bsf	led_intialize@pin_obj^0,7,c
   685   00197A  D001               	bra	u1647
   686   00197C                     u1645:
   687   00197C  9E6A               	bcf	led_intialize@pin_obj^0,7,c
   688   00197E                     u1647:
   689   00197E                     
   690                           ;ECU_Layer/led/led.c: 26:         gpio_pin_intialize(&pin_obj);
   691   00197E  0E6A               	movlw	low led_intialize@pin_obj
   692   001980  6E64               	movwf	gpio_pin_intialize@_pin_config^0,c
   693   001982  EC2F  F00D         	call	_gpio_pin_intialize	;wreg free
   694   001986                     l2304:
   695                           
   696                           ;ECU_Layer/led/led.c: 28:     return ret ;
   697   001986  5069               	movf	led_intialize@ret^0,w,c
   698   001988  0012               	return		;funcret
   699   00198A                     __end_of_led_intialize:
   700                           	callstack 0
   701                           
   702 ;; *************** function _gpio_pin_intialize *****************
   703 ;; Defined at:
   704 ;;		line 133 in file "MCAL_Layer/GPIO/hal_gpio.c"
   705 ;; Parameters:    Size  Location     Type
   706 ;;  _pin_config     1   24[COMRAM] PTR const struct .
   707 ;;		 -> led_intialize@pin_obj(1), 
   708 ;; Auto vars:     Size  Location     Type
   709 ;;  ret             1   26[COMRAM] unsigned char 
   710 ;; Return value:  Size  Location     Type
   711 ;;                  1    wreg      unsigned char 
   712 ;; Registers used:
   713 ;;		wreg, fsr2l, fsr2h, status,2, status,0, prodl, prodh, cstack
   714 ;; Tracked objects:
   715 ;;		On entry : 0/0
   716 ;;		On exit  : 0/0
   717 ;;		Unchanged: 0/0
   718 ;; Data sizes:     COMRAM   BANK0   BANK1   BANK2   BANK3   BANK4   BANK5   BANK6   BANK7   BANK8   BANK9  BANK10  BANK1
      +1  BANK12  BANK13  BANK14  BANK15
   719 ;;      Params:         1       0       0       0       0       0       0       0       0       0       0       0       
      +0       0       0       0       0
   720 ;;      Locals:         1       0       0       0       0       0       0       0       0       0       0       0       
      +0       0       0       0       0
   721 ;;      Temps:          1       0       0       0       0       0       0       0       0       0       0       0       
      +0       0       0       0       0
   722 ;;      Totals:         3       0       0       0       0       0       0       0       0       0       0       0       
      +0       0       0       0       0
   723 ;;Total ram usage:        3 bytes
   724 ;; Hardware stack levels used: 1
   725 ;; Hardware stack levels required when called: 6
   726 ;; This function calls:
   727 ;;		_gpio_pin_direction_intialize
   728 ;;		_gpio_pin_write_logic
   729 ;; This function is called by:
   730 ;;		_led_intialize
   731 ;; This function uses a non-reentrant model
   732 ;;
   733                           
   734                           	psect	text3
   735   001A5E                     __ptext3:
   736                           	callstack 0
   737   001A5E                     _gpio_pin_intialize:
   738                           	callstack 22
   739   001A5E                     
   740                           ;MCAL_Layer/GPIO/hal_gpio.c: 135:      if(((void*)0)==_pin_config || _pin_config->pin >8
      +                           -1){
   741   001A5E  5064               	movf	gpio_pin_intialize@_pin_config^0,w,c
   742   001A60  B4D8               	btfsc	status,2,c
   743   001A62  EF35  F00D         	goto	u1481
   744   001A66  EF37  F00D         	goto	u1480
   745   001A6A                     u1481:
   746   001A6A  EF47  F00D         	goto	l2228
   747   001A6E                     u1480:
   748   001A6E  5064               	movf	gpio_pin_intialize@_pin_config^0,w,c
   749   001A70  6ED9               	movwf	fsr2l,c
   750   001A72  6ADA               	clrf	fsr2h,c
   751   001A74  30DF               	rrcf	223,w,c
   752   001A76  32E8               	rrcf	wreg,f,c
   753   001A78  32E8               	rrcf	wreg,f,c
   754   001A7A  0B07               	andlw	7
   755   001A7C  6E65               	movwf	??_gpio_pin_intialize^0,c
   756   001A7E  0E07               	movlw	7
   757   001A80  6465               	cpfsgt	??_gpio_pin_intialize^0,c
   758   001A82  EF45  F00D         	goto	u1491
   759   001A86  EF47  F00D         	goto	u1490
   760   001A8A                     u1491:
   761   001A8A  EF49  F00D         	goto	l2230
   762   001A8E                     u1490:
   763   001A8E                     l2228:
   764                           
   765                           ;MCAL_Layer/GPIO/hal_gpio.c: 138:      }else{
   766   001A8E  EF5A  F00D         	goto	l281
   767   001A92                     l2230:
   768                           
   769                           ;MCAL_Layer/GPIO/hal_gpio.c: 139:          ret = gpio_pin_direction_intialize( _pin_conf
      +                          ig );
   770   001A92  C064  F05C         	movff	gpio_pin_intialize@_pin_config,gpio_pin_direction_intialize@_pin_config
   771   001A96  EC6C  F009         	call	_gpio_pin_direction_intialize	;wreg free
   772   001A9A  6E66               	movwf	gpio_pin_intialize@ret^0,c
   773                           
   774                           ;MCAL_Layer/GPIO/hal_gpio.c: 140:          ret = gpio_pin_write_logic(_pin_config ,_pin_
      +                          config-> logic);
   775   001A9C  C064  F05C         	movff	gpio_pin_intialize@_pin_config,gpio_pin_write_logic@_pin_config
   776   001AA0  5064               	movf	gpio_pin_intialize@_pin_config^0,w,c
   777   001AA2  6ED9               	movwf	fsr2l,c
   778   001AA4  6ADA               	clrf	fsr2h,c
   779   001AA6  0E00               	movlw	0
   780   001AA8  BEDF               	btfsc	indf2,7,c
   781   001AAA  0E01               	movlw	1
   782   001AAC  6E5D               	movwf	gpio_pin_write_logic@logic^0,c
   783   001AAE  ECF5  F009         	call	_gpio_pin_write_logic	;wreg free
   784   001AB2  6E66               	movwf	gpio_pin_intialize@ret^0,c
   785   001AB4                     l281:
   786   001AB4  0012               	return		;funcret
   787   001AB6                     __end_of_gpio_pin_intialize:
   788                           	callstack 0
   789                           
   790 ;; *************** function _gpio_pin_write_logic *****************
   791 ;; Defined at:
   792 ;;		line 70 in file "MCAL_Layer/GPIO/hal_gpio.c"
   793 ;; Parameters:    Size  Location     Type
   794 ;;  _pin_config     1   16[COMRAM] PTR const struct .
   795 ;;		 -> led_turn_off@pin_obj(1), led_turn_on@pin_obj(1), led_intialize@pin_obj(1), 
   796 ;;  logic           1   17[COMRAM] enum E2982
   797 ;; Auto vars:     Size  Location     Type
   798 ;;  ret             1   23[COMRAM] unsigned char 
   799 ;; Return value:  Size  Location     Type
   800 ;;                  1    wreg      unsigned char 
   801 ;; Registers used:
   802 ;;		wreg, fsr2l, fsr2h, status,2, status,0, prodl, prodh
   803 ;; Tracked objects:
   804 ;;		On entry : 0/0
   805 ;;		On exit  : 0/0
   806 ;;		Unchanged: 0/0
   807 ;; Data sizes:     COMRAM   BANK0   BANK1   BANK2   BANK3   BANK4   BANK5   BANK6   BANK7   BANK8   BANK9  BANK10  BANK1
      +1  BANK12  BANK13  BANK14  BANK15
   808 ;;      Params:         2       0       0       0       0       0       0       0       0       0       0       0       
      +0       0       0       0       0
   809 ;;      Locals:         1       0       0       0       0       0       0       0       0       0       0       0       
      +0       0       0       0       0
   810 ;;      Temps:          5       0       0       0       0       0       0       0       0       0       0       0       
      +0       0       0       0       0
   811 ;;      Totals:         8       0       0       0       0       0       0       0       0       0       0       0       
      +0       0       0       0       0
   812 ;;Total ram usage:        8 bytes
   813 ;; Hardware stack levels used: 1
   814 ;; Hardware stack levels required when called: 5
   815 ;; This function calls:
   816 ;;		Nothing
   817 ;; This function is called by:
   818 ;;		_gpio_pin_intialize
   819 ;; This function uses a non-reentrant model
   820 ;;
   821                           
   822                           	psect	text4
   823   0013EA                     __ptext4:
   824                           	callstack 0
   825   0013EA                     _gpio_pin_write_logic:
   826                           	callstack 22
   827   0013EA                     
   828                           ;MCAL_Layer/GPIO/hal_gpio.c: 71:     Std_ReturnType ret = (Std_ReturnType)0x01 ;
   829   0013EA  0E01               	movlw	1
   830   0013EC  6E63               	movwf	gpio_pin_write_logic@ret^0,c
   831                           
   832                           ;MCAL_Layer/GPIO/hal_gpio.c: 72:     if(((void*)0)==_pin_config|| _pin_config->pin >8 -1
      +                           ){
   833   0013EE  505C               	movf	gpio_pin_write_logic@_pin_config^0,w,c
   834   0013F0  B4D8               	btfsc	status,2,c
   835   0013F2  EFFD  F009         	goto	u1351
   836   0013F6  EFFF  F009         	goto	u1350
   837   0013FA                     u1351:
   838   0013FA  EF0F  F00A         	goto	l2170
   839   0013FE                     u1350:
   840   0013FE  505C               	movf	gpio_pin_write_logic@_pin_config^0,w,c
   841   001400  6ED9               	movwf	fsr2l,c
   842   001402  6ADA               	clrf	fsr2h,c
   843   001404  30DF               	rrcf	223,w,c
   844   001406  32E8               	rrcf	wreg,f,c
   845   001408  32E8               	rrcf	wreg,f,c
   846   00140A  0B07               	andlw	7
   847   00140C  6E5E               	movwf	??_gpio_pin_write_logic^0,c
   848   00140E  0E07               	movlw	7
   849   001410  645E               	cpfsgt	??_gpio_pin_write_logic^0,c
   850   001412  EF0D  F00A         	goto	u1361
   851   001416  EF0F  F00A         	goto	u1360
   852   00141A                     u1361:
   853   00141A  EF66  F00A         	goto	l2178
   854   00141E                     u1360:
   855   00141E                     l2170:
   856                           
   857                           ;MCAL_Layer/GPIO/hal_gpio.c: 73:         ret = (Std_ReturnType)0x00;
   858   00141E  0E00               	movlw	0
   859   001420  6E63               	movwf	gpio_pin_write_logic@ret^0,c
   860                           
   861                           ;MCAL_Layer/GPIO/hal_gpio.c: 74:     }else{
   862   001422  EF7B  F00A         	goto	l2180
   863   001426                     l2172:
   864                           
   865                           ;MCAL_Layer/GPIO/hal_gpio.c: 77:                 (*lat_registers[_pin_config->port] |= (
      +                          (uint8)1 << _pin_config->pin));
   866   001426  505C               	movf	gpio_pin_write_logic@_pin_config^0,w,c
   867   001428  6ED9               	movwf	fsr2l,c
   868   00142A  6ADA               	clrf	fsr2h,c
   869   00142C  30DF               	rrcf	223,w,c
   870   00142E  32E8               	rrcf	wreg,f,c
   871   001430  32E8               	rrcf	wreg,f,c
   872   001432  0B07               	andlw	7
   873   001434  6E5E               	movwf	??_gpio_pin_write_logic^0,c
   874   001436  0E01               	movlw	1
   875   001438  6E5F               	movwf	(??_gpio_pin_write_logic+1)^0,c
   876   00143A  2A5E               	incf	??_gpio_pin_write_logic^0,f,c
   877   00143C  EF22  F00A         	goto	u1374
   878   001440                     u1375:
   879   001440  90D8               	bcf	status,0,c
   880   001442  365F               	rlcf	(??_gpio_pin_write_logic+1)^0,f,c
   881   001444                     u1374:
   882   001444  2E5E               	decfsz	??_gpio_pin_write_logic^0,f,c
   883   001446  EF20  F00A         	goto	u1375
   884   00144A  505C               	movf	gpio_pin_write_logic@_pin_config^0,w,c
   885   00144C  6ED9               	movwf	fsr2l,c
   886   00144E  6ADA               	clrf	fsr2h,c
   887   001450  50DF               	movf	223,w,c
   888   001452  0B07               	andlw	7
   889   001454  0D02               	mullw	2
   890   001456  50F3               	movf	243,w,c
   891   001458  0F0B               	addlw	low _lat_registers
   892   00145A  6ED9               	movwf	fsr2l,c
   893   00145C  6ADA               	clrf	fsr2h,c
   894   00145E  CFDE F060          	movff	postinc2,??_gpio_pin_write_logic+2
   895   001462  CFDD F061          	movff	postdec2,??_gpio_pin_write_logic+3
   896   001466  C060  FFD9         	movff	??_gpio_pin_write_logic+2,fsr2l
   897   00146A  C061  FFDA         	movff	??_gpio_pin_write_logic+3,fsr2h
   898   00146E  505F               	movf	(??_gpio_pin_write_logic+1)^0,w,c
   899   001470  12DF               	iorwf	indf2,f,c
   900                           
   901                           ;MCAL_Layer/GPIO/hal_gpio.c: 78:                 break;
   902   001472  EF7B  F00A         	goto	l2180
   903   001476                     l2174:
   904                           
   905                           ;MCAL_Layer/GPIO/hal_gpio.c: 80:                 (*lat_registers[_pin_config->port] &= ~
      +                          ((uint8)1 << _pin_config->pin));
   906   001476  505C               	movf	gpio_pin_write_logic@_pin_config^0,w,c
   907   001478  6ED9               	movwf	fsr2l,c
   908   00147A  6ADA               	clrf	fsr2h,c
   909   00147C  30DF               	rrcf	223,w,c
   910   00147E  32E8               	rrcf	wreg,f,c
   911   001480  32E8               	rrcf	wreg,f,c
   912   001482  0B07               	andlw	7
   913   001484  6E5E               	movwf	??_gpio_pin_write_logic^0,c
   914   001486  0E01               	movlw	1
   915   001488  6E5F               	movwf	(??_gpio_pin_write_logic+1)^0,c
   916   00148A  2A5E               	incf	??_gpio_pin_write_logic^0,f,c
   917   00148C  EF4A  F00A         	goto	u1384
   918   001490                     u1385:
   919   001490  90D8               	bcf	status,0,c
   920   001492  365F               	rlcf	(??_gpio_pin_write_logic+1)^0,f,c
   921   001494                     u1384:
   922   001494  2E5E               	decfsz	??_gpio_pin_write_logic^0,f,c
   923   001496  EF48  F00A         	goto	u1385
   924   00149A  505F               	movf	(??_gpio_pin_write_logic+1)^0,w,c
   925   00149C  0AFF               	xorlw	255
   926   00149E  6E60               	movwf	(??_gpio_pin_write_logic+2)^0,c
   927   0014A0  505C               	movf	gpio_pin_write_logic@_pin_config^0,w,c
   928   0014A2  6ED9               	movwf	fsr2l,c
   929   0014A4  6ADA               	clrf	fsr2h,c
   930   0014A6  50DF               	movf	223,w,c
   931   0014A8  0B07               	andlw	7
   932   0014AA  0D02               	mullw	2
   933   0014AC  50F3               	movf	243,w,c
   934   0014AE  0F0B               	addlw	low _lat_registers
   935   0014B0  6ED9               	movwf	fsr2l,c
   936   0014B2  6ADA               	clrf	fsr2h,c
   937   0014B4  CFDE F061          	movff	postinc2,??_gpio_pin_write_logic+3
   938   0014B8  CFDD F062          	movff	postdec2,??_gpio_pin_write_logic+4
   939   0014BC  C061  FFD9         	movff	??_gpio_pin_write_logic+3,fsr2l
   940   0014C0  C062  FFDA         	movff	??_gpio_pin_write_logic+4,fsr2h
   941   0014C4  5060               	movf	(??_gpio_pin_write_logic+2)^0,w,c
   942   0014C6  16DF               	andwf	indf2,f,c
   943                           
   944                           ;MCAL_Layer/GPIO/hal_gpio.c: 81:                 break;
   945   0014C8  EF7B  F00A         	goto	l2180
   946   0014CC                     l2178:
   947   0014CC  505D               	movf	gpio_pin_write_logic@logic^0,w,c
   948   0014CE  6E5E               	movwf	??_gpio_pin_write_logic^0,c
   949   0014D0  6A5F               	clrf	(??_gpio_pin_write_logic+1)^0,c
   950                           
   951                           ; Switch on 2 bytes has been partitioned into a top level switch of size 1, and 1 sub-sw
      +                          itches
   952                           ; Switch size 1, requested type "simple"
   953                           ; Number of cases is 1, Range of values is 0 to 0
   954                           ; switch strategies available:
   955                           ; Name         Instructions Cycles
   956                           ; simple_byte            4     3 (average)
   957                           ;	Chosen strategy is simple_byte
   958   0014D2  505F               	movf	(??_gpio_pin_write_logic+1)^0,w,c
   959   0014D4  0A00               	xorlw	0	; case 0
   960   0014D6  B4D8               	btfsc	status,2,c
   961   0014D8  EF70  F00A         	goto	l2610
   962   0014DC  EF0F  F00A         	goto	l2170
   963   0014E0                     l2610:
   964                           
   965                           ; Switch size 1, requested type "simple"
   966                           ; Number of cases is 2, Range of values is 0 to 1
   967                           ; switch strategies available:
   968                           ; Name         Instructions Cycles
   969                           ; simple_byte            7     4 (average)
   970                           ;	Chosen strategy is simple_byte
   971   0014E0  505E               	movf	??_gpio_pin_write_logic^0,w,c
   972   0014E2  0A00               	xorlw	0	; case 0
   973   0014E4  B4D8               	btfsc	status,2,c
   974   0014E6  EF3B  F00A         	goto	l2174
   975   0014EA  0A01               	xorlw	1	; case 1
   976   0014EC  B4D8               	btfsc	status,2,c
   977   0014EE  EF13  F00A         	goto	l2172
   978   0014F2  EF0F  F00A         	goto	l2170
   979   0014F6                     l2180:
   980                           
   981                           ;MCAL_Layer/GPIO/hal_gpio.c: 85:         return ret ;
   982   0014F6  5063               	movf	gpio_pin_write_logic@ret^0,w,c
   983   0014F8  0012               	return		;funcret
   984   0014FA                     __end_of_gpio_pin_write_logic:
   985                           	callstack 0
   986                           
   987 ;; *************** function _gpio_pin_direction_intialize *****************
   988 ;; Defined at:
   989 ;;		line 24 in file "MCAL_Layer/GPIO/hal_gpio.c"
   990 ;; Parameters:    Size  Location     Type
   991 ;;  _pin_config     1   16[COMRAM] PTR const struct .
   992 ;;		 -> led_intialize@pin_obj(1), 
   993 ;; Auto vars:     Size  Location     Type
   994 ;;  ret             1   22[COMRAM] unsigned char 
   995 ;; Return value:  Size  Location     Type
   996 ;;                  1    wreg      unsigned char 
   997 ;; Registers used:
   998 ;;		wreg, fsr2l, fsr2h, status,2, status,0, prodl, prodh
   999 ;; Tracked objects:
  1000 ;;		On entry : 0/0
  1001 ;;		On exit  : 0/0
  1002 ;;		Unchanged: 0/0
  1003 ;; Data sizes:     COMRAM   BANK0   BANK1   BANK2   BANK3   BANK4   BANK5   BANK6   BANK7   BANK8   BANK9  BANK10  BANK1
      +1  BANK12  BANK13  BANK14  BANK15
  1004 ;;      Params:         1       0       0       0       0       0       0       0       0       0       0       0       
      +0       0       0       0       0
  1005 ;;      Locals:         1       0       0       0       0       0       0       0       0       0       0       0       
      +0       0       0       0       0
  1006 ;;      Temps:          5       0       0       0       0       0       0       0       0       0       0       0       
      +0       0       0       0       0
  1007 ;;      Totals:         7       0       0       0       0       0       0       0       0       0       0       0       
      +0       0       0       0       0
  1008 ;;Total ram usage:        7 bytes
  1009 ;; Hardware stack levels used: 1
  1010 ;; Hardware stack levels required when called: 5
  1011 ;; This function calls:
  1012 ;;		Nothing
  1013 ;; This function is called by:
  1014 ;;		_gpio_pin_intialize
  1015 ;;		_Interrupt_RBx_Init
  1016 ;;		_Interrupt_INTx_Pin_Init
  1017 ;;		_Interrupt_RBx_Pin_Init
  1018 ;; This function uses a non-reentrant model
  1019 ;;
  1020                           
  1021                           	psect	text5
  1022   0012D8                     __ptext5:
  1023                           	callstack 0
  1024   0012D8                     _gpio_pin_direction_intialize:
  1025                           	callstack 22
  1026   0012D8                     
  1027                           ;MCAL_Layer/GPIO/hal_gpio.c: 25:     Std_ReturnType ret = (Std_ReturnType)0x01 ;
  1028   0012D8  0E01               	movlw	1
  1029   0012DA  6E62               	movwf	gpio_pin_direction_intialize@ret^0,c
  1030                           
  1031                           ;MCAL_Layer/GPIO/hal_gpio.c: 26:     if(((void*)0)==_pin_config || _pin_config->pin >8 -
      +                          1){
  1032   0012DC  505C               	movf	gpio_pin_direction_intialize@_pin_config^0,w,c
  1033   0012DE  B4D8               	btfsc	status,2,c
  1034   0012E0  EF74  F009         	goto	u1391
  1035   0012E4  EF76  F009         	goto	u1390
  1036   0012E8                     u1391:
  1037   0012E8  EF86  F009         	goto	l2192
  1038   0012EC                     u1390:
  1039   0012EC  505C               	movf	gpio_pin_direction_intialize@_pin_config^0,w,c
  1040   0012EE  6ED9               	movwf	fsr2l,c
  1041   0012F0  6ADA               	clrf	fsr2h,c
  1042   0012F2  30DF               	rrcf	223,w,c
  1043   0012F4  32E8               	rrcf	wreg,f,c
  1044   0012F6  32E8               	rrcf	wreg,f,c
  1045   0012F8  0B07               	andlw	7
  1046   0012FA  6E5D               	movwf	??_gpio_pin_direction_intialize^0,c
  1047   0012FC  0E07               	movlw	7
  1048   0012FE  645D               	cpfsgt	??_gpio_pin_direction_intialize^0,c
  1049   001300  EF84  F009         	goto	u1401
  1050   001304  EF86  F009         	goto	u1400
  1051   001308                     u1401:
  1052   001308  EFDD  F009         	goto	l2200
  1053   00130C                     u1400:
  1054   00130C                     l2192:
  1055                           
  1056                           ;MCAL_Layer/GPIO/hal_gpio.c: 27:         ret = (Std_ReturnType)0x00;
  1057   00130C  0E00               	movlw	0
  1058   00130E  6E62               	movwf	gpio_pin_direction_intialize@ret^0,c
  1059                           
  1060                           ;MCAL_Layer/GPIO/hal_gpio.c: 28:     }else{
  1061   001310  EFF3  F009         	goto	l2202
  1062   001314                     l2194:
  1063                           
  1064                           ;MCAL_Layer/GPIO/hal_gpio.c: 31:                 (*tris_registers[_pin_config->port] &= 
      +                          ~((uint8)1 << _pin_config->pin));
  1065   001314  505C               	movf	gpio_pin_direction_intialize@_pin_config^0,w,c
  1066   001316  6ED9               	movwf	fsr2l,c
  1067   001318  6ADA               	clrf	fsr2h,c
  1068   00131A  30DF               	rrcf	223,w,c
  1069   00131C  32E8               	rrcf	wreg,f,c
  1070   00131E  32E8               	rrcf	wreg,f,c
  1071   001320  0B07               	andlw	7
  1072   001322  6E5D               	movwf	??_gpio_pin_direction_intialize^0,c
  1073   001324  0E01               	movlw	1
  1074   001326  6E5E               	movwf	(??_gpio_pin_direction_intialize+1)^0,c
  1075   001328  2A5D               	incf	??_gpio_pin_direction_intialize^0,f,c
  1076   00132A  EF99  F009         	goto	u1414
  1077   00132E                     u1415:
  1078   00132E  90D8               	bcf	status,0,c
  1079   001330  365E               	rlcf	(??_gpio_pin_direction_intialize+1)^0,f,c
  1080   001332                     u1414:
  1081   001332  2E5D               	decfsz	??_gpio_pin_direction_intialize^0,f,c
  1082   001334  EF97  F009         	goto	u1415
  1083   001338  505E               	movf	(??_gpio_pin_direction_intialize+1)^0,w,c
  1084   00133A  0AFF               	xorlw	255
  1085   00133C  6E5F               	movwf	(??_gpio_pin_direction_intialize+2)^0,c
  1086   00133E  505C               	movf	gpio_pin_direction_intialize@_pin_config^0,w,c
  1087   001340  6ED9               	movwf	fsr2l,c
  1088   001342  6ADA               	clrf	fsr2h,c
  1089   001344  50DF               	movf	223,w,c
  1090   001346  0B07               	andlw	7
  1091   001348  0D02               	mullw	2
  1092   00134A  50F3               	movf	243,w,c
  1093   00134C  0F15               	addlw	low _tris_registers
  1094   00134E  6ED9               	movwf	fsr2l,c
  1095   001350  6ADA               	clrf	fsr2h,c
  1096   001352  CFDE F060          	movff	postinc2,??_gpio_pin_direction_intialize+3
  1097   001356  CFDD F061          	movff	postdec2,??_gpio_pin_direction_intialize+4
  1098   00135A  C060  FFD9         	movff	??_gpio_pin_direction_intialize+3,fsr2l
  1099   00135E  C061  FFDA         	movff	??_gpio_pin_direction_intialize+4,fsr2h
  1100   001362  505F               	movf	(??_gpio_pin_direction_intialize+2)^0,w,c
  1101   001364  16DF               	andwf	indf2,f,c
  1102                           
  1103                           ;MCAL_Layer/GPIO/hal_gpio.c: 32:               break;
  1104   001366  EFF3  F009         	goto	l2202
  1105   00136A                     l2196:
  1106                           
  1107                           ;MCAL_Layer/GPIO/hal_gpio.c: 34:                 (*tris_registers[_pin_config->port] |= 
      +                          ((uint8)1 << _pin_config->pin));
  1108   00136A  505C               	movf	gpio_pin_direction_intialize@_pin_config^0,w,c
  1109   00136C  6ED9               	movwf	fsr2l,c
  1110   00136E  6ADA               	clrf	fsr2h,c
  1111   001370  30DF               	rrcf	223,w,c
  1112   001372  32E8               	rrcf	wreg,f,c
  1113   001374  32E8               	rrcf	wreg,f,c
  1114   001376  0B07               	andlw	7
  1115   001378  6E5D               	movwf	??_gpio_pin_direction_intialize^0,c
  1116   00137A  0E01               	movlw	1
  1117   00137C  6E5E               	movwf	(??_gpio_pin_direction_intialize+1)^0,c
  1118   00137E  2A5D               	incf	??_gpio_pin_direction_intialize^0,f,c
  1119   001380  EFC4  F009         	goto	u1424
  1120   001384                     u1425:
  1121   001384  90D8               	bcf	status,0,c
  1122   001386  365E               	rlcf	(??_gpio_pin_direction_intialize+1)^0,f,c
  1123   001388                     u1424:
  1124   001388  2E5D               	decfsz	??_gpio_pin_direction_intialize^0,f,c
  1125   00138A  EFC2  F009         	goto	u1425
  1126   00138E  505C               	movf	gpio_pin_direction_intialize@_pin_config^0,w,c
  1127   001390  6ED9               	movwf	fsr2l,c
  1128   001392  6ADA               	clrf	fsr2h,c
  1129   001394  50DF               	movf	223,w,c
  1130   001396  0B07               	andlw	7
  1131   001398  0D02               	mullw	2
  1132   00139A  50F3               	movf	243,w,c
  1133   00139C  0F15               	addlw	low _tris_registers
  1134   00139E  6ED9               	movwf	fsr2l,c
  1135   0013A0  6ADA               	clrf	fsr2h,c
  1136   0013A2  CFDE F05F          	movff	postinc2,??_gpio_pin_direction_intialize+2
  1137   0013A6  CFDD F060          	movff	postdec2,??_gpio_pin_direction_intialize+3
  1138   0013AA  C05F  FFD9         	movff	??_gpio_pin_direction_intialize+2,fsr2l
  1139   0013AE  C060  FFDA         	movff	??_gpio_pin_direction_intialize+3,fsr2h
  1140   0013B2  505E               	movf	(??_gpio_pin_direction_intialize+1)^0,w,c
  1141   0013B4  12DF               	iorwf	indf2,f,c
  1142                           
  1143                           ;MCAL_Layer/GPIO/hal_gpio.c: 35:               break;
  1144   0013B6  EFF3  F009         	goto	l2202
  1145   0013BA                     l2200:
  1146   0013BA  505C               	movf	gpio_pin_direction_intialize@_pin_config^0,w,c
  1147   0013BC  6ED9               	movwf	fsr2l,c
  1148   0013BE  6ADA               	clrf	fsr2h,c
  1149   0013C0  BCDF               	btfsc	indf2,6,c
  1150   0013C2  EFE5  F009         	goto	u1431
  1151   0013C6  EFE8  F009         	goto	u1430
  1152   0013CA                     u1431:
  1153   0013CA  0E01               	movlw	1
  1154   0013CC  EFE9  F009         	goto	u1436
  1155   0013D0                     u1430:
  1156   0013D0  0E00               	movlw	0
  1157   0013D2                     u1436:
  1158                           
  1159                           ; Switch size 1, requested type "simple"
  1160                           ; Number of cases is 2, Range of values is 0 to 1
  1161                           ; switch strategies available:
  1162                           ; Name         Instructions Cycles
  1163                           ; simple_byte            7     4 (average)
  1164                           ;	Chosen strategy is simple_byte
  1165   0013D2  0A00               	xorlw	0	; case 0
  1166   0013D4  B4D8               	btfsc	status,2,c
  1167   0013D6  EF8A  F009         	goto	l2194
  1168   0013DA  0A01               	xorlw	1	; case 1
  1169   0013DC  B4D8               	btfsc	status,2,c
  1170   0013DE  EFB5  F009         	goto	l2196
  1171   0013E2  EF86  F009         	goto	l2192
  1172   0013E6                     l2202:
  1173                           
  1174                           ;MCAL_Layer/GPIO/hal_gpio.c: 39:     return ret ;
  1175   0013E6  5062               	movf	gpio_pin_direction_intialize@ret^0,w,c
  1176   0013E8  0012               	return		;funcret
  1177   0013EA                     __end_of_gpio_pin_direction_intialize:
  1178                           	callstack 0
  1179                           
  1180 ;; *************** function _ADC_Init *****************
  1181 ;; Defined at:
  1182 ;;		line 32 in file "MCAL_Layer/ADC/adc.c"
  1183 ;; Parameters:    Size  Location     Type
  1184 ;;  _adc            1   19[COMRAM] PTR const struct .
  1185 ;;		 -> adc1(6), 
  1186 ;; Auto vars:     Size  Location     Type
  1187 ;;  ret             1   21[COMRAM] unsigned char 
  1188 ;; Return value:  Size  Location     Type
  1189 ;;                  1    wreg      unsigned char 
  1190 ;; Registers used:
  1191 ;;		wreg, fsr2l, fsr2h, status,2, status,0, cstack
  1192 ;; Tracked objects:
  1193 ;;		On entry : 0/0
  1194 ;;		On exit  : 0/0
  1195 ;;		Unchanged: 0/0
  1196 ;; Data sizes:     COMRAM   BANK0   BANK1   BANK2   BANK3   BANK4   BANK5   BANK6   BANK7   BANK8   BANK9  BANK10  BANK1
      +1  BANK12  BANK13  BANK14  BANK15
  1197 ;;      Params:         1       0       0       0       0       0       0       0       0       0       0       0       
      +0       0       0       0       0
  1198 ;;      Locals:         1       0       0       0       0       0       0       0       0       0       0       0       
      +0       0       0       0       0
  1199 ;;      Temps:          1       0       0       0       0       0       0       0       0       0       0       0       
      +0       0       0       0       0
  1200 ;;      Totals:         3       0       0       0       0       0       0       0       0       0       0       0       
      +0       0       0       0       0
  1201 ;;Total ram usage:        3 bytes
  1202 ;; Hardware stack levels used: 1
  1203 ;; Hardware stack levels required when called: 6
  1204 ;; This function calls:
  1205 ;;		_adc_input_channel_pin_configure
  1206 ;;		_configure_voltage_reference
  1207 ;;		_select_result_format
  1208 ;; This function is called by:
  1209 ;;		_application_intialize
  1210 ;; This function uses a non-reentrant model
  1211 ;;
  1212                           
  1213                           	psect	text6
  1214   00186E                     __ptext6:
  1215                           	callstack 0
  1216   00186E                     _ADC_Init:
  1217                           	callstack 23
  1218   00186E                     
  1219                           ;MCAL_Layer/ADC/adc.c: 33:     Std_ReturnType ret =(Std_ReturnType)0x01 ;
  1220   00186E  0E01               	movlw	1
  1221   001870  6E61               	movwf	ADC_Init@ret^0,c
  1222                           
  1223                           ;MCAL_Layer/ADC/adc.c: 34:     if(((void*)0) == _adc){
  1224   001872  505F               	movf	ADC_Init@_adc^0,w,c
  1225   001874  A4D8               	btfss	status,2,c
  1226   001876  EF3F  F00C         	goto	u1651
  1227   00187A  EF41  F00C         	goto	u1650
  1228   00187E                     u1651:
  1229   00187E  EF45  F00C         	goto	l83
  1230   001882                     u1650:
  1231   001882                     
  1232                           ;MCAL_Layer/ADC/adc.c: 35:         ret = (Std_ReturnType)0x00;
  1233   001882  0E00               	movlw	0
  1234   001884  6E61               	movwf	ADC_Init@ret^0,c
  1235                           
  1236                           ;MCAL_Layer/ADC/adc.c: 36:     }else{
  1237   001886  EF8B  F00C         	goto	l2332
  1238   00188A                     l83:
  1239                           
  1240                           ;MCAL_Layer/ADC/adc.c: 38:         (ADCON0bits.ADON =0);
  1241   00188A  90C2               	bcf	194,0,c	;volatile
  1242   00188C                     
  1243                           ;MCAL_Layer/ADC/adc.c: 40:         ADCON2bits.ACQT=_adc->acquisition_time;
  1244   00188C  505F               	movf	ADC_Init@_adc^0,w,c
  1245   00188E  6ED9               	movwf	fsr2l,c
  1246   001890  6ADA               	clrf	fsr2h,c
  1247   001892  0E02               	movlw	2
  1248   001894  26D9               	addwf	fsr2l,f,c
  1249   001896  50DF               	movf	indf2,w,c
  1250   001898  6E60               	movwf	??_ADC_Init^0,c
  1251   00189A  4660               	rlncf	??_ADC_Init^0,f,c
  1252   00189C  4660               	rlncf	??_ADC_Init^0,f,c
  1253   00189E  4660               	rlncf	??_ADC_Init^0,f,c
  1254   0018A0  50C0               	movf	192,w,c	;volatile
  1255   0018A2  1860               	xorwf	??_ADC_Init^0,w,c
  1256   0018A4  0BC7               	andlw	-57
  1257   0018A6  1860               	xorwf	??_ADC_Init^0,w,c
  1258   0018A8  6EC0               	movwf	192,c	;volatile
  1259                           
  1260                           ;MCAL_Layer/ADC/adc.c: 42:         ADCON2bits.ADCS=_adc->conversion_clock;
  1261   0018AA  505F               	movf	ADC_Init@_adc^0,w,c
  1262   0018AC  6ED9               	movwf	fsr2l,c
  1263   0018AE  6ADA               	clrf	fsr2h,c
  1264   0018B0  0E03               	movlw	3
  1265   0018B2  26D9               	addwf	fsr2l,f,c
  1266   0018B4  50DF               	movf	indf2,w,c
  1267   0018B6  6E60               	movwf	??_ADC_Init^0,c
  1268   0018B8  50C0               	movf	192,w,c	;volatile
  1269   0018BA  1860               	xorwf	??_ADC_Init^0,w,c
  1270   0018BC  0BF8               	andlw	-8
  1271   0018BE  1860               	xorwf	??_ADC_Init^0,w,c
  1272   0018C0  6EC0               	movwf	192,c	;volatile
  1273                           
  1274                           ;MCAL_Layer/ADC/adc.c: 44:         ADCON0bits.CHS=_adc ->adc_channel;
  1275   0018C2  505F               	movf	ADC_Init@_adc^0,w,c
  1276   0018C4  6ED9               	movwf	fsr2l,c
  1277   0018C6  6ADA               	clrf	fsr2h,c
  1278   0018C8  0E04               	movlw	4
  1279   0018CA  26D9               	addwf	fsr2l,f,c
  1280   0018CC  50DF               	movf	indf2,w,c
  1281   0018CE  6E60               	movwf	??_ADC_Init^0,c
  1282   0018D0  4660               	rlncf	??_ADC_Init^0,f,c
  1283   0018D2  4660               	rlncf	??_ADC_Init^0,f,c
  1284   0018D4  50C2               	movf	194,w,c	;volatile
  1285   0018D6  1860               	xorwf	??_ADC_Init^0,w,c
  1286   0018D8  0BC3               	andlw	-61
  1287   0018DA  1860               	xorwf	??_ADC_Init^0,w,c
  1288   0018DC  6EC2               	movwf	194,c	;volatile
  1289   0018DE                     
  1290                           ;MCAL_Layer/ADC/adc.c: 45:         adc_input_channel_pin_configure(_adc->adc_channel);
  1291   0018DE  505F               	movf	ADC_Init@_adc^0,w,c
  1292   0018E0  6ED9               	movwf	fsr2l,c
  1293   0018E2  6ADA               	clrf	fsr2h,c
  1294   0018E4  0E04               	movlw	4
  1295   0018E6  26D9               	addwf	fsr2l,f,c
  1296   0018E8  50DF               	movf	indf2,w,c
  1297   0018EA  EC6F  F00B         	call	_adc_input_channel_pin_configure
  1298   0018EE                     
  1299                           ;MCAL_Layer/ADC/adc.c: 48:         (PIE1bits.ADIE = 1);
  1300   0018EE  8C9D               	bsf	157,6,c	;volatile
  1301   0018F0                     
  1302                           ;MCAL_Layer/ADC/adc.c: 49:         (INTCONbits.GIE = 1);
  1303   0018F0  8EF2               	bsf	242,7,c	;volatile
  1304   0018F2                     
  1305                           ;MCAL_Layer/ADC/adc.c: 50:         (INTCONbits.PEIE = 1);
  1306   0018F2  8CF2               	bsf	242,6,c	;volatile
  1307   0018F4                     
  1308                           ;MCAL_Layer/ADC/adc.c: 51:         (PIR1bits.ADIF = 0);
  1309   0018F4  9C9E               	bcf	158,6,c	;volatile
  1310   0018F6                     
  1311                           ;MCAL_Layer/ADC/adc.c: 52:         ADC_InterruptHandler =_adc ->ADC_InterruptHandler ;
  1312   0018F6  505F               	movf	ADC_Init@_adc^0,w,c
  1313   0018F8  6ED9               	movwf	fsr2l,c
  1314   0018FA  6ADA               	clrf	fsr2h,c
  1315   0018FC  CFDE F043          	movff	postinc2,_ADC_InterruptHandler
  1316   001900  CFDD F044          	movff	postdec2,_ADC_InterruptHandler+1
  1317   001904                     
  1318                           ;MCAL_Layer/ADC/adc.c: 59:         select_result_format(_adc);
  1319   001904  C05F  F05C         	movff	ADC_Init@_adc,select_result_format@_adc
  1320   001908  EC97  F00D         	call	_select_result_format	;wreg free
  1321   00190C                     
  1322                           ;MCAL_Layer/ADC/adc.c: 61:         configure_voltage_reference(_adc);
  1323   00190C  C05F  F05C         	movff	ADC_Init@_adc,configure_voltage_reference@_adc
  1324   001910  EC5B  F00D         	call	_configure_voltage_reference	;wreg free
  1325   001914                     
  1326                           ;MCAL_Layer/ADC/adc.c: 63:         (ADCON0bits.ADON =1);
  1327   001914  80C2               	bsf	194,0,c	;volatile
  1328   001916                     l2332:
  1329                           
  1330                           ;MCAL_Layer/ADC/adc.c: 65:     return ret ;
  1331   001916  5061               	movf	ADC_Init@ret^0,w,c
  1332   001918  0012               	return		;funcret
  1333   00191A                     __end_of_ADC_Init:
  1334                           	callstack 0
  1335                           
  1336 ;; *************** function _select_result_format *****************
  1337 ;; Defined at:
  1338 ;;		line 241 in file "MCAL_Layer/ADC/adc.c"
  1339 ;; Parameters:    Size  Location     Type
  1340 ;;  _adc            1   16[COMRAM] PTR const struct .
  1341 ;;		 -> adc1(6), 
  1342 ;; Auto vars:     Size  Location     Type
  1343 ;;		None
  1344 ;; Return value:  Size  Location     Type
  1345 ;;                  1    wreg      void 
  1346 ;; Registers used:
  1347 ;;		wreg, fsr2l, fsr2h, status,2, status,0
  1348 ;; Tracked objects:
  1349 ;;		On entry : 0/0
  1350 ;;		On exit  : 0/0
  1351 ;;		Unchanged: 0/0
  1352 ;; Data sizes:     COMRAM   BANK0   BANK1   BANK2   BANK3   BANK4   BANK5   BANK6   BANK7   BANK8   BANK9  BANK10  BANK1
      +1  BANK12  BANK13  BANK14  BANK15
  1353 ;;      Params:         1       0       0       0       0       0       0       0       0       0       0       0       
      +0       0       0       0       0
  1354 ;;      Locals:         0       0       0       0       0       0       0       0       0       0       0       0       
      +0       0       0       0       0
  1355 ;;      Temps:          0       0       0       0       0       0       0       0       0       0       0       0       
      +0       0       0       0       0
  1356 ;;      Totals:         1       0       0       0       0       0       0       0       0       0       0       0       
      +0       0       0       0       0
  1357 ;;Total ram usage:        1 bytes
  1358 ;; Hardware stack levels used: 1
  1359 ;; Hardware stack levels required when called: 5
  1360 ;; This function calls:
  1361 ;;		Nothing
  1362 ;; This function is called by:
  1363 ;;		_ADC_Init
  1364 ;; This function uses a non-reentrant model
  1365 ;;
  1366                           
  1367                           	psect	text7
  1368   001B2E                     __ptext7:
  1369                           	callstack 0
  1370   001B2E                     _select_result_format:
  1371                           	callstack 23
  1372   001B2E                     
  1373                           ;MCAL_Layer/ADC/adc.c: 242:     if(0x01U == _adc->result_format){
  1374   001B2E  505C               	movf	select_result_format@_adc^0,w,c
  1375   001B30  6ED9               	movwf	fsr2l,c
  1376   001B32  6ADA               	clrf	fsr2h,c
  1377   001B34  0E05               	movlw	5
  1378   001B36  26D9               	addwf	fsr2l,f,c
  1379   001B38  A2DF               	btfss	indf2,1,c
  1380   001B3A  EFA1  F00D         	goto	u1541
  1381   001B3E  EFA3  F00D         	goto	u1540
  1382   001B42                     u1541:
  1383   001B42  EFA6  F00D         	goto	l2266
  1384   001B46                     u1540:
  1385   001B46                     
  1386                           ;MCAL_Layer/ADC/adc.c: 243:         (ADCON2bits.ADFM=1);
  1387   001B46  8EC0               	bsf	192,7,c	;volatile
  1388                           
  1389                           ;MCAL_Layer/ADC/adc.c: 244:     }
  1390   001B48  EFB3  F00D         	goto	l156
  1391   001B4C                     l2266:
  1392   001B4C  505C               	movf	select_result_format@_adc^0,w,c
  1393   001B4E  6ED9               	movwf	fsr2l,c
  1394   001B50  6ADA               	clrf	fsr2h,c
  1395   001B52  0E05               	movlw	5
  1396   001B54  26D9               	addwf	fsr2l,f,c
  1397   001B56  B2DF               	btfsc	indf2,1,c
  1398   001B58  EFB0  F00D         	goto	u1551
  1399   001B5C  EFB2  F00D         	goto	u1550
  1400   001B60                     u1551:
  1401   001B60  EFB3  F00D         	goto	l156
  1402   001B64                     u1550:
  1403   001B64                     
  1404                           ;MCAL_Layer/ADC/adc.c: 246:         (ADCON2bits.ADFM=0);
  1405   001B64  9EC0               	bcf	192,7,c	;volatile
  1406   001B66                     l156:
  1407   001B66  0012               	return		;funcret
  1408   001B68                     __end_of_select_result_format:
  1409                           	callstack 0
  1410                           
  1411 ;; *************** function _configure_voltage_reference *****************
  1412 ;; Defined at:
  1413 ;;		line 251 in file "MCAL_Layer/ADC/adc.c"
  1414 ;; Parameters:    Size  Location     Type
  1415 ;;  _adc            1   16[COMRAM] PTR const struct .
  1416 ;;		 -> adc1(6), 
  1417 ;; Auto vars:     Size  Location     Type
  1418 ;;		None
  1419 ;; Return value:  Size  Location     Type
  1420 ;;                  1    wreg      void 
  1421 ;; Registers used:
  1422 ;;		wreg, fsr2l, fsr2h, status,2, status,0
  1423 ;; Tracked objects:
  1424 ;;		On entry : 0/0
  1425 ;;		On exit  : 0/0
  1426 ;;		Unchanged: 0/0
  1427 ;; Data sizes:     COMRAM   BANK0   BANK1   BANK2   BANK3   BANK4   BANK5   BANK6   BANK7   BANK8   BANK9  BANK10  BANK1
      +1  BANK12  BANK13  BANK14  BANK15
  1428 ;;      Params:         1       0       0       0       0       0       0       0       0       0       0       0       
      +0       0       0       0       0
  1429 ;;      Locals:         0       0       0       0       0       0       0       0       0       0       0       0       
      +0       0       0       0       0
  1430 ;;      Temps:          0       0       0       0       0       0       0       0       0       0       0       0       
      +0       0       0       0       0
  1431 ;;      Totals:         1       0       0       0       0       0       0       0       0       0       0       0       
      +0       0       0       0       0
  1432 ;;Total ram usage:        1 bytes
  1433 ;; Hardware stack levels used: 1
  1434 ;; Hardware stack levels required when called: 5
  1435 ;; This function calls:
  1436 ;;		Nothing
  1437 ;; This function is called by:
  1438 ;;		_ADC_Init
  1439 ;; This function uses a non-reentrant model
  1440 ;;
  1441                           
  1442                           	psect	text8
  1443   001AB6                     __ptext8:
  1444                           	callstack 0
  1445   001AB6                     _configure_voltage_reference:
  1446                           	callstack 23
  1447   001AB6                     
  1448                           ;MCAL_Layer/ADC/adc.c: 252:     if(0x01U==_adc->voltage_reference){
  1449   001AB6  505C               	movf	configure_voltage_reference@_adc^0,w,c
  1450   001AB8  6ED9               	movwf	fsr2l,c
  1451   001ABA  6ADA               	clrf	fsr2h,c
  1452   001ABC  0E05               	movlw	5
  1453   001ABE  26D9               	addwf	fsr2l,f,c
  1454   001AC0  A0DF               	btfss	indf2,0,c
  1455   001AC2  EF65  F00D         	goto	u1561
  1456   001AC6  EF67  F00D         	goto	u1560
  1457   001ACA                     u1561:
  1458   001ACA  EF6B  F00D         	goto	l2272
  1459   001ACE                     u1560:
  1460   001ACE  8AC1               	bsf	193,5,c	;volatile
  1461   001AD0  88C1               	bsf	193,4,c	;volatile
  1462   001AD2  EF79  F00D         	goto	l166
  1463   001AD6                     l2272:
  1464   001AD6  505C               	movf	configure_voltage_reference@_adc^0,w,c
  1465   001AD8  6ED9               	movwf	fsr2l,c
  1466   001ADA  6ADA               	clrf	fsr2h,c
  1467   001ADC  0E05               	movlw	5
  1468   001ADE  26D9               	addwf	fsr2l,f,c
  1469   001AE0  B0DF               	btfsc	indf2,0,c
  1470   001AE2  EF75  F00D         	goto	u1571
  1471   001AE6  EF77  F00D         	goto	u1570
  1472   001AEA                     u1571:
  1473   001AEA  EF79  F00D         	goto	l166
  1474   001AEE                     u1570:
  1475   001AEE  9AC1               	bcf	193,5,c	;volatile
  1476   001AF0  98C1               	bcf	193,4,c	;volatile
  1477   001AF2                     l166:
  1478   001AF2  0012               	return		;funcret
  1479   001AF4                     __end_of_configure_voltage_reference:
  1480                           	callstack 0
  1481                           
  1482 ;; *************** function _ADC_StartConversion_Interrupt *****************
  1483 ;; Defined at:
  1484 ;;		line 204 in file "MCAL_Layer/ADC/adc.c"
  1485 ;; Parameters:    Size  Location     Type
  1486 ;;  _adc            1   23[COMRAM] PTR const struct .
  1487 ;;		 -> adc1(6), 
  1488 ;;  channel         1   24[COMRAM] enum E3046
  1489 ;; Auto vars:     Size  Location     Type
  1490 ;;  ret             1   26[COMRAM] unsigned char 
  1491 ;;  l_conversion    1   25[COMRAM] unsigned char 
  1492 ;; Return value:  Size  Location     Type
  1493 ;;                  1    wreg      unsigned char 
  1494 ;; Registers used:
  1495 ;;		wreg, status,2, status,0, cstack
  1496 ;; Tracked objects:
  1497 ;;		On entry : 0/0
  1498 ;;		On exit  : 0/0
  1499 ;;		Unchanged: 0/0
  1500 ;; Data sizes:     COMRAM   BANK0   BANK1   BANK2   BANK3   BANK4   BANK5   BANK6   BANK7   BANK8   BANK9  BANK10  BANK1
      +1  BANK12  BANK13  BANK14  BANK15
  1501 ;;      Params:         2       0       0       0       0       0       0       0       0       0       0       0       
      +0       0       0       0       0
  1502 ;;      Locals:         2       0       0       0       0       0       0       0       0       0       0       0       
      +0       0       0       0       0
  1503 ;;      Temps:          0       0       0       0       0       0       0       0       0       0       0       0       
      +0       0       0       0       0
  1504 ;;      Totals:         4       0       0       0       0       0       0       0       0       0       0       0       
      +0       0       0       0       0
  1505 ;;Total ram usage:        4 bytes
  1506 ;; Hardware stack levels used: 1
  1507 ;; Hardware stack levels required when called: 7
  1508 ;; This function calls:
  1509 ;;		_ADC_SelectChannel
  1510 ;;		_ADC_StartConversion
  1511 ;; This function is called by:
  1512 ;;		_main
  1513 ;; This function uses a non-reentrant model
  1514 ;;
  1515                           
  1516                           	psect	text9
  1517   001B68                     __ptext9:
  1518                           	callstack 0
  1519   001B68                     _ADC_StartConversion_Interrupt:
  1520                           	callstack 23
  1521   001B68                     
  1522                           ;MCAL_Layer/ADC/adc.c: 206:   uint8 l_conversion_status = 0;
  1523   001B68  0E00               	movlw	0
  1524   001B6A  6E65               	movwf	ADC_StartConversion_Interrupt@l_conversion_status^0,c
  1525                           
  1526                           ;MCAL_Layer/ADC/adc.c: 207:   if(((void*)0) == _adc){
  1527   001B6C  5063               	movf	ADC_StartConversion_Interrupt@_adc^0,w,c
  1528   001B6E  A4D8               	btfss	status,2,c
  1529   001B70  EFBC  F00D         	goto	u1711
  1530   001B74  EFBE  F00D         	goto	u1710
  1531   001B78                     u1711:
  1532   001B78  EFC2  F00D         	goto	l2378
  1533   001B7C                     u1710:
  1534   001B7C                     
  1535                           ;MCAL_Layer/ADC/adc.c: 208:       ret = (Std_ReturnType)0x00;
  1536   001B7C  0E00               	movlw	0
  1537   001B7E  6E66               	movwf	ADC_StartConversion_Interrupt@ret^0,c
  1538                           
  1539                           ;MCAL_Layer/ADC/adc.c: 209:   }
  1540   001B80  EFCE  F00D         	goto	l2380
  1541   001B84                     l2378:
  1542                           
  1543                           ;MCAL_Layer/ADC/adc.c: 212:       ret = ADC_SelectChannel(_adc,channel);
  1544   001B84  C063  F05F         	movff	ADC_StartConversion_Interrupt@_adc,ADC_SelectChannel@_adc
  1545   001B88  C064  F060         	movff	ADC_StartConversion_Interrupt@channel,ADC_SelectChannel@channel
  1546   001B8C  ECD0  F00D         	call	_ADC_SelectChannel	;wreg free
  1547   001B90  6E66               	movwf	ADC_StartConversion_Interrupt@ret^0,c
  1548                           
  1549                           ;MCAL_Layer/ADC/adc.c: 214:       ret = ADC_StartConversion(_adc);
  1550   001B92  C063  F05C         	movff	ADC_StartConversion_Interrupt@_adc,ADC_StartConversion@_adc
  1551   001B96  EC2F  F00E         	call	_ADC_StartConversion	;wreg free
  1552   001B9A  6E66               	movwf	ADC_StartConversion_Interrupt@ret^0,c
  1553   001B9C                     l2380:
  1554                           
  1555                           ;MCAL_Layer/ADC/adc.c: 216:   return ret;
  1556   001B9C  5066               	movf	ADC_StartConversion_Interrupt@ret^0,w,c
  1557   001B9E  0012               	return		;funcret
  1558   001BA0                     __end_of_ADC_StartConversion_Interrupt:
  1559                           	callstack 0
  1560                           
  1561 ;; *************** function _ADC_StartConversion *****************
  1562 ;; Defined at:
  1563 ;;		line 117 in file "MCAL_Layer/ADC/adc.c"
  1564 ;; Parameters:    Size  Location     Type
  1565 ;;  _adc            1   16[COMRAM] PTR const struct .
  1566 ;;		 -> adc1(6), 
  1567 ;; Auto vars:     Size  Location     Type
  1568 ;;  ret             1   17[COMRAM] unsigned char 
  1569 ;; Return value:  Size  Location     Type
  1570 ;;                  1    wreg      unsigned char 
  1571 ;; Registers used:
  1572 ;;		wreg, status,2
  1573 ;; Tracked objects:
  1574 ;;		On entry : 0/0
  1575 ;;		On exit  : 0/0
  1576 ;;		Unchanged: 0/0
  1577 ;; Data sizes:     COMRAM   BANK0   BANK1   BANK2   BANK3   BANK4   BANK5   BANK6   BANK7   BANK8   BANK9  BANK10  BANK1
      +1  BANK12  BANK13  BANK14  BANK15
  1578 ;;      Params:         1       0       0       0       0       0       0       0       0       0       0       0       
      +0       0       0       0       0
  1579 ;;      Locals:         1       0       0       0       0       0       0       0       0       0       0       0       
      +0       0       0       0       0
  1580 ;;      Temps:          0       0       0       0       0       0       0       0       0       0       0       0       
      +0       0       0       0       0
  1581 ;;      Totals:         2       0       0       0       0       0       0       0       0       0       0       0       
      +0       0       0       0       0
  1582 ;;Total ram usage:        2 bytes
  1583 ;; Hardware stack levels used: 1
  1584 ;; Hardware stack levels required when called: 5
  1585 ;; This function calls:
  1586 ;;		Nothing
  1587 ;; This function is called by:
  1588 ;;		_ADC_StartConversion_Interrupt
  1589 ;;		_ADC_GetConversion_Blocking
  1590 ;; This function uses a non-reentrant model
  1591 ;;
  1592                           
  1593                           	psect	text10
  1594   001C5E                     __ptext10:
  1595                           	callstack 0
  1596   001C5E                     _ADC_StartConversion:
  1597                           	callstack 24
  1598   001C5E                     
  1599                           ;MCAL_Layer/ADC/adc.c: 118:     Std_ReturnType ret =(Std_ReturnType)0x01 ;
  1600   001C5E  0E01               	movlw	1
  1601   001C60  6E5D               	movwf	ADC_StartConversion@ret^0,c
  1602                           
  1603                           ;MCAL_Layer/ADC/adc.c: 119:     if(((void*)0) == _adc){
  1604   001C62  505C               	movf	ADC_StartConversion@_adc^0,w,c
  1605   001C64  A4D8               	btfss	status,2,c
  1606   001C66  EF37  F00E         	goto	u1671
  1607   001C6A  EF39  F00E         	goto	u1670
  1608   001C6E                     u1671:
  1609   001C6E  EF3D  F00E         	goto	l98
  1610   001C72                     u1670:
  1611   001C72                     
  1612                           ;MCAL_Layer/ADC/adc.c: 120:         ret = (Std_ReturnType)0x00;
  1613   001C72  0E00               	movlw	0
  1614   001C74  6E5D               	movwf	ADC_StartConversion@ret^0,c
  1615                           
  1616                           ;MCAL_Layer/ADC/adc.c: 121:     }else{
  1617   001C76  EF3E  F00E         	goto	l2352
  1618   001C7A                     l98:
  1619                           
  1620                           ;MCAL_Layer/ADC/adc.c: 122:         (ADCON0bits.GO_nDONE =1);
  1621   001C7A  82C2               	bsf	194,1,c	;volatile
  1622   001C7C                     l2352:
  1623                           
  1624                           ;MCAL_Layer/ADC/adc.c: 124:     return ret ;
  1625   001C7C  505D               	movf	ADC_StartConversion@ret^0,w,c
  1626   001C7E  0012               	return		;funcret
  1627   001C80                     __end_of_ADC_StartConversion:
  1628                           	callstack 0
  1629                           
  1630 ;; *************** function _ADC_SelectChannel *****************
  1631 ;; Defined at:
  1632 ;;		line 97 in file "MCAL_Layer/ADC/adc.c"
  1633 ;; Parameters:    Size  Location     Type
  1634 ;;  _adc            1   19[COMRAM] PTR const struct .
  1635 ;;		 -> adc1(6), 
  1636 ;;  channel         1   20[COMRAM] enum E3046
  1637 ;; Auto vars:     Size  Location     Type
  1638 ;;  ret             1   22[COMRAM] unsigned char 
  1639 ;; Return value:  Size  Location     Type
  1640 ;;                  1    wreg      unsigned char 
  1641 ;; Registers used:
  1642 ;;		wreg, status,2, status,0, cstack
  1643 ;; Tracked objects:
  1644 ;;		On entry : 0/0
  1645 ;;		On exit  : 0/0
  1646 ;;		Unchanged: 0/0
  1647 ;; Data sizes:     COMRAM   BANK0   BANK1   BANK2   BANK3   BANK4   BANK5   BANK6   BANK7   BANK8   BANK9  BANK10  BANK1
      +1  BANK12  BANK13  BANK14  BANK15
  1648 ;;      Params:         2       0       0       0       0       0       0       0       0       0       0       0       
      +0       0       0       0       0
  1649 ;;      Locals:         1       0       0       0       0       0       0       0       0       0       0       0       
      +0       0       0       0       0
  1650 ;;      Temps:          1       0       0       0       0       0       0       0       0       0       0       0       
      +0       0       0       0       0
  1651 ;;      Totals:         4       0       0       0       0       0       0       0       0       0       0       0       
      +0       0       0       0       0
  1652 ;;Total ram usage:        4 bytes
  1653 ;; Hardware stack levels used: 1
  1654 ;; Hardware stack levels required when called: 6
  1655 ;; This function calls:
  1656 ;;		_adc_input_channel_pin_configure
  1657 ;; This function is called by:
  1658 ;;		_ADC_StartConversion_Interrupt
  1659 ;;		_ADC_GetConversion_Blocking
  1660 ;; This function uses a non-reentrant model
  1661 ;;
  1662                           
  1663                           	psect	text11
  1664   001BA0                     __ptext11:
  1665                           	callstack 0
  1666   001BA0                     _ADC_SelectChannel:
  1667                           	callstack 23
  1668   001BA0                     
  1669                           ;MCAL_Layer/ADC/adc.c: 98:     Std_ReturnType ret =(Std_ReturnType)0x01 ;
  1670   001BA0  0E01               	movlw	1
  1671   001BA2  6E62               	movwf	ADC_SelectChannel@ret^0,c
  1672                           
  1673                           ;MCAL_Layer/ADC/adc.c: 99:     if(((void*)0) == _adc){
  1674   001BA4  505F               	movf	ADC_SelectChannel@_adc^0,w,c
  1675   001BA6  A4D8               	btfss	status,2,c
  1676   001BA8  EFD8  F00D         	goto	u1661
  1677   001BAC  EFDA  F00D         	goto	u1660
  1678   001BB0                     u1661:
  1679   001BB0  EFDE  F00D         	goto	l2340
  1680   001BB4                     u1660:
  1681   001BB4                     
  1682                           ;MCAL_Layer/ADC/adc.c: 100:         ret = (Std_ReturnType)0x00;
  1683   001BB4  0E00               	movlw	0
  1684   001BB6  6E62               	movwf	ADC_SelectChannel@ret^0,c
  1685                           
  1686                           ;MCAL_Layer/ADC/adc.c: 101:     }else{
  1687   001BB8  EFEA  F00D         	goto	l2344
  1688   001BBC                     l2340:
  1689                           
  1690                           ;MCAL_Layer/ADC/adc.c: 102:         ADCON0bits.CHS=channel;
  1691   001BBC  C060  F061         	movff	ADC_SelectChannel@channel,??_ADC_SelectChannel
  1692   001BC0  4661               	rlncf	??_ADC_SelectChannel^0,f,c
  1693   001BC2  4661               	rlncf	??_ADC_SelectChannel^0,f,c
  1694   001BC4  50C2               	movf	194,w,c	;volatile
  1695   001BC6  1861               	xorwf	??_ADC_SelectChannel^0,w,c
  1696   001BC8  0BC3               	andlw	-61
  1697   001BCA  1861               	xorwf	??_ADC_SelectChannel^0,w,c
  1698   001BCC  6EC2               	movwf	194,c	;volatile
  1699   001BCE                     
  1700                           ;MCAL_Layer/ADC/adc.c: 103:         adc_input_channel_pin_configure(channel);
  1701   001BCE  5060               	movf	ADC_SelectChannel@channel^0,w,c
  1702   001BD0  EC6F  F00B         	call	_adc_input_channel_pin_configure
  1703   001BD4                     l2344:
  1704                           
  1705                           ;MCAL_Layer/ADC/adc.c: 105:     return ret ;
  1706   001BD4  5062               	movf	ADC_SelectChannel@ret^0,w,c
  1707   001BD6  0012               	return		;funcret
  1708   001BD8                     __end_of_ADC_SelectChannel:
  1709                           	callstack 0
  1710                           
  1711 ;; *************** function _adc_input_channel_pin_configure *****************
  1712 ;; Defined at:
  1713 ;;		line 222 in file "MCAL_Layer/ADC/adc.c"
  1714 ;; Parameters:    Size  Location     Type
  1715 ;;  channel         1    wreg     enum E3046
  1716 ;; Auto vars:     Size  Location     Type
  1717 ;;  channel         1   18[COMRAM] enum E3046
  1718 ;; Return value:  Size  Location     Type
  1719 ;;                  1    wreg      void 
  1720 ;; Registers used:
  1721 ;;		wreg, status,2, status,0
  1722 ;; Tracked objects:
  1723 ;;		On entry : 0/0
  1724 ;;		On exit  : 0/0
  1725 ;;		Unchanged: 0/0
  1726 ;; Data sizes:     COMRAM   BANK0   BANK1   BANK2   BANK3   BANK4   BANK5   BANK6   BANK7   BANK8   BANK9  BANK10  BANK1
      +1  BANK12  BANK13  BANK14  BANK15
  1727 ;;      Params:         0       0       0       0       0       0       0       0       0       0       0       0       
      +0       0       0       0       0
  1728 ;;      Locals:         1       0       0       0       0       0       0       0       0       0       0       0       
      +0       0       0       0       0
  1729 ;;      Temps:          2       0       0       0       0       0       0       0       0       0       0       0       
      +0       0       0       0       0
  1730 ;;      Totals:         3       0       0       0       0       0       0       0       0       0       0       0       
      +0       0       0       0       0
  1731 ;;Total ram usage:        3 bytes
  1732 ;; Hardware stack levels used: 1
  1733 ;; Hardware stack levels required when called: 5
  1734 ;; This function calls:
  1735 ;;		Nothing
  1736 ;; This function is called by:
  1737 ;;		_ADC_Init
  1738 ;;		_ADC_SelectChannel
  1739 ;; This function uses a non-reentrant model
  1740 ;;
  1741                           
  1742                           	psect	text12
  1743   0016DE                     __ptext12:
  1744                           	callstack 0
  1745   0016DE                     _adc_input_channel_pin_configure:
  1746                           	callstack 23
  1747                           
  1748                           ;incstack = 0
  1749                           ;adc_input_channel_pin_configure@channel stored from wreg
  1750   0016DE  6E5E               	movwf	adc_input_channel_pin_configure@channel^0,c
  1751   0016E0                     
  1752                           ;MCAL_Layer/ADC/adc.c: 223:     switch(channel){
  1753   0016E0  EF99  F00B         	goto	l1432
  1754   0016E4                     l1404:
  1755   0016E4  8092               	bsf	146,0,c	;volatile
  1756   0016E6  EFDA  F00B         	goto	l150
  1757   0016EA                     l1406:
  1758   0016EA  8292               	bsf	146,1,c	;volatile
  1759   0016EC  EFDA  F00B         	goto	l150
  1760   0016F0                     l1408:
  1761   0016F0  8492               	bsf	146,2,c	;volatile
  1762   0016F2  EFDA  F00B         	goto	l150
  1763   0016F6                     l1410:
  1764   0016F6  8692               	bsf	146,3,c	;volatile
  1765   0016F8  EFDA  F00B         	goto	l150
  1766   0016FC                     l1412:
  1767   0016FC  8A92               	bsf	146,5,c	;volatile
  1768   0016FE  EFDA  F00B         	goto	l150
  1769   001702                     l1414:
  1770   001702  8096               	bsf	150,0,c	;volatile
  1771   001704  EFDA  F00B         	goto	l150
  1772   001708                     l1416:
  1773   001708  8296               	bsf	150,1,c	;volatile
  1774   00170A  EFDA  F00B         	goto	l150
  1775   00170E                     l1418:
  1776   00170E  8496               	bsf	150,2,c	;volatile
  1777   001710  EFDA  F00B         	goto	l150
  1778   001714                     l1420:
  1779   001714  8493               	bsf	147,2,c	;volatile
  1780   001716  EFDA  F00B         	goto	l150
  1781   00171A                     l1422:
  1782   00171A  8693               	bsf	147,3,c	;volatile
  1783   00171C  EFDA  F00B         	goto	l150
  1784   001720                     l1424:
  1785   001720  8293               	bsf	147,1,c	;volatile
  1786   001722  EFDA  F00B         	goto	l150
  1787   001726                     l1426:
  1788   001726  8893               	bsf	147,4,c	;volatile
  1789   001728  EFDA  F00B         	goto	l150
  1790   00172C                     l1428:
  1791   00172C  8093               	bsf	147,0,c	;volatile
  1792   00172E  EFDA  F00B         	goto	l150
  1793   001732                     l1432:
  1794   001732  505E               	movf	adc_input_channel_pin_configure@channel^0,w,c
  1795   001734  6E5C               	movwf	??_adc_input_channel_pin_configure^0,c
  1796   001736  6A5D               	clrf	(??_adc_input_channel_pin_configure+1)^0,c
  1797                           
  1798                           ; Switch on 2 bytes has been partitioned into a top level switch of size 1, and 1 sub-sw
      +                          itches
  1799                           ; Switch size 1, requested type "simple"
  1800                           ; Number of cases is 1, Range of values is 0 to 0
  1801                           ; switch strategies available:
  1802                           ; Name         Instructions Cycles
  1803                           ; simple_byte            4     3 (average)
  1804                           ;	Chosen strategy is simple_byte
  1805   001738  505D               	movf	(??_adc_input_channel_pin_configure+1)^0,w,c
  1806   00173A  0A00               	xorlw	0	; case 0
  1807   00173C  B4D8               	btfsc	status,2,c
  1808   00173E  EFA3  F00B         	goto	l2612
  1809   001742  EFDA  F00B         	goto	l150
  1810   001746                     l2612:
  1811                           
  1812                           ; Switch size 1, requested type "simple"
  1813                           ; Number of cases is 13, Range of values is 0 to 12
  1814                           ; switch strategies available:
  1815                           ; Name         Instructions Cycles
  1816                           ; simple_byte           40    21 (average)
  1817                           ;	Chosen strategy is simple_byte
  1818   001746  505C               	movf	??_adc_input_channel_pin_configure^0,w,c
  1819   001748  0A00               	xorlw	0	; case 0
  1820   00174A  B4D8               	btfsc	status,2,c
  1821   00174C  EF72  F00B         	goto	l1404
  1822   001750  0A01               	xorlw	1	; case 1
  1823   001752  B4D8               	btfsc	status,2,c
  1824   001754  EF75  F00B         	goto	l1406
  1825   001758  0A03               	xorlw	3	; case 2
  1826   00175A  B4D8               	btfsc	status,2,c
  1827   00175C  EF78  F00B         	goto	l1408
  1828   001760  0A01               	xorlw	1	; case 3
  1829   001762  B4D8               	btfsc	status,2,c
  1830   001764  EF7B  F00B         	goto	l1410
  1831   001768  0A07               	xorlw	7	; case 4
  1832   00176A  B4D8               	btfsc	status,2,c
  1833   00176C  EF7E  F00B         	goto	l1412
  1834   001770  0A01               	xorlw	1	; case 5
  1835   001772  B4D8               	btfsc	status,2,c
  1836   001774  EF81  F00B         	goto	l1414
  1837   001778  0A03               	xorlw	3	; case 6
  1838   00177A  B4D8               	btfsc	status,2,c
  1839   00177C  EF84  F00B         	goto	l1416
  1840   001780  0A01               	xorlw	1	; case 7
  1841   001782  B4D8               	btfsc	status,2,c
  1842   001784  EF87  F00B         	goto	l1418
  1843   001788  0A0F               	xorlw	15	; case 8
  1844   00178A  B4D8               	btfsc	status,2,c
  1845   00178C  EF8A  F00B         	goto	l1420
  1846   001790  0A01               	xorlw	1	; case 9
  1847   001792  B4D8               	btfsc	status,2,c
  1848   001794  EF8D  F00B         	goto	l1422
  1849   001798  0A03               	xorlw	3	; case 10
  1850   00179A  B4D8               	btfsc	status,2,c
  1851   00179C  EF90  F00B         	goto	l1424
  1852   0017A0  0A01               	xorlw	1	; case 11
  1853   0017A2  B4D8               	btfsc	status,2,c
  1854   0017A4  EF93  F00B         	goto	l1426
  1855   0017A8  0A07               	xorlw	7	; case 12
  1856   0017AA  B4D8               	btfsc	status,2,c
  1857   0017AC  EF96  F00B         	goto	l1428
  1858   0017B0  EFDA  F00B         	goto	l150
  1859   0017B4                     l150:
  1860   0017B4  0012               	return		;funcret
  1861   0017B6                     __end_of_adc_input_channel_pin_configure:
  1862                           	callstack 0
  1863                           
  1864 ;; *************** function _InterruptManager *****************
  1865 ;; Defined at:
  1866 ;;		line 27 in file "MCAL_Layer/Interrupt/Interrupt_manager.c"
  1867 ;; Parameters:    Size  Location     Type
  1868 ;;		None
  1869 ;; Auto vars:     Size  Location     Type
  1870 ;;		None
  1871 ;; Return value:  Size  Location     Type
  1872 ;;                  1    wreg      void 
  1873 ;; Registers used:
  1874 ;;		wreg, fsr2l, fsr2h, status,2, status,0, pcl, pclath, pclatu, tosl, prodl, prodh, cstack
  1875 ;; Tracked objects:
  1876 ;;		On entry : 0/0
  1877 ;;		On exit  : 0/0
  1878 ;;		Unchanged: 0/0
  1879 ;; Data sizes:     COMRAM   BANK0   BANK1   BANK2   BANK3   BANK4   BANK5   BANK6   BANK7   BANK8   BANK9  BANK10  BANK1
      +1  BANK12  BANK13  BANK14  BANK15
  1880 ;;      Params:         0       0       0       0       0       0       0       0       0       0       0       0       
      +0       0       0       0       0
  1881 ;;      Locals:         0       0       0       0       0       0       0       0       0       0       0       0       
      +0       0       0       0       0
  1882 ;;      Temps:          6       0       0       0       0       0       0       0       0       0       0       0       
      +0       0       0       0       0
  1883 ;;      Totals:         6       0       0       0       0       0       0       0       0       0       0       0       
      +0       0       0       0       0
  1884 ;;Total ram usage:        6 bytes
  1885 ;; Hardware stack levels used: 1
  1886 ;; Hardware stack levels required when called: 4
  1887 ;; This function calls:
  1888 ;;		_ADC_ISR
  1889 ;;		_INT0_ISR
  1890 ;;		_INT1_ISR
  1891 ;;		_INT2_ISR
  1892 ;;		_RB4_ISR
  1893 ;;		_RB5_ISR
  1894 ;;		_RB6_ISR
  1895 ;;		_RB7_ISR
  1896 ;; This function is called by:
  1897 ;;		Interrupt level 2
  1898 ;; This function uses a non-reentrant model
  1899 ;;
  1900                           
  1901                           	psect	intcode
  1902   000008                     __pintcode:
  1903                           	callstack 0
  1904   000008                     _InterruptManager:
  1905                           	callstack 22
  1906                           
  1907                           ;incstack = 0
  1908   000008  826B               	bsf	int$flags,1,c	;set compiler interrupt flag (level 2)
  1909   00000A  ED01  F008         	call	int_func,f	;refresh shadow registers
  1910                           
  1911                           	psect	intcode_body
  1912   001002                     __pintcode_body:
  1913                           	callstack 22
  1914   001002                     int_func:
  1915                           	callstack 22
  1916   001002  0006               	pop		; remove dummy address from shadow register refresh
  1917   001004  CFFA F056          	movff	pclath,??_InterruptManager
  1918   001008  CFFB F057          	movff	pclatu,??_InterruptManager+1
  1919   00100C  CFD9 F058          	movff	fsr2l,??_InterruptManager+2
  1920   001010  CFDA F059          	movff	fsr2h,??_InterruptManager+3
  1921   001014  CFF3 F05A          	movff	prodl,??_InterruptManager+4
  1922   001018  CFF4 F05B          	movff	prodh,??_InterruptManager+5
  1923   00101C                     
  1924                           ;MCAL_Layer/Interrupt/Interrupt_manager.c: 28:     if((INTCONbits.INT0IE == 1) && (INTCO
      +                          Nbits.INT0IF == 1) ){
  1925   00101C  A8F2               	btfss	242,4,c	;volatile
  1926   00101E  EF13  F008         	goto	i2u177_41
  1927   001022  EF15  F008         	goto	i2u177_40
  1928   001026                     i2u177_41:
  1929   001026  EF1E  F008         	goto	i2l350
  1930   00102A                     i2u177_40:
  1931   00102A  A2F2               	btfss	242,1,c	;volatile
  1932   00102C  EF1A  F008         	goto	i2u178_41
  1933   001030  EF1C  F008         	goto	i2u178_40
  1934   001034                     i2u178_41:
  1935   001034  EF1E  F008         	goto	i2l350
  1936   001038                     i2u178_40:
  1937   001038                     
  1938                           ;MCAL_Layer/Interrupt/Interrupt_manager.c: 29:        INT0_ISR();
  1939   001038  EC84  F00E         	call	_INT0_ISR	;wreg free
  1940   00103C                     i2l350:
  1941                           
  1942                           ;MCAL_Layer/Interrupt/Interrupt_manager.c: 31:     if((INTCON3bits.INT1IE == 1) && (INTC
      +                          ON3bits.INT1IF == 1) ){
  1943   00103C  A6F0               	btfss	240,3,c	;volatile
  1944   00103E  EF23  F008         	goto	i2u179_41
  1945   001042  EF25  F008         	goto	i2u179_40
  1946   001046                     i2u179_41:
  1947   001046  EF2E  F008         	goto	i2l352
  1948   00104A                     i2u179_40:
  1949   00104A  A0F0               	btfss	240,0,c	;volatile
  1950   00104C  EF2A  F008         	goto	i2u180_41
  1951   001050  EF2C  F008         	goto	i2u180_40
  1952   001054                     i2u180_41:
  1953   001054  EF2E  F008         	goto	i2l352
  1954   001058                     i2u180_40:
  1955   001058                     
  1956                           ;MCAL_Layer/Interrupt/Interrupt_manager.c: 32:        INT1_ISR();
  1957   001058  EC82  F00E         	call	_INT1_ISR	;wreg free
  1958   00105C                     i2l352:
  1959                           
  1960                           ;MCAL_Layer/Interrupt/Interrupt_manager.c: 34:     if((INTCON3bits.INT2IE == 1) && (INTC
      +                          ON3bits.INT2IF == 1) ){
  1961   00105C  A8F0               	btfss	240,4,c	;volatile
  1962   00105E  EF33  F008         	goto	i2u181_41
  1963   001062  EF35  F008         	goto	i2u181_40
  1964   001066                     i2u181_41:
  1965   001066  EF3E  F008         	goto	i2l354
  1966   00106A                     i2u181_40:
  1967   00106A  A2F0               	btfss	240,1,c	;volatile
  1968   00106C  EF3A  F008         	goto	i2u182_41
  1969   001070  EF3C  F008         	goto	i2u182_40
  1970   001074                     i2u182_41:
  1971   001074  EF3E  F008         	goto	i2l354
  1972   001078                     i2u182_40:
  1973   001078                     
  1974                           ;MCAL_Layer/Interrupt/Interrupt_manager.c: 35:        INT2_ISR();
  1975   001078  EC80  F00E         	call	_INT2_ISR	;wreg free
  1976   00107C                     i2l354:
  1977                           
  1978                           ;MCAL_Layer/Interrupt/Interrupt_manager.c: 37:     if((INTCONbits.RBIE == 1) && (INTCONb
      +                          its.RBIF == 1) && (PORTBbits.RB4 == GPIO_HIGH) && (RB4_Flag == 1)){
  1979   00107C  A6F2               	btfss	242,3,c	;volatile
  1980   00107E  EF43  F008         	goto	i2u183_41
  1981   001082  EF45  F008         	goto	i2u183_40
  1982   001086                     i2u183_41:
  1983   001086  EF60  F008         	goto	i2l356
  1984   00108A                     i2u183_40:
  1985   00108A  A0F2               	btfss	242,0,c	;volatile
  1986   00108C  EF4A  F008         	goto	i2u184_41
  1987   001090  EF4C  F008         	goto	i2u184_40
  1988   001094                     i2u184_41:
  1989   001094  EF60  F008         	goto	i2l356
  1990   001098                     i2u184_40:
  1991   001098  A881               	btfss	129,4,c	;volatile
  1992   00109A  EF51  F008         	goto	i2u185_41
  1993   00109E  EF53  F008         	goto	i2u185_40
  1994   0010A2                     i2u185_41:
  1995   0010A2  EF60  F008         	goto	i2l356
  1996   0010A6                     i2u185_40:
  1997   0010A6  0422               	decf	_RB4_Flag^0,w,c	;volatile
  1998   0010A8  A4D8               	btfss	status,2,c
  1999   0010AA  EF59  F008         	goto	i2u186_41
  2000   0010AE  EF5B  F008         	goto	i2u186_40
  2001   0010B2                     i2u186_41:
  2002   0010B2  EF60  F008         	goto	i2l356
  2003   0010B6                     i2u186_40:
  2004   0010B6                     
  2005                           ;MCAL_Layer/Interrupt/Interrupt_manager.c: 38:        RB4_Flag = 0;
  2006   0010B6  0E00               	movlw	0
  2007   0010B8  6E22               	movwf	_RB4_Flag^0,c	;volatile
  2008   0010BA                     
  2009                           ;MCAL_Layer/Interrupt/Interrupt_manager.c: 39:        RB4_ISR(1);
  2010   0010BA  0E01               	movlw	1
  2011   0010BC  EC67  F00E         	call	_RB4_ISR
  2012   0010C0                     i2l356:
  2013                           
  2014                           ;MCAL_Layer/Interrupt/Interrupt_manager.c: 41:     if((INTCONbits.RBIE == 1) && (INTCONb
      +                          its.RBIF == 1) && (PORTBbits.RB4 == GPIO_LOW) && (RB4_Flag == 0)){
  2015   0010C0  A6F2               	btfss	242,3,c	;volatile
  2016   0010C2  EF65  F008         	goto	i2u187_41
  2017   0010C6  EF67  F008         	goto	i2u187_40
  2018   0010CA                     i2u187_41:
  2019   0010CA  EF82  F008         	goto	i2l358
  2020   0010CE                     i2u187_40:
  2021   0010CE  A0F2               	btfss	242,0,c	;volatile
  2022   0010D0  EF6C  F008         	goto	i2u188_41
  2023   0010D4  EF6E  F008         	goto	i2u188_40
  2024   0010D8                     i2u188_41:
  2025   0010D8  EF82  F008         	goto	i2l358
  2026   0010DC                     i2u188_40:
  2027   0010DC  B881               	btfsc	129,4,c	;volatile
  2028   0010DE  EF73  F008         	goto	i2u189_41
  2029   0010E2  EF75  F008         	goto	i2u189_40
  2030   0010E6                     i2u189_41:
  2031   0010E6  EF82  F008         	goto	i2l358
  2032   0010EA                     i2u189_40:
  2033   0010EA  5022               	movf	_RB4_Flag^0,w,c	;volatile
  2034   0010EC  A4D8               	btfss	status,2,c
  2035   0010EE  EF7B  F008         	goto	i2u190_41
  2036   0010F2  EF7D  F008         	goto	i2u190_40
  2037   0010F6                     i2u190_41:
  2038   0010F6  EF82  F008         	goto	i2l358
  2039   0010FA                     i2u190_40:
  2040   0010FA                     
  2041                           ;MCAL_Layer/Interrupt/Interrupt_manager.c: 42:         RB4_Flag = 1;
  2042   0010FA  0E01               	movlw	1
  2043   0010FC  6E22               	movwf	_RB4_Flag^0,c	;volatile
  2044   0010FE                     
  2045                           ;MCAL_Layer/Interrupt/Interrupt_manager.c: 43:         RB4_ISR(0);
  2046   0010FE  0E00               	movlw	0
  2047   001100  EC67  F00E         	call	_RB4_ISR
  2048   001104                     i2l358:
  2049                           
  2050                           ;MCAL_Layer/Interrupt/Interrupt_manager.c: 45:     if((INTCONbits.RBIE == 1) && (INTCONb
      +                          its.RBIF == 1) && (PORTBbits.RB5 == GPIO_HIGH) && (RB5_Flag == 1)){
  2051   001104  A6F2               	btfss	242,3,c	;volatile
  2052   001106  EF87  F008         	goto	i2u191_41
  2053   00110A  EF89  F008         	goto	i2u191_40
  2054   00110E                     i2u191_41:
  2055   00110E  EFA4  F008         	goto	i2l360
  2056   001112                     i2u191_40:
  2057   001112  A0F2               	btfss	242,0,c	;volatile
  2058   001114  EF8E  F008         	goto	i2u192_41
  2059   001118  EF90  F008         	goto	i2u192_40
  2060   00111C                     i2u192_41:
  2061   00111C  EFA4  F008         	goto	i2l360
  2062   001120                     i2u192_40:
  2063   001120  AA81               	btfss	129,5,c	;volatile
  2064   001122  EF95  F008         	goto	i2u193_41
  2065   001126  EF97  F008         	goto	i2u193_40
  2066   00112A                     i2u193_41:
  2067   00112A  EFA4  F008         	goto	i2l360
  2068   00112E                     i2u193_40:
  2069   00112E  0421               	decf	_RB5_Flag^0,w,c	;volatile
  2070   001130  A4D8               	btfss	status,2,c
  2071   001132  EF9D  F008         	goto	i2u194_41
  2072   001136  EF9F  F008         	goto	i2u194_40
  2073   00113A                     i2u194_41:
  2074   00113A  EFA4  F008         	goto	i2l360
  2075   00113E                     i2u194_40:
  2076   00113E                     
  2077                           ;MCAL_Layer/Interrupt/Interrupt_manager.c: 46:         RB5_Flag = 0;
  2078   00113E  0E00               	movlw	0
  2079   001140  6E21               	movwf	_RB5_Flag^0,c	;volatile
  2080   001142                     
  2081                           ;MCAL_Layer/Interrupt/Interrupt_manager.c: 47:         RB5_ISR(1);
  2082   001142  0E01               	movlw	1
  2083   001144  EC5A  F00E         	call	_RB5_ISR
  2084   001148                     i2l360:
  2085                           
  2086                           ;MCAL_Layer/Interrupt/Interrupt_manager.c: 49:     if((INTCONbits.RBIE == 1) && (INTCONb
      +                          its.RBIF == 1) && (PORTBbits.RB5 == GPIO_LOW) && (RB5_Flag == 0)){
  2087   001148  A6F2               	btfss	242,3,c	;volatile
  2088   00114A  EFA9  F008         	goto	i2u195_41
  2089   00114E  EFAB  F008         	goto	i2u195_40
  2090   001152                     i2u195_41:
  2091   001152  EFC6  F008         	goto	i2l362
  2092   001156                     i2u195_40:
  2093   001156  A0F2               	btfss	242,0,c	;volatile
  2094   001158  EFB0  F008         	goto	i2u196_41
  2095   00115C  EFB2  F008         	goto	i2u196_40
  2096   001160                     i2u196_41:
  2097   001160  EFC6  F008         	goto	i2l362
  2098   001164                     i2u196_40:
  2099   001164  BA81               	btfsc	129,5,c	;volatile
  2100   001166  EFB7  F008         	goto	i2u197_41
  2101   00116A  EFB9  F008         	goto	i2u197_40
  2102   00116E                     i2u197_41:
  2103   00116E  EFC6  F008         	goto	i2l362
  2104   001172                     i2u197_40:
  2105   001172  5021               	movf	_RB5_Flag^0,w,c	;volatile
  2106   001174  A4D8               	btfss	status,2,c
  2107   001176  EFBF  F008         	goto	i2u198_41
  2108   00117A  EFC1  F008         	goto	i2u198_40
  2109   00117E                     i2u198_41:
  2110   00117E  EFC6  F008         	goto	i2l362
  2111   001182                     i2u198_40:
  2112   001182                     
  2113                           ;MCAL_Layer/Interrupt/Interrupt_manager.c: 50:         RB5_Flag = 1;
  2114   001182  0E01               	movlw	1
  2115   001184  6E21               	movwf	_RB5_Flag^0,c	;volatile
  2116   001186                     
  2117                           ;MCAL_Layer/Interrupt/Interrupt_manager.c: 51:         RB5_ISR(0);
  2118   001186  0E00               	movlw	0
  2119   001188  EC5A  F00E         	call	_RB5_ISR
  2120   00118C                     i2l362:
  2121                           
  2122                           ;MCAL_Layer/Interrupt/Interrupt_manager.c: 53:     if((INTCONbits.RBIE == 1) && (INTCONb
      +                          its.RBIF == 1) && (PORTBbits.RB6 == GPIO_HIGH) && (RB6_Flag == 1)){
  2123   00118C  A6F2               	btfss	242,3,c	;volatile
  2124   00118E  EFCB  F008         	goto	i2u199_41
  2125   001192  EFCD  F008         	goto	i2u199_40
  2126   001196                     i2u199_41:
  2127   001196  EFE8  F008         	goto	i2l364
  2128   00119A                     i2u199_40:
  2129   00119A  A0F2               	btfss	242,0,c	;volatile
  2130   00119C  EFD2  F008         	goto	i2u200_41
  2131   0011A0  EFD4  F008         	goto	i2u200_40
  2132   0011A4                     i2u200_41:
  2133   0011A4  EFE8  F008         	goto	i2l364
  2134   0011A8                     i2u200_40:
  2135   0011A8  AC81               	btfss	129,6,c	;volatile
  2136   0011AA  EFD9  F008         	goto	i2u201_41
  2137   0011AE  EFDB  F008         	goto	i2u201_40
  2138   0011B2                     i2u201_41:
  2139   0011B2  EFE8  F008         	goto	i2l364
  2140   0011B6                     i2u201_40:
  2141   0011B6  0420               	decf	_RB6_Flag^0,w,c	;volatile
  2142   0011B8  A4D8               	btfss	status,2,c
  2143   0011BA  EFE1  F008         	goto	i2u202_41
  2144   0011BE  EFE3  F008         	goto	i2u202_40
  2145   0011C2                     i2u202_41:
  2146   0011C2  EFE8  F008         	goto	i2l364
  2147   0011C6                     i2u202_40:
  2148   0011C6                     
  2149                           ;MCAL_Layer/Interrupt/Interrupt_manager.c: 54:        RB6_Flag = 0;
  2150   0011C6  0E00               	movlw	0
  2151   0011C8  6E20               	movwf	_RB6_Flag^0,c	;volatile
  2152   0011CA                     
  2153                           ;MCAL_Layer/Interrupt/Interrupt_manager.c: 55:        RB6_ISR(1);
  2154   0011CA  0E01               	movlw	1
  2155   0011CC  EC4D  F00E         	call	_RB6_ISR
  2156   0011D0                     i2l364:
  2157                           
  2158                           ;MCAL_Layer/Interrupt/Interrupt_manager.c: 57:     if((INTCONbits.RBIE == 1) && (INTCONb
      +                          its.RBIF == 1) && (PORTBbits.RB6 == GPIO_LOW) && (RB6_Flag == 0)){
  2159   0011D0  A6F2               	btfss	242,3,c	;volatile
  2160   0011D2  EFED  F008         	goto	i2u203_41
  2161   0011D6  EFEF  F008         	goto	i2u203_40
  2162   0011DA                     i2u203_41:
  2163   0011DA  EF0A  F009         	goto	i2l366
  2164   0011DE                     i2u203_40:
  2165   0011DE  A0F2               	btfss	242,0,c	;volatile
  2166   0011E0  EFF4  F008         	goto	i2u204_41
  2167   0011E4  EFF6  F008         	goto	i2u204_40
  2168   0011E8                     i2u204_41:
  2169   0011E8  EF0A  F009         	goto	i2l366
  2170   0011EC                     i2u204_40:
  2171   0011EC  BC81               	btfsc	129,6,c	;volatile
  2172   0011EE  EFFB  F008         	goto	i2u205_41
  2173   0011F2  EFFD  F008         	goto	i2u205_40
  2174   0011F6                     i2u205_41:
  2175   0011F6  EF0A  F009         	goto	i2l366
  2176   0011FA                     i2u205_40:
  2177   0011FA  5020               	movf	_RB6_Flag^0,w,c	;volatile
  2178   0011FC  A4D8               	btfss	status,2,c
  2179   0011FE  EF03  F009         	goto	i2u206_41
  2180   001202  EF05  F009         	goto	i2u206_40
  2181   001206                     i2u206_41:
  2182   001206  EF0A  F009         	goto	i2l366
  2183   00120A                     i2u206_40:
  2184   00120A                     
  2185                           ;MCAL_Layer/Interrupt/Interrupt_manager.c: 58:         RB6_Flag = 1;
  2186   00120A  0E01               	movlw	1
  2187   00120C  6E20               	movwf	_RB6_Flag^0,c	;volatile
  2188   00120E                     
  2189                           ;MCAL_Layer/Interrupt/Interrupt_manager.c: 59:         RB6_ISR(0);
  2190   00120E  0E00               	movlw	0
  2191   001210  EC4D  F00E         	call	_RB6_ISR
  2192   001214                     i2l366:
  2193                           
  2194                           ;MCAL_Layer/Interrupt/Interrupt_manager.c: 61:     if((INTCONbits.RBIE == 1) && (INTCONb
      +                          its.RBIF == 1) && (PORTBbits.RB7 == GPIO_HIGH) && (RB7_Flag == 1)){
  2195   001214  A6F2               	btfss	242,3,c	;volatile
  2196   001216  EF0F  F009         	goto	i2u207_41
  2197   00121A  EF11  F009         	goto	i2u207_40
  2198   00121E                     i2u207_41:
  2199   00121E  EF2C  F009         	goto	i2l368
  2200   001222                     i2u207_40:
  2201   001222  A0F2               	btfss	242,0,c	;volatile
  2202   001224  EF16  F009         	goto	i2u208_41
  2203   001228  EF18  F009         	goto	i2u208_40
  2204   00122C                     i2u208_41:
  2205   00122C  EF2C  F009         	goto	i2l368
  2206   001230                     i2u208_40:
  2207   001230  AE81               	btfss	129,7,c	;volatile
  2208   001232  EF1D  F009         	goto	i2u209_41
  2209   001236  EF1F  F009         	goto	i2u209_40
  2210   00123A                     i2u209_41:
  2211   00123A  EF2C  F009         	goto	i2l368
  2212   00123E                     i2u209_40:
  2213   00123E  041F               	decf	_RB7_Flag^0,w,c	;volatile
  2214   001240  A4D8               	btfss	status,2,c
  2215   001242  EF25  F009         	goto	i2u210_41
  2216   001246  EF27  F009         	goto	i2u210_40
  2217   00124A                     i2u210_41:
  2218   00124A  EF2C  F009         	goto	i2l368
  2219   00124E                     i2u210_40:
  2220   00124E                     
  2221                           ;MCAL_Layer/Interrupt/Interrupt_manager.c: 62:        RB7_Flag = 0;
  2222   00124E  0E00               	movlw	0
  2223   001250  6E1F               	movwf	_RB7_Flag^0,c	;volatile
  2224   001252                     
  2225                           ;MCAL_Layer/Interrupt/Interrupt_manager.c: 63:        RB7_ISR(1);
  2226   001252  0E01               	movlw	1
  2227   001254  EC40  F00E         	call	_RB7_ISR
  2228   001258                     i2l368:
  2229                           
  2230                           ;MCAL_Layer/Interrupt/Interrupt_manager.c: 65:     if((INTCONbits.RBIE == 1) && (INTCONb
      +                          its.RBIF == 1) && (PORTBbits.RB7 == GPIO_LOW) && (RB7_Flag == 0)){
  2231   001258  A6F2               	btfss	242,3,c	;volatile
  2232   00125A  EF31  F009         	goto	i2u211_41
  2233   00125E  EF33  F009         	goto	i2u211_40
  2234   001262                     i2u211_41:
  2235   001262  EF4E  F009         	goto	i2l370
  2236   001266                     i2u211_40:
  2237   001266  A0F2               	btfss	242,0,c	;volatile
  2238   001268  EF38  F009         	goto	i2u212_41
  2239   00126C  EF3A  F009         	goto	i2u212_40
  2240   001270                     i2u212_41:
  2241   001270  EF4E  F009         	goto	i2l370
  2242   001274                     i2u212_40:
  2243   001274  BE81               	btfsc	129,7,c	;volatile
  2244   001276  EF3F  F009         	goto	i2u213_41
  2245   00127A  EF41  F009         	goto	i2u213_40
  2246   00127E                     i2u213_41:
  2247   00127E  EF4E  F009         	goto	i2l370
  2248   001282                     i2u213_40:
  2249   001282  501F               	movf	_RB7_Flag^0,w,c	;volatile
  2250   001284  A4D8               	btfss	status,2,c
  2251   001286  EF47  F009         	goto	i2u214_41
  2252   00128A  EF49  F009         	goto	i2u214_40
  2253   00128E                     i2u214_41:
  2254   00128E  EF4E  F009         	goto	i2l370
  2255   001292                     i2u214_40:
  2256   001292                     
  2257                           ;MCAL_Layer/Interrupt/Interrupt_manager.c: 66:        RB7_Flag = 1;
  2258   001292  0E01               	movlw	1
  2259   001294  6E1F               	movwf	_RB7_Flag^0,c	;volatile
  2260   001296                     
  2261                           ;MCAL_Layer/Interrupt/Interrupt_manager.c: 67:        RB7_ISR(0);
  2262   001296  0E00               	movlw	0
  2263   001298  EC40  F00E         	call	_RB7_ISR
  2264   00129C                     i2l370:
  2265                           
  2266                           ;MCAL_Layer/Interrupt/Interrupt_manager.c: 72:     if((PIE1bits.ADIE == 1) && (PIR1bits.
      +                          ADIF == 1)){
  2267   00129C  AC9D               	btfss	157,6,c	;volatile
  2268   00129E  EF53  F009         	goto	i2u215_41
  2269   0012A2  EF55  F009         	goto	i2u215_40
  2270   0012A6                     i2u215_41:
  2271   0012A6  EF5E  F009         	goto	i2l373
  2272   0012AA                     i2u215_40:
  2273   0012AA  AC9E               	btfss	158,6,c	;volatile
  2274   0012AC  EF5A  F009         	goto	i2u216_41
  2275   0012B0  EF5C  F009         	goto	i2u216_40
  2276   0012B4                     i2u216_41:
  2277   0012B4  EF5E  F009         	goto	i2l373
  2278   0012B8                     i2u216_40:
  2279   0012B8                     
  2280                           ;MCAL_Layer/Interrupt/Interrupt_manager.c: 73:         ADC_ISR();
  2281   0012B8  ECEC  F00D         	call	_ADC_ISR	;wreg free
  2282   0012BC                     i2l373:
  2283   0012BC  C05B  FFF4         	movff	??_InterruptManager+5,prodh
  2284   0012C0  C05A  FFF3         	movff	??_InterruptManager+4,prodl
  2285   0012C4  C059  FFDA         	movff	??_InterruptManager+3,fsr2h
  2286   0012C8  C058  FFD9         	movff	??_InterruptManager+2,fsr2l
  2287   0012CC  C057  FFFB         	movff	??_InterruptManager+1,pclatu
  2288   0012D0  C056  FFFA         	movff	??_InterruptManager,pclath
  2289   0012D4  926B               	bcf	int$flags,1,c	;clear compiler interrupt flag (level 2)
  2290   0012D6  0011               	retfie		f
  2291   0012D8                     __end_of_InterruptManager:
  2292                           	callstack 0
  2293                           
  2294 ;; *************** function _RB7_ISR *****************
  2295 ;; Defined at:
  2296 ;;		line 395 in file "MCAL_Layer/Interrupt/External_Interrupt.c"
  2297 ;; Parameters:    Size  Location     Type
  2298 ;;  RB7_source      1    wreg     unsigned char 
  2299 ;; Auto vars:     Size  Location     Type
  2300 ;;  RB7_source      1    0[COMRAM] unsigned char 
  2301 ;; Return value:  Size  Location     Type
  2302 ;;                  1    wreg      void 
  2303 ;; Registers used:
  2304 ;;		wreg, status,2, status,0
  2305 ;; Tracked objects:
  2306 ;;		On entry : 0/0
  2307 ;;		On exit  : 0/0
  2308 ;;		Unchanged: 0/0
  2309 ;; Data sizes:     COMRAM   BANK0   BANK1   BANK2   BANK3   BANK4   BANK5   BANK6   BANK7   BANK8   BANK9  BANK10  BANK1
      +1  BANK12  BANK13  BANK14  BANK15
  2310 ;;      Params:         0       0       0       0       0       0       0       0       0       0       0       0       
      +0       0       0       0       0
  2311 ;;      Locals:         1       0       0       0       0       0       0       0       0       0       0       0       
      +0       0       0       0       0
  2312 ;;      Temps:          0       0       0       0       0       0       0       0       0       0       0       0       
      +0       0       0       0       0
  2313 ;;      Totals:         1       0       0       0       0       0       0       0       0       0       0       0       
      +0       0       0       0       0
  2314 ;;Total ram usage:        1 bytes
  2315 ;; Hardware stack levels used: 1
  2316 ;; This function calls:
  2317 ;;		Nothing
  2318 ;; This function is called by:
  2319 ;;		_InterruptManager
  2320 ;; This function uses a non-reentrant model
  2321 ;;
  2322                           
  2323                           	psect	text14
  2324   001C80                     __ptext14:
  2325                           	callstack 0
  2326   001C80                     _RB7_ISR:
  2327                           	callstack 25
  2328                           
  2329                           ;incstack = 0
  2330                           ;RB7_ISR@RB7_source stored from wreg
  2331   001C80  6E4C               	movwf	RB7_ISR@RB7_source^0,c
  2332   001C82                     
  2333                           ;MCAL_Layer/Interrupt/External_Interrupt.c: 397:     (INTCONbits.RBIF = 0);
  2334   001C82  90F2               	bcf	242,0,c	;volatile
  2335   001C84                     
  2336                           ;MCAL_Layer/Interrupt/External_Interrupt.c: 399:     if (0==RB7_source){
  2337   001C84  504C               	movf	RB7_ISR@RB7_source^0,w,c
  2338   001C86  A4D8               	btfss	status,2,c
  2339   001C88  EF48  F00E         	goto	i2u43_41
  2340   001C8C  EF4A  F00E         	goto	i2u43_40
  2341   001C90                     i2u43_41:
  2342   001C90  EF4C  F00E         	goto	i2l1614
  2343   001C94                     i2u43_40:
  2344   001C94  EF4C  F00E         	goto	i2l575
  2345   001C98                     i2l1614:
  2346   001C98                     i2l575:
  2347   001C98  0012               	return		;funcret
  2348   001C9A                     __end_of_RB7_ISR:
  2349                           	callstack 0
  2350                           
  2351 ;; *************** function _RB6_ISR *****************
  2352 ;; Defined at:
  2353 ;;		line 384 in file "MCAL_Layer/Interrupt/External_Interrupt.c"
  2354 ;; Parameters:    Size  Location     Type
  2355 ;;  RB6_source      1    wreg     unsigned char 
  2356 ;; Auto vars:     Size  Location     Type
  2357 ;;  RB6_source      1    0[COMRAM] unsigned char 
  2358 ;; Return value:  Size  Location     Type
  2359 ;;                  1    wreg      void 
  2360 ;; Registers used:
  2361 ;;		wreg, status,2, status,0
  2362 ;; Tracked objects:
  2363 ;;		On entry : 0/0
  2364 ;;		On exit  : 0/0
  2365 ;;		Unchanged: 0/0
  2366 ;; Data sizes:     COMRAM   BANK0   BANK1   BANK2   BANK3   BANK4   BANK5   BANK6   BANK7   BANK8   BANK9  BANK10  BANK1
      +1  BANK12  BANK13  BANK14  BANK15
  2367 ;;      Params:         0       0       0       0       0       0       0       0       0       0       0       0       
      +0       0       0       0       0
  2368 ;;      Locals:         1       0       0       0       0       0       0       0       0       0       0       0       
      +0       0       0       0       0
  2369 ;;      Temps:          0       0       0       0       0       0       0       0       0       0       0       0       
      +0       0       0       0       0
  2370 ;;      Totals:         1       0       0       0       0       0       0       0       0       0       0       0       
      +0       0       0       0       0
  2371 ;;Total ram usage:        1 bytes
  2372 ;; Hardware stack levels used: 1
  2373 ;; This function calls:
  2374 ;;		Nothing
  2375 ;; This function is called by:
  2376 ;;		_InterruptManager
  2377 ;; This function uses a non-reentrant model
  2378 ;;
  2379                           
  2380                           	psect	text15
  2381   001C9A                     __ptext15:
  2382                           	callstack 0
  2383   001C9A                     _RB6_ISR:
  2384                           	callstack 25
  2385                           
  2386                           ;incstack = 0
  2387                           ;RB6_ISR@RB6_source stored from wreg
  2388   001C9A  6E4C               	movwf	RB6_ISR@RB6_source^0,c
  2389   001C9C                     
  2390                           ;MCAL_Layer/Interrupt/External_Interrupt.c: 386:     (INTCONbits.RBIF = 0);
  2391   001C9C  90F2               	bcf	242,0,c	;volatile
  2392   001C9E                     
  2393                           ;MCAL_Layer/Interrupt/External_Interrupt.c: 388:     if (0==RB6_source){
  2394   001C9E  504C               	movf	RB6_ISR@RB6_source^0,w,c
  2395   001CA0  A4D8               	btfss	status,2,c
  2396   001CA2  EF55  F00E         	goto	i2u42_41
  2397   001CA6  EF57  F00E         	goto	i2u42_40
  2398   001CAA                     i2u42_41:
  2399   001CAA  EF59  F00E         	goto	i2l1604
  2400   001CAE                     i2u42_40:
  2401   001CAE  EF59  F00E         	goto	i2l566
  2402   001CB2                     i2l1604:
  2403   001CB2                     i2l566:
  2404   001CB2  0012               	return		;funcret
  2405   001CB4                     __end_of_RB6_ISR:
  2406                           	callstack 0
  2407                           
  2408 ;; *************** function _RB5_ISR *****************
  2409 ;; Defined at:
  2410 ;;		line 373 in file "MCAL_Layer/Interrupt/External_Interrupt.c"
  2411 ;; Parameters:    Size  Location     Type
  2412 ;;  RB5_source      1    wreg     unsigned char 
  2413 ;; Auto vars:     Size  Location     Type
  2414 ;;  RB5_source      1    0[COMRAM] unsigned char 
  2415 ;; Return value:  Size  Location     Type
  2416 ;;                  1    wreg      void 
  2417 ;; Registers used:
  2418 ;;		wreg, status,2, status,0
  2419 ;; Tracked objects:
  2420 ;;		On entry : 0/0
  2421 ;;		On exit  : 0/0
  2422 ;;		Unchanged: 0/0
  2423 ;; Data sizes:     COMRAM   BANK0   BANK1   BANK2   BANK3   BANK4   BANK5   BANK6   BANK7   BANK8   BANK9  BANK10  BANK1
      +1  BANK12  BANK13  BANK14  BANK15
  2424 ;;      Params:         0       0       0       0       0       0       0       0       0       0       0       0       
      +0       0       0       0       0
  2425 ;;      Locals:         1       0       0       0       0       0       0       0       0       0       0       0       
      +0       0       0       0       0
  2426 ;;      Temps:          0       0       0       0       0       0       0       0       0       0       0       0       
      +0       0       0       0       0
  2427 ;;      Totals:         1       0       0       0       0       0       0       0       0       0       0       0       
      +0       0       0       0       0
  2428 ;;Total ram usage:        1 bytes
  2429 ;; Hardware stack levels used: 1
  2430 ;; This function calls:
  2431 ;;		Nothing
  2432 ;; This function is called by:
  2433 ;;		_InterruptManager
  2434 ;; This function uses a non-reentrant model
  2435 ;;
  2436                           
  2437                           	psect	text16
  2438   001CB4                     __ptext16:
  2439                           	callstack 0
  2440   001CB4                     _RB5_ISR:
  2441                           	callstack 25
  2442                           
  2443                           ;incstack = 0
  2444                           ;RB5_ISR@RB5_source stored from wreg
  2445   001CB4  6E4C               	movwf	RB5_ISR@RB5_source^0,c
  2446   001CB6                     
  2447                           ;MCAL_Layer/Interrupt/External_Interrupt.c: 375:     (INTCONbits.RBIF = 0);
  2448   001CB6  90F2               	bcf	242,0,c	;volatile
  2449   001CB8                     
  2450                           ;MCAL_Layer/Interrupt/External_Interrupt.c: 377:     if (0==RB5_source){
  2451   001CB8  504C               	movf	RB5_ISR@RB5_source^0,w,c
  2452   001CBA  A4D8               	btfss	status,2,c
  2453   001CBC  EF62  F00E         	goto	i2u41_41
  2454   001CC0  EF64  F00E         	goto	i2u41_40
  2455   001CC4                     i2u41_41:
  2456   001CC4  EF66  F00E         	goto	i2l1594
  2457   001CC8                     i2u41_40:
  2458   001CC8  EF66  F00E         	goto	i2l557
  2459   001CCC                     i2l1594:
  2460   001CCC                     i2l557:
  2461   001CCC  0012               	return		;funcret
  2462   001CCE                     __end_of_RB5_ISR:
  2463                           	callstack 0
  2464                           
  2465 ;; *************** function _RB4_ISR *****************
  2466 ;; Defined at:
  2467 ;;		line 362 in file "MCAL_Layer/Interrupt/External_Interrupt.c"
  2468 ;; Parameters:    Size  Location     Type
  2469 ;;  RB4_source      1    wreg     unsigned char 
  2470 ;; Auto vars:     Size  Location     Type
  2471 ;;  RB4_source      1    0[COMRAM] unsigned char 
  2472 ;; Return value:  Size  Location     Type
  2473 ;;                  1    wreg      void 
  2474 ;; Registers used:
  2475 ;;		wreg, status,2, status,0
  2476 ;; Tracked objects:
  2477 ;;		On entry : 0/0
  2478 ;;		On exit  : 0/0
  2479 ;;		Unchanged: 0/0
  2480 ;; Data sizes:     COMRAM   BANK0   BANK1   BANK2   BANK3   BANK4   BANK5   BANK6   BANK7   BANK8   BANK9  BANK10  BANK1
      +1  BANK12  BANK13  BANK14  BANK15
  2481 ;;      Params:         0       0       0       0       0       0       0       0       0       0       0       0       
      +0       0       0       0       0
  2482 ;;      Locals:         1       0       0       0       0       0       0       0       0       0       0       0       
      +0       0       0       0       0
  2483 ;;      Temps:          0       0       0       0       0       0       0       0       0       0       0       0       
      +0       0       0       0       0
  2484 ;;      Totals:         1       0       0       0       0       0       0       0       0       0       0       0       
      +0       0       0       0       0
  2485 ;;Total ram usage:        1 bytes
  2486 ;; Hardware stack levels used: 1
  2487 ;; This function calls:
  2488 ;;		Nothing
  2489 ;; This function is called by:
  2490 ;;		_InterruptManager
  2491 ;; This function uses a non-reentrant model
  2492 ;;
  2493                           
  2494                           	psect	text17
  2495   001CCE                     __ptext17:
  2496                           	callstack 0
  2497   001CCE                     _RB4_ISR:
  2498                           	callstack 25
  2499                           
  2500                           ;incstack = 0
  2501                           ;RB4_ISR@RB4_source stored from wreg
  2502   001CCE  6E4C               	movwf	RB4_ISR@RB4_source^0,c
  2503   001CD0                     
  2504                           ;MCAL_Layer/Interrupt/External_Interrupt.c: 364:     (INTCONbits.RBIF = 0);
  2505   001CD0  90F2               	bcf	242,0,c	;volatile
  2506   001CD2                     
  2507                           ;MCAL_Layer/Interrupt/External_Interrupt.c: 366:     if (0==RB4_source){
  2508   001CD2  504C               	movf	RB4_ISR@RB4_source^0,w,c
  2509   001CD4  A4D8               	btfss	status,2,c
  2510   001CD6  EF6F  F00E         	goto	i2u40_41
  2511   001CDA  EF71  F00E         	goto	i2u40_40
  2512   001CDE                     i2u40_41:
  2513   001CDE  EF73  F00E         	goto	i2l1584
  2514   001CE2                     i2u40_40:
  2515   001CE2  EF73  F00E         	goto	i2l548
  2516   001CE6                     i2l1584:
  2517   001CE6                     i2l548:
  2518   001CE6  0012               	return		;funcret
  2519   001CE8                     __end_of_RB4_ISR:
  2520                           	callstack 0
  2521                           
  2522 ;; *************** function _INT2_ISR *****************
  2523 ;; Defined at:
  2524 ;;		line 354 in file "MCAL_Layer/Interrupt/External_Interrupt.c"
  2525 ;; Parameters:    Size  Location     Type
  2526 ;;		None
  2527 ;; Auto vars:     Size  Location     Type
  2528 ;;		None
  2529 ;; Return value:  Size  Location     Type
  2530 ;;                  1    wreg      void 
  2531 ;; Registers used:
  2532 ;;		None
  2533 ;; Tracked objects:
  2534 ;;		On entry : 0/0
  2535 ;;		On exit  : 0/0
  2536 ;;		Unchanged: 0/0
  2537 ;; Data sizes:     COMRAM   BANK0   BANK1   BANK2   BANK3   BANK4   BANK5   BANK6   BANK7   BANK8   BANK9  BANK10  BANK1
      +1  BANK12  BANK13  BANK14  BANK15
  2538 ;;      Params:         0       0       0       0       0       0       0       0       0       0       0       0       
      +0       0       0       0       0
  2539 ;;      Locals:         0       0       0       0       0       0       0       0       0       0       0       0       
      +0       0       0       0       0
  2540 ;;      Temps:          0       0       0       0       0       0       0       0       0       0       0       0       
      +0       0       0       0       0
  2541 ;;      Totals:         0       0       0       0       0       0       0       0       0       0       0       0       
      +0       0       0       0       0
  2542 ;;Total ram usage:        0 bytes
  2543 ;; Hardware stack levels used: 1
  2544 ;; This function calls:
  2545 ;;		Nothing
  2546 ;; This function is called by:
  2547 ;;		_InterruptManager
  2548 ;; This function uses a non-reentrant model
  2549 ;;
  2550                           
  2551                           	psect	text18
  2552   001D00                     __ptext18:
  2553                           	callstack 0
  2554   001D00                     _INT2_ISR:
  2555                           	callstack 25
  2556   001D00                     
  2557                           ;MCAL_Layer/Interrupt/External_Interrupt.c: 356:     (INTCON3bits.INT2IF = 0);
  2558   001D00  92F0               	bcf	240,1,c	;volatile
  2559   001D02  0012               	return		;funcret
  2560   001D04                     __end_of_INT2_ISR:
  2561                           	callstack 0
  2562                           
  2563 ;; *************** function _INT1_ISR *****************
  2564 ;; Defined at:
  2565 ;;		line 346 in file "MCAL_Layer/Interrupt/External_Interrupt.c"
  2566 ;; Parameters:    Size  Location     Type
  2567 ;;		None
  2568 ;; Auto vars:     Size  Location     Type
  2569 ;;		None
  2570 ;; Return value:  Size  Location     Type
  2571 ;;                  1    wreg      void 
  2572 ;; Registers used:
  2573 ;;		None
  2574 ;; Tracked objects:
  2575 ;;		On entry : 0/0
  2576 ;;		On exit  : 0/0
  2577 ;;		Unchanged: 0/0
  2578 ;; Data sizes:     COMRAM   BANK0   BANK1   BANK2   BANK3   BANK4   BANK5   BANK6   BANK7   BANK8   BANK9  BANK10  BANK1
      +1  BANK12  BANK13  BANK14  BANK15
  2579 ;;      Params:         0       0       0       0       0       0       0       0       0       0       0       0       
      +0       0       0       0       0
  2580 ;;      Locals:         0       0       0       0       0       0       0       0       0       0       0       0       
      +0       0       0       0       0
  2581 ;;      Temps:          0       0       0       0       0       0       0       0       0       0       0       0       
      +0       0       0       0       0
  2582 ;;      Totals:         0       0       0       0       0       0       0       0       0       0       0       0       
      +0       0       0       0       0
  2583 ;;Total ram usage:        0 bytes
  2584 ;; Hardware stack levels used: 1
  2585 ;; This function calls:
  2586 ;;		Nothing
  2587 ;; This function is called by:
  2588 ;;		_InterruptManager
  2589 ;; This function uses a non-reentrant model
  2590 ;;
  2591                           
  2592                           	psect	text19
  2593   001D04                     __ptext19:
  2594                           	callstack 0
  2595   001D04                     _INT1_ISR:
  2596                           	callstack 25
  2597   001D04                     
  2598                           ;MCAL_Layer/Interrupt/External_Interrupt.c: 348:     (INTCON3bits.INT1IF = 0);
  2599   001D04  90F0               	bcf	240,0,c	;volatile
  2600   001D06  0012               	return		;funcret
  2601   001D08                     __end_of_INT1_ISR:
  2602                           	callstack 0
  2603                           
  2604 ;; *************** function _INT0_ISR *****************
  2605 ;; Defined at:
  2606 ;;		line 338 in file "MCAL_Layer/Interrupt/External_Interrupt.c"
  2607 ;; Parameters:    Size  Location     Type
  2608 ;;		None
  2609 ;; Auto vars:     Size  Location     Type
  2610 ;;		None
  2611 ;; Return value:  Size  Location     Type
  2612 ;;                  1    wreg      void 
  2613 ;; Registers used:
  2614 ;;		None
  2615 ;; Tracked objects:
  2616 ;;		On entry : 0/0
  2617 ;;		On exit  : 0/0
  2618 ;;		Unchanged: 0/0
  2619 ;; Data sizes:     COMRAM   BANK0   BANK1   BANK2   BANK3   BANK4   BANK5   BANK6   BANK7   BANK8   BANK9  BANK10  BANK1
      +1  BANK12  BANK13  BANK14  BANK15
  2620 ;;      Params:         0       0       0       0       0       0       0       0       0       0       0       0       
      +0       0       0       0       0
  2621 ;;      Locals:         0       0       0       0       0       0       0       0       0       0       0       0       
      +0       0       0       0       0
  2622 ;;      Temps:          0       0       0       0       0       0       0       0       0       0       0       0       
      +0       0       0       0       0
  2623 ;;      Totals:         0       0       0       0       0       0       0       0       0       0       0       0       
      +0       0       0       0       0
  2624 ;;Total ram usage:        0 bytes
  2625 ;; Hardware stack levels used: 1
  2626 ;; This function calls:
  2627 ;;		Nothing
  2628 ;; This function is called by:
  2629 ;;		_InterruptManager
  2630 ;; This function uses a non-reentrant model
  2631 ;;
  2632                           
  2633                           	psect	text20
  2634   001D08                     __ptext20:
  2635                           	callstack 0
  2636   001D08                     _INT0_ISR:
  2637                           	callstack 25
  2638   001D08                     
  2639                           ;MCAL_Layer/Interrupt/External_Interrupt.c: 340:     (INTCONbits.INT0IF = 0);
  2640   001D08  92F2               	bcf	242,1,c	;volatile
  2641   001D0A  0012               	return		;funcret
  2642   001D0C                     __end_of_INT0_ISR:
  2643                           	callstack 0
  2644                           
  2645 ;; *************** function _ADC_ISR *****************
  2646 ;; Defined at:
  2647 ;;		line 260 in file "MCAL_Layer/ADC/adc.c"
  2648 ;; Parameters:    Size  Location     Type
  2649 ;;		None
  2650 ;; Auto vars:     Size  Location     Type
  2651 ;;		None
  2652 ;; Return value:  Size  Location     Type
  2653 ;;                  1    wreg      void 
  2654 ;; Registers used:
  2655 ;;		wreg, fsr2l, fsr2h, status,2, status,0, pcl, pclath, pclatu, tosl, prodl, prodh, cstack
  2656 ;; Tracked objects:
  2657 ;;		On entry : 0/0
  2658 ;;		On exit  : 0/0
  2659 ;;		Unchanged: 0/0
  2660 ;; Data sizes:     COMRAM   BANK0   BANK1   BANK2   BANK3   BANK4   BANK5   BANK6   BANK7   BANK8   BANK9  BANK10  BANK1
      +1  BANK12  BANK13  BANK14  BANK15
  2661 ;;      Params:         0       0       0       0       0       0       0       0       0       0       0       0       
      +0       0       0       0       0
  2662 ;;      Locals:         0       0       0       0       0       0       0       0       0       0       0       0       
      +0       0       0       0       0
  2663 ;;      Temps:          0       0       0       0       0       0       0       0       0       0       0       0       
      +0       0       0       0       0
  2664 ;;      Totals:         0       0       0       0       0       0       0       0       0       0       0       0       
      +0       0       0       0       0
  2665 ;;Total ram usage:        0 bytes
  2666 ;; Hardware stack levels used: 1
  2667 ;; Hardware stack levels required when called: 3
  2668 ;; This function calls:
  2669 ;;		NULL
  2670 ;;		_ADC_DefaultInterruptHandler
  2671 ;; This function is called by:
  2672 ;;		_InterruptManager
  2673 ;; This function uses a non-reentrant model
  2674 ;;
  2675                           
  2676                           	psect	text21
  2677   001BD8                     __ptext21:
  2678                           	callstack 0
  2679   001BD8                     _ADC_ISR:
  2680                           	callstack 22
  2681   001BD8                     
  2682                           ;MCAL_Layer/ADC/adc.c: 261:     (PIR1bits.ADIF = 0);
  2683   001BD8  9C9E               	bcf	158,6,c	;volatile
  2684   001BDA                     
  2685                           ;MCAL_Layer/ADC/adc.c: 262:     if(ADC_InterruptHandler){
  2686   001BDA  5043               	movf	_ADC_InterruptHandler^0,w,c
  2687   001BDC  1044               	iorwf	(_ADC_InterruptHandler+1)^0,w,c
  2688   001BDE  B4D8               	btfsc	status,2,c
  2689   001BE0  EFF4  F00D         	goto	i2u172_41
  2690   001BE4  EFF6  F00D         	goto	i2u172_40
  2691   001BE8                     i2u172_41:
  2692   001BE8  EF03  F00E         	goto	i2l170
  2693   001BEC                     i2u172_40:
  2694   001BEC                     
  2695                           ;MCAL_Layer/ADC/adc.c: 263:         ADC_InterruptHandler();
  2696   001BEC  D802               	call	i2u173_48
  2697   001BEE  EF03  F00E         	goto	i2u173_49
  2698   001BF2                     i2u173_48:
  2699   001BF2  0005               	push	
  2700   001BF4  6EFA               	movwf	pclath,c
  2701   001BF6  5043               	movf	_ADC_InterruptHandler^0,w,c
  2702   001BF8  6EFD               	movwf	tosl,c
  2703   001BFA  5044               	movf	(_ADC_InterruptHandler+1)^0,w,c
  2704   001BFC  6EFE               	movwf	tosh,c
  2705   001BFE  50F8               	movf	tblptru,w,c
  2706   001C00  6EFF               	movwf	tosu,c
  2707   001C02  50FA               	movf	pclath,w,c
  2708   001C04  0012               	return		;indir
  2709   001C06                     i2u173_49:
  2710   001C06                     i2l170:
  2711   001C06  0012               	return		;funcret
  2712   001C08                     __end_of_ADC_ISR:
  2713                           	callstack 0
  2714                           
  2715 ;; *************** function _ADC_DefaultInterruptHandler *****************
  2716 ;; Defined at:
  2717 ;;		line 23 in file "application.c"
  2718 ;; Parameters:    Size  Location     Type
  2719 ;;		None
  2720 ;; Auto vars:     Size  Location     Type
  2721 ;;		None
  2722 ;; Return value:  Size  Location     Type
  2723 ;;                  1    wreg      void 
  2724 ;; Registers used:
  2725 ;;		wreg, fsr2l, fsr2h, status,2, status,0, prodl, prodh, cstack
  2726 ;; Tracked objects:
  2727 ;;		On entry : 0/0
  2728 ;;		On exit  : 0/0
  2729 ;;		Unchanged: 0/0
  2730 ;; Data sizes:     COMRAM   BANK0   BANK1   BANK2   BANK3   BANK4   BANK5   BANK6   BANK7   BANK8   BANK9  BANK10  BANK1
      +1  BANK12  BANK13  BANK14  BANK15
  2731 ;;      Params:         0       0       0       0       0       0       0       0       0       0       0       0       
      +0       0       0       0       0
  2732 ;;      Locals:         0       0       0       0       0       0       0       0       0       0       0       0       
      +0       0       0       0       0
  2733 ;;      Temps:          0       0       0       0       0       0       0       0       0       0       0       0       
      +0       0       0       0       0
  2734 ;;      Totals:         0       0       0       0       0       0       0       0       0       0       0       0       
      +0       0       0       0       0
  2735 ;;Total ram usage:        0 bytes
  2736 ;; Hardware stack levels used: 1
  2737 ;; Hardware stack levels required when called: 2
  2738 ;; This function calls:
  2739 ;;		_ADC_GetConversionResult
  2740 ;;		_led_turn_off
  2741 ;;		_led_turn_on
  2742 ;; This function is called by:
  2743 ;;		_ADC_ISR
  2744 ;; This function uses a non-reentrant model
  2745 ;;
  2746                           
  2747                           	psect	text22
  2748   001600                     __ptext22:
  2749                           	callstack 0
  2750   001600                     _ADC_DefaultInterruptHandler:
  2751                           	callstack 22
  2752   001600                     
  2753                           ;application.c: 24:     adc_flag++;
  2754   001600  2A45               	incf	_adc_flag^0,f,c	;volatile
  2755   001602                     
  2756                           ;application.c: 25:     ADC_GetConversionResult(&adc1,&adc_res_1);
  2757   001602  0E23               	movlw	low _adc1
  2758   001604  6E4C               	movwf	ADC_GetConversionResult@_adc^0,c
  2759   001606  0E4A               	movlw	low _adc_res_1
  2760   001608  6E4D               	movwf	ADC_GetConversionResult@Conversion_result^0,c
  2761   00160A  ECDB  F00B         	call	_ADC_GetConversionResult	;wreg free
  2762   00160E                     
  2763                           ;application.c: 26:     if(adc_res_1<250){
  2764   00160E  504B               	movf	(_adc_res_1+1)^0,w,c
  2765   001610  E107               	bnz	i2u168_41
  2766   001612  0EFA               	movlw	250
  2767   001614  5C4A               	subwf	_adc_res_1^0,w,c
  2768   001616  B0D8               	btfsc	status,0,c
  2769   001618  EF10  F00B         	goto	i2u168_41
  2770   00161C  EF12  F00B         	goto	i2u168_40
  2771   001620                     i2u168_41:
  2772   001620  EF24  F00B         	goto	i2l2364
  2773   001624                     i2u168_40:
  2774   001624                     
  2775                           ;application.c: 27:         led_turn_on(&led0);led_turn_off(&led1);led_turn_off(&led2);l
      +                          ed_turn_off(&led3);
  2776   001624  0E2C               	movlw	low _led0
  2777   001626  6E53               	movwf	led_turn_on@led^0,c
  2778   001628  ECC5  F00C         	call	_led_turn_on	;wreg free
  2779   00162C  0E2B               	movlw	low _led1
  2780   00162E  6E53               	movwf	led_turn_off@led^0,c
  2781   001630  ECFA  F00C         	call	_led_turn_off	;wreg free
  2782   001634  0E2A               	movlw	low _led2
  2783   001636  6E53               	movwf	led_turn_off@led^0,c
  2784   001638  ECFA  F00C         	call	_led_turn_off	;wreg free
  2785   00163C  0E29               	movlw	low _led3
  2786   00163E  6E53               	movwf	led_turn_off@led^0,c
  2787   001640  ECFA  F00C         	call	_led_turn_off	;wreg free
  2788                           
  2789                           ;application.c: 28:     }else if(adc_res_1<500){
  2790   001644  EF6E  F00B         	goto	i2l619
  2791   001648                     i2l2364:
  2792   001648  0EF4               	movlw	244
  2793   00164A  5C4A               	subwf	_adc_res_1^0,w,c
  2794   00164C  0E01               	movlw	1
  2795   00164E  584B               	subwfb	(_adc_res_1+1)^0,w,c
  2796   001650  B0D8               	btfsc	status,0,c
  2797   001652  EF2D  F00B         	goto	i2u169_41
  2798   001656  EF2F  F00B         	goto	i2u169_40
  2799   00165A                     i2u169_41:
  2800   00165A  EF41  F00B         	goto	i2l2368
  2801   00165E                     i2u169_40:
  2802   00165E                     
  2803                           ;application.c: 29:         led_turn_off(&led0);led_turn_on(&led1);led_turn_off(&led2);l
      +                          ed_turn_off(&led3);
  2804   00165E  0E2C               	movlw	low _led0
  2805   001660  6E53               	movwf	led_turn_off@led^0,c
  2806   001662  ECFA  F00C         	call	_led_turn_off	;wreg free
  2807   001666  0E2B               	movlw	low _led1
  2808   001668  6E53               	movwf	led_turn_on@led^0,c
  2809   00166A  ECC5  F00C         	call	_led_turn_on	;wreg free
  2810   00166E  0E2A               	movlw	low _led2
  2811   001670  6E53               	movwf	led_turn_off@led^0,c
  2812   001672  ECFA  F00C         	call	_led_turn_off	;wreg free
  2813   001676  0E29               	movlw	low _led3
  2814   001678  6E53               	movwf	led_turn_off@led^0,c
  2815   00167A  ECFA  F00C         	call	_led_turn_off	;wreg free
  2816                           
  2817                           ;application.c: 30:     }else if(adc_res_1<750){
  2818   00167E  EF6E  F00B         	goto	i2l619
  2819   001682                     i2l2368:
  2820   001682  0EEE               	movlw	238
  2821   001684  5C4A               	subwf	_adc_res_1^0,w,c
  2822   001686  0E02               	movlw	2
  2823   001688  584B               	subwfb	(_adc_res_1+1)^0,w,c
  2824   00168A  B0D8               	btfsc	status,0,c
  2825   00168C  EF4A  F00B         	goto	i2u170_41
  2826   001690  EF4C  F00B         	goto	i2u170_40
  2827   001694                     i2u170_41:
  2828   001694  EF5E  F00B         	goto	i2l2372
  2829   001698                     i2u170_40:
  2830   001698                     
  2831                           ;application.c: 31:         led_turn_off(&led0);led_turn_off(&led1);led_turn_on(&led2);l
      +                          ed_turn_off(&led3);
  2832   001698  0E2C               	movlw	low _led0
  2833   00169A  6E53               	movwf	led_turn_off@led^0,c
  2834   00169C  ECFA  F00C         	call	_led_turn_off	;wreg free
  2835   0016A0  0E2B               	movlw	low _led1
  2836   0016A2  6E53               	movwf	led_turn_off@led^0,c
  2837   0016A4  ECFA  F00C         	call	_led_turn_off	;wreg free
  2838   0016A8  0E2A               	movlw	low _led2
  2839   0016AA  6E53               	movwf	led_turn_on@led^0,c
  2840   0016AC  ECC5  F00C         	call	_led_turn_on	;wreg free
  2841   0016B0  0E29               	movlw	low _led3
  2842   0016B2  6E53               	movwf	led_turn_off@led^0,c
  2843   0016B4  ECFA  F00C         	call	_led_turn_off	;wreg free
  2844                           
  2845                           ;application.c: 32:     }else {
  2846   0016B8  EF6E  F00B         	goto	i2l619
  2847   0016BC                     i2l2372:
  2848                           
  2849                           ;application.c: 33:         led_turn_off(&led0);led_turn_off(&led1);led_turn_off(&led2);
      +                          led_turn_on(&led3);
  2850   0016BC  0E2C               	movlw	low _led0
  2851   0016BE  6E53               	movwf	led_turn_off@led^0,c
  2852   0016C0  ECFA  F00C         	call	_led_turn_off	;wreg free
  2853   0016C4  0E2B               	movlw	low _led1
  2854   0016C6  6E53               	movwf	led_turn_off@led^0,c
  2855   0016C8  ECFA  F00C         	call	_led_turn_off	;wreg free
  2856   0016CC  0E2A               	movlw	low _led2
  2857   0016CE  6E53               	movwf	led_turn_off@led^0,c
  2858   0016D0  ECFA  F00C         	call	_led_turn_off	;wreg free
  2859   0016D4  0E29               	movlw	low _led3
  2860   0016D6  6E53               	movwf	led_turn_on@led^0,c
  2861   0016D8  ECC5  F00C         	call	_led_turn_on	;wreg free
  2862   0016DC                     i2l619:
  2863   0016DC  0012               	return		;funcret
  2864   0016DE                     __end_of_ADC_DefaultInterruptHandler:
  2865                           	callstack 0
  2866                           
  2867 ;; *************** function _led_turn_on *****************
  2868 ;; Defined at:
  2869 ;;		line 37 in file "ECU_Layer/led/led.c"
  2870 ;; Parameters:    Size  Location     Type
  2871 ;;  led             1    7[COMRAM] PTR const struct .
  2872 ;;		 -> led3(1), led2(1), led1(1), led0(1), 
  2873 ;; Auto vars:     Size  Location     Type
  2874 ;;  pin_obj         1    9[COMRAM] struct .
  2875 ;;  ret             1    0        unsigned char 
  2876 ;; Return value:  Size  Location     Type
  2877 ;;                  1    wreg      unsigned char 
  2878 ;; Registers used:
  2879 ;;		wreg, fsr2l, fsr2h, status,2, status,0, prodl, prodh, cstack
  2880 ;; Tracked objects:
  2881 ;;		On entry : 0/0
  2882 ;;		On exit  : 0/0
  2883 ;;		Unchanged: 0/0
  2884 ;; Data sizes:     COMRAM   BANK0   BANK1   BANK2   BANK3   BANK4   BANK5   BANK6   BANK7   BANK8   BANK9  BANK10  BANK1
      +1  BANK12  BANK13  BANK14  BANK15
  2885 ;;      Params:         1       0       0       0       0       0       0       0       0       0       0       0       
      +0       0       0       0       0
  2886 ;;      Locals:         1       0       0       0       0       0       0       0       0       0       0       0       
      +0       0       0       0       0
  2887 ;;      Temps:          1       0       0       0       0       0       0       0       0       0       0       0       
      +0       0       0       0       0
  2888 ;;      Totals:         3       0       0       0       0       0       0       0       0       0       0       0       
      +0       0       0       0       0
  2889 ;;Total ram usage:        3 bytes
  2890 ;; Hardware stack levels used: 1
  2891 ;; Hardware stack levels required when called: 1
  2892 ;; This function calls:
  2893 ;;		i2_gpio_pin_write_logic
  2894 ;; This function is called by:
  2895 ;;		_ADC_DefaultInterruptHandler
  2896 ;; This function uses a non-reentrant model
  2897 ;;
  2898                           
  2899                           	psect	text23
  2900   00198A                     __ptext23:
  2901                           	callstack 0
  2902   00198A                     _led_turn_on:
  2903                           	callstack 22
  2904   00198A                     
  2905                           ;ECU_Layer/led/led.c: 39:     if(((void*)0) == led){
  2906   00198A  5053               	movf	led_turn_on@led^0,w,c
  2907   00198C  A4D8               	btfss	status,2,c
  2908   00198E  EFCB  F00C         	goto	i2u150_41
  2909   001992  EFCD  F00C         	goto	i2u150_40
  2910   001996                     i2u150_41:
  2911   001996  EFCF  F00C         	goto	i2l16
  2912   00199A                     i2u150_40:
  2913   00199A                     
  2914                           ;ECU_Layer/led/led.c: 41:     }else{
  2915   00199A  EFF9  F00C         	goto	i2l20
  2916   00199E                     i2l16:
  2917                           
  2918                           ;ECU_Layer/led/led.c: 42:       pin_config_t pin_obj ={
  2919   00199E  C048  F055         	movff	led_turn_on@F3067,led_turn_on@pin_obj
  2920   0019A2  5053               	movf	led_turn_on@led^0,w,c
  2921   0019A4  6ED9               	movwf	fsr2l,c
  2922   0019A6  6ADA               	clrf	fsr2h,c
  2923   0019A8  50DF               	movf	223,w,c
  2924   0019AA  0B0F               	andlw	15
  2925   0019AC  6E54               	movwf	??_led_turn_on^0,c
  2926   0019AE  5055               	movf	led_turn_on@pin_obj^0,w,c
  2927   0019B0  1854               	xorwf	??_led_turn_on^0,w,c
  2928   0019B2  0BF8               	andlw	-8
  2929   0019B4  1854               	xorwf	??_led_turn_on^0,w,c
  2930   0019B6  6E55               	movwf	led_turn_on@pin_obj^0,c
  2931   0019B8  5053               	movf	led_turn_on@led^0,w,c
  2932   0019BA  6ED9               	movwf	fsr2l,c
  2933   0019BC  6ADA               	clrf	fsr2h,c
  2934   0019BE  38DF               	swapf	223,w,c
  2935   0019C0  0B07               	andlw	7
  2936   0019C2  6E54               	movwf	??_led_turn_on^0,c
  2937   0019C4  4654               	rlncf	??_led_turn_on^0,f,c
  2938   0019C6  4654               	rlncf	??_led_turn_on^0,f,c
  2939   0019C8  4654               	rlncf	??_led_turn_on^0,f,c
  2940   0019CA  5055               	movf	led_turn_on@pin_obj^0,w,c
  2941   0019CC  1854               	xorwf	??_led_turn_on^0,w,c
  2942   0019CE  0BC7               	andlw	-57
  2943   0019D0  1854               	xorwf	??_led_turn_on^0,w,c
  2944   0019D2  6E55               	movwf	led_turn_on@pin_obj^0,c
  2945   0019D4  9C55               	bcf	led_turn_on@pin_obj^0,6,c
  2946   0019D6  5053               	movf	led_turn_on@led^0,w,c
  2947   0019D8  6ED9               	movwf	fsr2l,c
  2948   0019DA  6ADA               	clrf	fsr2h,c
  2949   0019DC  AEDF               	btfss	indf2,7,c
  2950   0019DE  D002               	bra	i2u151_45
  2951   0019E0  8E55               	bsf	led_turn_on@pin_obj^0,7,c
  2952   0019E2  D001               	bra	i2u151_47
  2953   0019E4                     i2u151_45:
  2954   0019E4  9E55               	bcf	led_turn_on@pin_obj^0,7,c
  2955   0019E6                     i2u151_47:
  2956   0019E6                     
  2957                           ;ECU_Layer/led/led.c: 48:       gpio_pin_write_logic(&pin_obj,GPIO_HIGH);
  2958   0019E6  0E55               	movlw	low led_turn_on@pin_obj
  2959   0019E8  6E4C               	movwf	i2gpio_pin_write_logic@_pin_config^0,c
  2960   0019EA  0E01               	movlw	1
  2961   0019EC  6E4D               	movwf	i2gpio_pin_write_logic@logic^0,c
  2962   0019EE  EC7D  F00A         	call	i2_gpio_pin_write_logic	;wreg free
  2963   0019F2                     i2l20:
  2964   0019F2  0012               	return		;funcret
  2965   0019F4                     __end_of_led_turn_on:
  2966                           	callstack 0
  2967                           
  2968 ;; *************** function _led_turn_off *****************
  2969 ;; Defined at:
  2970 ;;		line 60 in file "ECU_Layer/led/led.c"
  2971 ;; Parameters:    Size  Location     Type
  2972 ;;  led             1    7[COMRAM] PTR const struct .
  2973 ;;		 -> led3(1), led2(1), led1(1), led0(1), 
  2974 ;; Auto vars:     Size  Location     Type
  2975 ;;  pin_obj         1    9[COMRAM] struct .
  2976 ;;  ret             1    0        unsigned char 
  2977 ;; Return value:  Size  Location     Type
  2978 ;;                  1    wreg      unsigned char 
  2979 ;; Registers used:
  2980 ;;		wreg, fsr2l, fsr2h, status,2, status,0, prodl, prodh, cstack
  2981 ;; Tracked objects:
  2982 ;;		On entry : 0/0
  2983 ;;		On exit  : 0/0
  2984 ;;		Unchanged: 0/0
  2985 ;; Data sizes:     COMRAM   BANK0   BANK1   BANK2   BANK3   BANK4   BANK5   BANK6   BANK7   BANK8   BANK9  BANK10  BANK1
      +1  BANK12  BANK13  BANK14  BANK15
  2986 ;;      Params:         1       0       0       0       0       0       0       0       0       0       0       0       
      +0       0       0       0       0
  2987 ;;      Locals:         1       0       0       0       0       0       0       0       0       0       0       0       
      +0       0       0       0       0
  2988 ;;      Temps:          1       0       0       0       0       0       0       0       0       0       0       0       
      +0       0       0       0       0
  2989 ;;      Totals:         3       0       0       0       0       0       0       0       0       0       0       0       
      +0       0       0       0       0
  2990 ;;Total ram usage:        3 bytes
  2991 ;; Hardware stack levels used: 1
  2992 ;; Hardware stack levels required when called: 1
  2993 ;; This function calls:
  2994 ;;		i2_gpio_pin_write_logic
  2995 ;; This function is called by:
  2996 ;;		_ADC_DefaultInterruptHandler
  2997 ;; This function uses a non-reentrant model
  2998 ;;
  2999                           
  3000                           	psect	text24
  3001   0019F4                     __ptext24:
  3002                           	callstack 0
  3003   0019F4                     _led_turn_off:
  3004                           	callstack 22
  3005   0019F4                     
  3006                           ;ECU_Layer/led/led.c: 62:     if(((void*)0) == led){
  3007   0019F4  5053               	movf	led_turn_off@led^0,w,c
  3008   0019F6  A4D8               	btfss	status,2,c
  3009   0019F8  EF00  F00D         	goto	i2u152_41
  3010   0019FC  EF02  F00D         	goto	i2u152_40
  3011   001A00                     i2u152_41:
  3012   001A00  EF04  F00D         	goto	i2l23
  3013   001A04                     i2u152_40:
  3014   001A04                     
  3015                           ;ECU_Layer/led/led.c: 64:     }else{
  3016   001A04  EF2E  F00D         	goto	i2l27
  3017   001A08                     i2l23:
  3018                           
  3019                           ;ECU_Layer/led/led.c: 65:         pin_config_t pin_obj ={
  3020   001A08  C047  F055         	movff	led_turn_off@F3072,led_turn_off@pin_obj
  3021   001A0C  5053               	movf	led_turn_off@led^0,w,c
  3022   001A0E  6ED9               	movwf	fsr2l,c
  3023   001A10  6ADA               	clrf	fsr2h,c
  3024   001A12  50DF               	movf	223,w,c
  3025   001A14  0B0F               	andlw	15
  3026   001A16  6E54               	movwf	??_led_turn_off^0,c
  3027   001A18  5055               	movf	led_turn_off@pin_obj^0,w,c
  3028   001A1A  1854               	xorwf	??_led_turn_off^0,w,c
  3029   001A1C  0BF8               	andlw	-8
  3030   001A1E  1854               	xorwf	??_led_turn_off^0,w,c
  3031   001A20  6E55               	movwf	led_turn_off@pin_obj^0,c
  3032   001A22  5053               	movf	led_turn_off@led^0,w,c
  3033   001A24  6ED9               	movwf	fsr2l,c
  3034   001A26  6ADA               	clrf	fsr2h,c
  3035   001A28  38DF               	swapf	223,w,c
  3036   001A2A  0B07               	andlw	7
  3037   001A2C  6E54               	movwf	??_led_turn_off^0,c
  3038   001A2E  4654               	rlncf	??_led_turn_off^0,f,c
  3039   001A30  4654               	rlncf	??_led_turn_off^0,f,c
  3040   001A32  4654               	rlncf	??_led_turn_off^0,f,c
  3041   001A34  5055               	movf	led_turn_off@pin_obj^0,w,c
  3042   001A36  1854               	xorwf	??_led_turn_off^0,w,c
  3043   001A38  0BC7               	andlw	-57
  3044   001A3A  1854               	xorwf	??_led_turn_off^0,w,c
  3045   001A3C  6E55               	movwf	led_turn_off@pin_obj^0,c
  3046   001A3E  9C55               	bcf	led_turn_off@pin_obj^0,6,c
  3047   001A40  5053               	movf	led_turn_off@led^0,w,c
  3048   001A42  6ED9               	movwf	fsr2l,c
  3049   001A44  6ADA               	clrf	fsr2h,c
  3050   001A46  AEDF               	btfss	indf2,7,c
  3051   001A48  D002               	bra	i2u153_45
  3052   001A4A  8E55               	bsf	led_turn_off@pin_obj^0,7,c
  3053   001A4C  D001               	bra	i2u153_47
  3054   001A4E                     i2u153_45:
  3055   001A4E  9E55               	bcf	led_turn_off@pin_obj^0,7,c
  3056   001A50                     i2u153_47:
  3057   001A50                     
  3058                           ;ECU_Layer/led/led.c: 71:       gpio_pin_write_logic(&pin_obj,GPIO_LOW);
  3059   001A50  0E55               	movlw	low led_turn_off@pin_obj
  3060   001A52  6E4C               	movwf	i2gpio_pin_write_logic@_pin_config^0,c
  3061   001A54  0E00               	movlw	0
  3062   001A56  6E4D               	movwf	i2gpio_pin_write_logic@logic^0,c
  3063   001A58  EC7D  F00A         	call	i2_gpio_pin_write_logic	;wreg free
  3064   001A5C                     i2l27:
  3065   001A5C  0012               	return		;funcret
  3066   001A5E                     __end_of_led_turn_off:
  3067                           	callstack 0
  3068                           
  3069 ;; *************** function i2_gpio_pin_write_logic *****************
  3070 ;; Defined at:
  3071 ;;		line 70 in file "MCAL_Layer/GPIO/hal_gpio.c"
  3072 ;; Parameters:    Size  Location     Type
  3073 ;;  _pin_config     1    0[COMRAM] PTR const struct .
  3074 ;;		 -> led_turn_off@pin_obj(1), led_turn_on@pin_obj(1), led_intialize@pin_obj(1), 
  3075 ;;  logic           1    1[COMRAM] enum E2982
  3076 ;; Auto vars:     Size  Location     Type
  3077 ;;  ret             1    0        unsigned char 
  3078 ;; Return value:  Size  Location     Type
  3079 ;;                  1    wreg      unsigned char 
  3080 ;; Registers used:
  3081 ;;		wreg, fsr2l, fsr2h, status,2, status,0, prodl, prodh
  3082 ;; Tracked objects:
  3083 ;;		On entry : 0/0
  3084 ;;		On exit  : 0/0
  3085 ;;		Unchanged: 0/0
  3086 ;; Data sizes:     COMRAM   BANK0   BANK1   BANK2   BANK3   BANK4   BANK5   BANK6   BANK7   BANK8   BANK9  BANK10  BANK1
      +1  BANK12  BANK13  BANK14  BANK15
  3087 ;;      Params:         2       0       0       0       0       0       0       0       0       0       0       0       
      +0       0       0       0       0
  3088 ;;      Locals:         0       0       0       0       0       0       0       0       0       0       0       0       
      +0       0       0       0       0
  3089 ;;      Temps:          5       0       0       0       0       0       0       0       0       0       0       0       
      +0       0       0       0       0
  3090 ;;      Totals:         7       0       0       0       0       0       0       0       0       0       0       0       
      +0       0       0       0       0
  3091 ;;Total ram usage:        7 bytes
  3092 ;; Hardware stack levels used: 1
  3093 ;; This function calls:
  3094 ;;		Nothing
  3095 ;; This function is called by:
  3096 ;;		_led_turn_on
  3097 ;;		_led_turn_off
  3098 ;; This function uses a non-reentrant model
  3099 ;;
  3100                           
  3101                           	psect	text25
  3102   0014FA                     __ptext25:
  3103                           	callstack 0
  3104   0014FA                     i2_gpio_pin_write_logic:
  3105                           	callstack 22
  3106   0014FA                     
  3107                           ;MCAL_Layer/GPIO/hal_gpio.c: 72:     if(((void*)0)==_pin_config|| _pin_config->pin >8 -1
      +                           ){
  3108   0014FA  504C               	movf	i2gpio_pin_write_logic@_pin_config^0,w,c
  3109   0014FC  B4D8               	btfsc	status,2,c
  3110   0014FE  EF83  F00A         	goto	i2u144_41
  3111   001502  EF85  F00A         	goto	i2u144_40
  3112   001506                     i2u144_41:
  3113   001506  EF95  F00A         	goto	i2l2210
  3114   00150A                     i2u144_40:
  3115   00150A  504C               	movf	i2gpio_pin_write_logic@_pin_config^0,w,c
  3116   00150C  6ED9               	movwf	fsr2l,c
  3117   00150E  6ADA               	clrf	fsr2h,c
  3118   001510  30DF               	rrcf	223,w,c
  3119   001512  32E8               	rrcf	wreg,f,c
  3120   001514  32E8               	rrcf	wreg,f,c
  3121   001516  0B07               	andlw	7
  3122   001518  6E4E               	movwf	??i2_gpio_pin_write_logic^0,c
  3123   00151A  0E07               	movlw	7
  3124   00151C  644E               	cpfsgt	??i2_gpio_pin_write_logic^0,c
  3125   00151E  EF93  F00A         	goto	i2u145_41
  3126   001522  EF95  F00A         	goto	i2u145_40
  3127   001526                     i2u145_41:
  3128   001526  EFEA  F00A         	goto	i2l2218
  3129   00152A                     i2u145_40:
  3130   00152A                     i2l2210:
  3131                           
  3132                           ;MCAL_Layer/GPIO/hal_gpio.c: 74:     }else{
  3133   00152A  EFFF  F00A         	goto	i2l260
  3134   00152E                     i2l2212:
  3135                           
  3136                           ;MCAL_Layer/GPIO/hal_gpio.c: 77:                 (*lat_registers[_pin_config->port] |= (
      +                          (uint8)1 << _pin_config->pin));
  3137   00152E  504C               	movf	i2gpio_pin_write_logic@_pin_config^0,w,c
  3138   001530  6ED9               	movwf	fsr2l,c
  3139   001532  6ADA               	clrf	fsr2h,c
  3140   001534  30DF               	rrcf	223,w,c
  3141   001536  32E8               	rrcf	wreg,f,c
  3142   001538  32E8               	rrcf	wreg,f,c
  3143   00153A  0B07               	andlw	7
  3144   00153C  6E4E               	movwf	??i2_gpio_pin_write_logic^0,c
  3145   00153E  0E01               	movlw	1
  3146   001540  6E4F               	movwf	(??i2_gpio_pin_write_logic+1)^0,c
  3147   001542  2A4E               	incf	??i2_gpio_pin_write_logic^0,f,c
  3148   001544  EFA6  F00A         	goto	i2u146_44
  3149   001548                     i2u146_45:
  3150   001548  90D8               	bcf	status,0,c
  3151   00154A  364F               	rlcf	(??i2_gpio_pin_write_logic+1)^0,f,c
  3152   00154C                     i2u146_44:
  3153   00154C  2E4E               	decfsz	??i2_gpio_pin_write_logic^0,f,c
  3154   00154E  EFA4  F00A         	goto	i2u146_45
  3155   001552  504C               	movf	i2gpio_pin_write_logic@_pin_config^0,w,c
  3156   001554  6ED9               	movwf	fsr2l,c
  3157   001556  6ADA               	clrf	fsr2h,c
  3158   001558  50DF               	movf	223,w,c
  3159   00155A  0B07               	andlw	7
  3160   00155C  0D02               	mullw	2
  3161   00155E  50F3               	movf	243,w,c
  3162   001560  0F0B               	addlw	low _lat_registers
  3163   001562  6ED9               	movwf	fsr2l,c
  3164   001564  6ADA               	clrf	fsr2h,c
  3165   001566  CFDE F050          	movff	postinc2,??i2_gpio_pin_write_logic+2
  3166   00156A  CFDD F051          	movff	postdec2,??i2_gpio_pin_write_logic+3
  3167   00156E  C050  FFD9         	movff	??i2_gpio_pin_write_logic+2,fsr2l
  3168   001572  C051  FFDA         	movff	??i2_gpio_pin_write_logic+3,fsr2h
  3169   001576  504F               	movf	(??i2_gpio_pin_write_logic+1)^0,w,c
  3170   001578  12DF               	iorwf	indf2,f,c
  3171                           
  3172                           ;MCAL_Layer/GPIO/hal_gpio.c: 78:                 break;
  3173   00157A  EFFF  F00A         	goto	i2l260
  3174   00157E                     i2l2214:
  3175                           
  3176                           ;MCAL_Layer/GPIO/hal_gpio.c: 80:                 (*lat_registers[_pin_config->port] &= ~
      +                          ((uint8)1 << _pin_config->pin));
  3177   00157E  504C               	movf	i2gpio_pin_write_logic@_pin_config^0,w,c
  3178   001580  6ED9               	movwf	fsr2l,c
  3179   001582  6ADA               	clrf	fsr2h,c
  3180   001584  30DF               	rrcf	223,w,c
  3181   001586  32E8               	rrcf	wreg,f,c
  3182   001588  32E8               	rrcf	wreg,f,c
  3183   00158A  0B07               	andlw	7
  3184   00158C  6E4E               	movwf	??i2_gpio_pin_write_logic^0,c
  3185   00158E  0E01               	movlw	1
  3186   001590  6E4F               	movwf	(??i2_gpio_pin_write_logic+1)^0,c
  3187   001592  2A4E               	incf	??i2_gpio_pin_write_logic^0,f,c
  3188   001594  EFCE  F00A         	goto	i2u147_44
  3189   001598                     i2u147_45:
  3190   001598  90D8               	bcf	status,0,c
  3191   00159A  364F               	rlcf	(??i2_gpio_pin_write_logic+1)^0,f,c
  3192   00159C                     i2u147_44:
  3193   00159C  2E4E               	decfsz	??i2_gpio_pin_write_logic^0,f,c
  3194   00159E  EFCC  F00A         	goto	i2u147_45
  3195   0015A2  504F               	movf	(??i2_gpio_pin_write_logic+1)^0,w,c
  3196   0015A4  0AFF               	xorlw	255
  3197   0015A6  6E50               	movwf	(??i2_gpio_pin_write_logic+2)^0,c
  3198   0015A8  504C               	movf	i2gpio_pin_write_logic@_pin_config^0,w,c
  3199   0015AA  6ED9               	movwf	fsr2l,c
  3200   0015AC  6ADA               	clrf	fsr2h,c
  3201   0015AE  50DF               	movf	223,w,c
  3202   0015B0  0B07               	andlw	7
  3203   0015B2  0D02               	mullw	2
  3204   0015B4  50F3               	movf	243,w,c
  3205   0015B6  0F0B               	addlw	low _lat_registers
  3206   0015B8  6ED9               	movwf	fsr2l,c
  3207   0015BA  6ADA               	clrf	fsr2h,c
  3208   0015BC  CFDE F051          	movff	postinc2,??i2_gpio_pin_write_logic+3
  3209   0015C0  CFDD F052          	movff	postdec2,??i2_gpio_pin_write_logic+4
  3210   0015C4  C051  FFD9         	movff	??i2_gpio_pin_write_logic+3,fsr2l
  3211   0015C8  C052  FFDA         	movff	??i2_gpio_pin_write_logic+4,fsr2h
  3212   0015CC  5050               	movf	(??i2_gpio_pin_write_logic+2)^0,w,c
  3213   0015CE  16DF               	andwf	indf2,f,c
  3214                           
  3215                           ;MCAL_Layer/GPIO/hal_gpio.c: 81:                 break;
  3216   0015D0  EFFF  F00A         	goto	i2l260
  3217   0015D4                     i2l2218:
  3218   0015D4  504D               	movf	i2gpio_pin_write_logic@logic^0,w,c
  3219   0015D6  6E4E               	movwf	??i2_gpio_pin_write_logic^0,c
  3220   0015D8  6A4F               	clrf	(??i2_gpio_pin_write_logic+1)^0,c
  3221                           
  3222                           ; Switch on 2 bytes has been partitioned into a top level switch of size 1, and 1 sub-sw
      +                          itches
  3223                           ; Switch size 1, requested type "simple"
  3224                           ; Number of cases is 1, Range of values is 0 to 0
  3225                           ; switch strategies available:
  3226                           ; Name         Instructions Cycles
  3227                           ; simple_byte            4     3 (average)
  3228                           ;	Chosen strategy is simple_byte
  3229   0015DA  504F               	movf	(??i2_gpio_pin_write_logic+1)^0,w,c
  3230   0015DC  0A00               	xorlw	0	; case 0
  3231   0015DE  B4D8               	btfsc	status,2,c
  3232   0015E0  EFF4  F00A         	goto	i2l2614
  3233   0015E4  EF95  F00A         	goto	i2l2210
  3234   0015E8                     i2l2614:
  3235                           
  3236                           ; Switch size 1, requested type "simple"
  3237                           ; Number of cases is 2, Range of values is 0 to 1
  3238                           ; switch strategies available:
  3239                           ; Name         Instructions Cycles
  3240                           ; simple_byte            7     4 (average)
  3241                           ;	Chosen strategy is simple_byte
  3242   0015E8  504E               	movf	??i2_gpio_pin_write_logic^0,w,c
  3243   0015EA  0A00               	xorlw	0	; case 0
  3244   0015EC  B4D8               	btfsc	status,2,c
  3245   0015EE  EFBF  F00A         	goto	i2l2214
  3246   0015F2  0A01               	xorlw	1	; case 1
  3247   0015F4  B4D8               	btfsc	status,2,c
  3248   0015F6  EF97  F00A         	goto	i2l2212
  3249   0015FA  EF95  F00A         	goto	i2l2210
  3250   0015FE                     i2l260:
  3251   0015FE  0012               	return		;funcret
  3252   001600                     __end_ofi2_gpio_pin_write_logic:
  3253                           	callstack 0
  3254                           
  3255 ;; *************** function _ADC_GetConversionResult *****************
  3256 ;; Defined at:
  3257 ;;		line 151 in file "MCAL_Layer/ADC/adc.c"
  3258 ;; Parameters:    Size  Location     Type
  3259 ;;  _adc            1    0[COMRAM] PTR const struct .
  3260 ;;		 -> adc1(6), 
  3261 ;;  Conversion_r    1    1[COMRAM] PTR unsigned short 
  3262 ;;		 -> adc_res_1(2), 
  3263 ;; Auto vars:     Size  Location     Type
  3264 ;;  ret             1    5[COMRAM] unsigned char 
  3265 ;; Return value:  Size  Location     Type
  3266 ;;                  1    wreg      unsigned char 
  3267 ;; Registers used:
  3268 ;;		wreg, fsr2l, fsr2h, status,2, status,0
  3269 ;; Tracked objects:
  3270 ;;		On entry : 0/0
  3271 ;;		On exit  : 0/0
  3272 ;;		Unchanged: 0/0
  3273 ;; Data sizes:     COMRAM   BANK0   BANK1   BANK2   BANK3   BANK4   BANK5   BANK6   BANK7   BANK8   BANK9  BANK10  BANK1
      +1  BANK12  BANK13  BANK14  BANK15
  3274 ;;      Params:         2       0       0       0       0       0       0       0       0       0       0       0       
      +0       0       0       0       0
  3275 ;;      Locals:         1       0       0       0       0       0       0       0       0       0       0       0       
      +0       0       0       0       0
  3276 ;;      Temps:          3       0       0       0       0       0       0       0       0       0       0       0       
      +0       0       0       0       0
  3277 ;;      Totals:         6       0       0       0       0       0       0       0       0       0       0       0       
      +0       0       0       0       0
  3278 ;;Total ram usage:        6 bytes
  3279 ;; Hardware stack levels used: 1
  3280 ;; This function calls:
  3281 ;;		Nothing
  3282 ;; This function is called by:
  3283 ;;		_ADC_DefaultInterruptHandler
  3284 ;;		_ADC_GetConversion_Blocking
  3285 ;; This function uses a non-reentrant model
  3286 ;;
  3287                           
  3288                           	psect	text26
  3289   0017B6                     __ptext26:
  3290                           	callstack 0
  3291   0017B6                     _ADC_GetConversionResult:
  3292                           	callstack 23
  3293   0017B6                     
  3294                           ;MCAL_Layer/ADC/adc.c: 152:     Std_ReturnType ret =(Std_ReturnType)0x01 ;
  3295   0017B6  0E01               	movlw	1
  3296   0017B8  6E51               	movwf	ADC_GetConversionResult@ret^0,c
  3297                           
  3298                           ;MCAL_Layer/ADC/adc.c: 153:     if(((void*)0) == _adc || ((void*)0)==Conversion_result){
  3299   0017BA  504C               	movf	ADC_GetConversionResult@_adc^0,w,c
  3300   0017BC  B4D8               	btfsc	status,2,c
  3301   0017BE  EFE3  F00B         	goto	i2u158_41
  3302   0017C2  EFE5  F00B         	goto	i2u158_40
  3303   0017C6                     i2u158_41:
  3304   0017C6  EFED  F00B         	goto	i2l2278
  3305   0017CA                     i2u158_40:
  3306   0017CA  504D               	movf	ADC_GetConversionResult@Conversion_result^0,w,c
  3307   0017CC  A4D8               	btfss	status,2,c
  3308   0017CE  EFEB  F00B         	goto	i2u159_41
  3309   0017D2  EFED  F00B         	goto	i2u159_40
  3310   0017D6                     i2u159_41:
  3311   0017D6  EFF1  F00B         	goto	i2l2280
  3312   0017DA                     i2u159_40:
  3313   0017DA                     i2l2278:
  3314                           
  3315                           ;MCAL_Layer/ADC/adc.c: 154:         ret = (Std_ReturnType)0x00;
  3316   0017DA  0E00               	movlw	0
  3317   0017DC  6E51               	movwf	ADC_GetConversionResult@ret^0,c
  3318                           
  3319                           ;MCAL_Layer/ADC/adc.c: 155:     }else{
  3320   0017DE  EF35  F00C         	goto	i2l2288
  3321   0017E2                     i2l2280:
  3322                           
  3323                           ;MCAL_Layer/ADC/adc.c: 156:        if(0x01U == _adc->result_format){
  3324   0017E2  504C               	movf	ADC_GetConversionResult@_adc^0,w,c
  3325   0017E4  6ED9               	movwf	fsr2l,c
  3326   0017E6  6ADA               	clrf	fsr2h,c
  3327   0017E8  0E05               	movlw	5
  3328   0017EA  26D9               	addwf	fsr2l,f,c
  3329   0017EC  A2DF               	btfss	indf2,1,c
  3330   0017EE  EFFB  F00B         	goto	i2u160_41
  3331   0017F2  EFFD  F00B         	goto	i2u160_40
  3332   0017F6                     i2u160_41:
  3333   0017F6  EF10  F00C         	goto	i2l2284
  3334   0017FA                     i2u160_40:
  3335   0017FA                     
  3336                           ;MCAL_Layer/ADC/adc.c: 157:           *Conversion_result = (uint16)((ADRESH << 8 )+ ADRE
      +                          SL) ;
  3337   0017FA  50C3               	movf	195,w,c	;volatile
  3338   0017FC  CFC4 F04E          	movff	4036,??_ADC_GetConversionResult	;volatile
  3339   001800  6A4F               	clrf	(??_ADC_GetConversionResult+1)^0,c
  3340   001802  C04E  F04F         	movff	??_ADC_GetConversionResult,??_ADC_GetConversionResult+1
  3341   001806  6A4E               	clrf	??_ADC_GetConversionResult^0,c
  3342   001808  264E               	addwf	??_ADC_GetConversionResult^0,f,c
  3343   00180A  0E00               	movlw	0
  3344   00180C  224F               	addwfc	(??_ADC_GetConversionResult+1)^0,f,c
  3345   00180E  504D               	movf	ADC_GetConversionResult@Conversion_result^0,w,c
  3346   001810  6ED9               	movwf	fsr2l,c
  3347   001812  6ADA               	clrf	fsr2h,c
  3348   001814  C04E  FFDE         	movff	??_ADC_GetConversionResult,postinc2
  3349   001818  C04F  FFDD         	movff	??_ADC_GetConversionResult+1,postdec2
  3350                           
  3351                           ;MCAL_Layer/ADC/adc.c: 158:        }
  3352   00181C  EF35  F00C         	goto	i2l2288
  3353   001820                     i2l2284:
  3354   001820  504C               	movf	ADC_GetConversionResult@_adc^0,w,c
  3355   001822  6ED9               	movwf	fsr2l,c
  3356   001824  6ADA               	clrf	fsr2h,c
  3357   001826  0E05               	movlw	5
  3358   001828  26D9               	addwf	fsr2l,f,c
  3359   00182A  B2DF               	btfsc	indf2,1,c
  3360   00182C  EF1A  F00C         	goto	i2u161_41
  3361   001830  EF1C  F00C         	goto	i2u161_40
  3362   001834                     i2u161_41:
  3363   001834  EF35  F00C         	goto	i2l2288
  3364   001838                     i2u161_40:
  3365   001838                     
  3366                           ;MCAL_Layer/ADC/adc.c: 160:           *Conversion_result = (uint16)(((ADRESH << 8 )+ ADR
      +                          ESL)>>6) ;
  3367   001838  50C3               	movf	195,w,c	;volatile
  3368   00183A  CFC4 F04E          	movff	4036,??_ADC_GetConversionResult	;volatile
  3369   00183E  6A4F               	clrf	(??_ADC_GetConversionResult+1)^0,c
  3370   001840  C04E  F04F         	movff	??_ADC_GetConversionResult,??_ADC_GetConversionResult+1
  3371   001844  6A4E               	clrf	??_ADC_GetConversionResult^0,c
  3372   001846  264E               	addwf	??_ADC_GetConversionResult^0,f,c
  3373   001848  0E00               	movlw	0
  3374   00184A  224F               	addwfc	(??_ADC_GetConversionResult+1)^0,f,c
  3375   00184C  0E06               	movlw	6
  3376   00184E  6E50               	movwf	(??_ADC_GetConversionResult+2)^0,c
  3377   001850                     i2u162_45:
  3378   001850  344F               	rlcf	(??_ADC_GetConversionResult+1)^0,w,c
  3379   001852  324F               	rrcf	(??_ADC_GetConversionResult+1)^0,f,c
  3380   001854  324E               	rrcf	??_ADC_GetConversionResult^0,f,c
  3381   001856  2E50               	decfsz	(??_ADC_GetConversionResult+2)^0,f,c
  3382   001858  EF28  F00C         	goto	i2u162_45
  3383   00185C  504D               	movf	ADC_GetConversionResult@Conversion_result^0,w,c
  3384   00185E  6ED9               	movwf	fsr2l,c
  3385   001860  6ADA               	clrf	fsr2h,c
  3386   001862  C04E  FFDE         	movff	??_ADC_GetConversionResult,postinc2
  3387   001866  C04F  FFDD         	movff	??_ADC_GetConversionResult+1,postdec2
  3388   00186A                     i2l2288:
  3389                           
  3390                           ;MCAL_Layer/ADC/adc.c: 163:     return ret ;
  3391   00186A  5051               	movf	ADC_GetConversionResult@ret^0,w,c
  3392   00186C  0012               	return		;funcret
  3393   00186E                     __end_of_ADC_GetConversionResult:
  3394                           	callstack 0
  3395                           
  3396                           	psect	smallconst
  3397   001000                     __psmallconst:
  3398                           	callstack 0
  3399   001000  00                 	db	0
  3400   001001  00                 	db	0	; dummy byte at the end
  3401   000000                     
  3402                           	psect	rparam
  3403   000000                     
  3404                           	psect	temp
  3405   00006B                     btemp:
  3406                           	callstack 0
  3407   00006B                     	ds	1
  3408   000000                     int$flags	set	btemp
  3409   000000                     wtemp8	set	btemp+1
  3410   000000                     ttemp5	set	btemp+1
  3411   000000                     ttemp6	set	btemp+4
  3412   000000                     ttemp7	set	btemp+8
  3413                           
  3414                           	psect	config
  3415                           
  3416                           ; Padding undefined space
  3417   300000                     	org	3145728
  3418   300000  FF                 	db	255
  3419                           
  3420                           ;Config register CONFIG1H @ 0x300001
  3421                           ;	Oscillator Selection bits
  3422                           ;	OSC = HS, HS oscillator
  3423                           ;	Fail-Safe Clock Monitor Enable bit
  3424                           ;	FCMEN = OFF, Fail-Safe Clock Monitor disabled
  3425                           ;	Internal/External Oscillator Switchover bit
  3426                           ;	IESO = OFF, Oscillator Switchover mode disabled
  3427   300001                     	org	3145729
  3428   300001  02                 	db	2
  3429                           
  3430                           ;Config register CONFIG2L @ 0x300002
  3431                           ;	Power-up Timer Enable bit
  3432                           ;	PWRT = OFF, PWRT disabled
  3433                           ;	Brown-out Reset Enable bits
  3434                           ;	BOREN = OFF, Brown-out Reset disabled in hardware and software
  3435                           ;	Brown Out Reset Voltage bits
  3436                           ;	BORV = 1, 
  3437   300002                     	org	3145730
  3438   300002  09                 	db	9
  3439                           
  3440                           ;Config register CONFIG2H @ 0x300003
  3441                           ;	Watchdog Timer Enable bit
  3442                           ;	WDT = OFF, WDT disabled (control is placed on the SWDTEN bit)
  3443                           ;	Watchdog Timer Postscale Select bits
  3444                           ;	WDTPS = 32768, 1:32768
  3445   300003                     	org	3145731
  3446   300003  1E                 	db	30
  3447                           
  3448                           ; Padding undefined space
  3449   300004                     	org	3145732
  3450   300004  FF                 	db	255
  3451                           
  3452                           ;Config register CONFIG3H @ 0x300005
  3453                           ;	CCP2 MUX bit
  3454                           ;	CCP2MX = PORTC, CCP2 input/output is multiplexed with RC1
  3455                           ;	PORTB A/D Enable bit
  3456                           ;	PBADEN = OFF, PORTB<4:0> pins are configured as digital I/O on Reset
  3457                           ;	Low-Power Timer1 Oscillator Enable bit
  3458                           ;	LPT1OSC = OFF, Timer1 configured for higher power operation
  3459                           ;	MCLR Pin Enable bit
  3460                           ;	MCLRE = ON, MCLR pin enabled; RE3 input pin disabled
  3461   300005                     	org	3145733
  3462   300005  81                 	db	129
  3463                           
  3464                           ;Config register CONFIG4L @ 0x300006
  3465                           ;	Stack Full/Underflow Reset Enable bit
  3466                           ;	STVREN = ON, Stack full/underflow will cause Reset
  3467                           ;	Single-Supply ICSP Enable bit
  3468                           ;	LVP = OFF, Single-Supply ICSP disabled
  3469                           ;	Extended Instruction Set Enable bit
  3470                           ;	XINST = OFF, Instruction set extension and Indexed Addressing mode disabled (Legacy mo
      +                          de)
  3471                           ;	Background Debugger Enable bit
  3472                           ;	DEBUG = 0x1, unprogrammed default
  3473   300006                     	org	3145734
  3474   300006  81                 	db	129
  3475                           
  3476                           ; Padding undefined space
  3477   300007                     	org	3145735
  3478   300007  FF                 	db	255
  3479                           
  3480                           ;Config register CONFIG5L @ 0x300008
  3481                           ;	Code Protection bit
  3482                           ;	CP0 = OFF, Block 0 (000800-003FFFh) not code-protected
  3483                           ;	Code Protection bit
  3484                           ;	CP1 = OFF, Block 1 (004000-007FFFh) not code-protected
  3485                           ;	Code Protection bit
  3486                           ;	CP2 = OFF, Block 2 (008000-00BFFFh) not code-protected
  3487                           ;	Code Protection bit
  3488                           ;	CP3 = OFF, Block 3 (00C000-00FFFFh) not code-protected
  3489   300008                     	org	3145736
  3490   300008  0F                 	db	15
  3491                           
  3492                           ;Config register CONFIG5H @ 0x300009
  3493                           ;	Boot Block Code Protection bit
  3494                           ;	CPB = OFF, Boot block (000000-0007FFh) not code-protected
  3495                           ;	Data EEPROM Code Protection bit
  3496                           ;	CPD = OFF, Data EEPROM not code-protected
  3497   300009                     	org	3145737
  3498   300009  C0                 	db	192
  3499                           
  3500                           ;Config register CONFIG6L @ 0x30000A
  3501                           ;	Write Protection bit
  3502                           ;	WRT0 = OFF, Block 0 (000800-003FFFh) not write-protected
  3503                           ;	Write Protection bit
  3504                           ;	WRT1 = OFF, Block 1 (004000-007FFFh) not write-protected
  3505                           ;	Write Protection bit
  3506                           ;	WRT2 = OFF, Block 2 (008000-00BFFFh) not write-protected
  3507                           ;	Write Protection bit
  3508                           ;	WRT3 = OFF, Block 3 (00C000-00FFFFh) not write-protected
  3509   30000A                     	org	3145738
  3510   30000A  0F                 	db	15
  3511                           
  3512                           ;Config register CONFIG6H @ 0x30000B
  3513                           ;	Configuration Register Write Protection bit
  3514                           ;	WRTC = OFF, Configuration registers (300000-3000FFh) not write-protected
  3515                           ;	Boot Block Write Protection bit
  3516                           ;	WRTB = OFF, Boot Block (000000-0007FFh) not write-protected
  3517                           ;	Data EEPROM Write Protection bit
  3518                           ;	WRTD = OFF, Data EEPROM not write-protected
  3519   30000B                     	org	3145739
  3520   30000B  E0                 	db	224
  3521                           
  3522                           ;Config register CONFIG7L @ 0x30000C
  3523                           ;	Table Read Protection bit
  3524                           ;	EBTR0 = OFF, Block 0 (000800-003FFFh) not protected from table reads executed in other
      +                           blocks
  3525                           ;	Table Read Protection bit
  3526                           ;	EBTR1 = OFF, Block 1 (004000-007FFFh) not protected from table reads executed in other
      +                           blocks
  3527                           ;	Table Read Protection bit
  3528                           ;	EBTR2 = OFF, Block 2 (008000-00BFFFh) not protected from table reads executed in other
      +                           blocks
  3529                           ;	Table Read Protection bit
  3530                           ;	EBTR3 = OFF, Block 3 (00C000-00FFFFh) not protected from table reads executed in other
      +                           blocks
  3531   30000C                     	org	3145740
  3532   30000C  0F                 	db	15
  3533                           
  3534                           ;Config register CONFIG7H @ 0x30000D
  3535                           ;	Boot Block Table Read Protection bit
  3536                           ;	EBTRB = OFF, Boot Block (000000-0007FFh) not protected from table reads executed in ot
      +                          her blocks
  3537   30000D                     	org	3145741
  3538   30000D  40                 	db	64
  3539                           tosu	equ	0xFFF
  3540                           tosh	equ	0xFFE
  3541                           tosl	equ	0xFFD
  3542                           stkptr	equ	0xFFC
  3543                           pclatu	equ	0xFFB
  3544                           pclath	equ	0xFFA
  3545                           pcl	equ	0xFF9
  3546                           tblptru	equ	0xFF8
  3547                           tblptrh	equ	0xFF7
  3548                           tblptrl	equ	0xFF6
  3549                           tablat	equ	0xFF5
  3550                           prodh	equ	0xFF4
  3551                           prodl	equ	0xFF3
  3552                           indf0	equ	0xFEF
  3553                           postinc0	equ	0xFEE
  3554                           postdec0	equ	0xFED
  3555                           preinc0	equ	0xFEC
  3556                           plusw0	equ	0xFEB
  3557                           fsr0h	equ	0xFEA
  3558                           fsr0l	equ	0xFE9
  3559                           wreg	equ	0xFE8
  3560                           indf1	equ	0xFE7
  3561                           postinc1	equ	0xFE6
  3562                           postdec1	equ	0xFE5
  3563                           preinc1	equ	0xFE4
  3564                           plusw1	equ	0xFE3
  3565                           fsr1h	equ	0xFE2
  3566                           fsr1l	equ	0xFE1
  3567                           bsr	equ	0xFE0
  3568                           indf2	equ	0xFDF
  3569                           postinc2	equ	0xFDE
  3570                           postdec2	equ	0xFDD
  3571                           preinc2	equ	0xFDC
  3572                           plusw2	equ	0xFDB
  3573                           fsr2h	equ	0xFDA
  3574                           fsr2l	equ	0xFD9
  3575                           status	equ	0xFD8

Data Sizes:
    Strings     0
    Constant    0
    Data        44
    BSS         31
    Persistent  0
    Stack       0

Auto Spaces:
    Space          Size  Autos    Used
    COMRAM          126     31     106
    BANK0           128      0       0
    BANK1           256      0       0
    BANK2           256      0       0
    BANK3           256      0       0
    BANK4           256      0       0
    BANK5           256      0       0
    BANK6           256      0       0
    BANK7           256      0       0
    BANK8           256      0       0
    BANK9           256      0       0
    BANK10          256      0       0
    BANK11          256      0       0
    BANK12          256      0       0
    BANK13          256      0       0
    BANK14          256      0       0
    BANK15          128      0       0

Pointer List with Targets:

    adc1$ADC_InterruptHandler	PTR FTN()void  size(2) Largest target is 1
		 -> ADC_DefaultInterruptHandler(), 

    ADC_GetConversionResult@_adc	PTR const struct . size(1) Largest target is 6
		 -> adc1(COMRAM[6]), 

    ADC_GetConversionResult@_adc$ADC_InterruptHandler	PTR FTN()void  size(2) Largest target is 1
		 -> ADC_DefaultInterruptHandler(), 

    ADC_GetConversionResult@Conversion_result	PTR unsigned short  size(1) Largest target is 2
		 -> adc_res_1(COMRAM[2]), 

    ADC_Init@_adc	PTR const struct . size(1) Largest target is 6
		 -> adc1(COMRAM[6]), 

    ADC_Init@_adc$ADC_InterruptHandler	PTR FTN()void  size(2) Largest target is 1
		 -> ADC_DefaultInterruptHandler(), 

    ADC_InterruptHandler	PTR FTN()void  size(2) Largest target is 1
		 -> ADC_DefaultInterruptHandler(), NULL(), 

    ADC_SelectChannel@_adc	PTR const struct . size(1) Largest target is 6
		 -> adc1(COMRAM[6]), 

    ADC_StartConversion@_adc	PTR const struct . size(1) Largest target is 6
		 -> adc1(COMRAM[6]), 

    ADC_StartConversion_Interrupt@_adc	PTR const struct . size(1) Largest target is 6
		 -> adc1(COMRAM[6]), 

    configure_voltage_reference@_adc	PTR const struct . size(1) Largest target is 6
		 -> adc1(COMRAM[6]), 

    configure_voltage_reference@_adc$ADC_InterruptHandler	PTR FTN()void  size(2) Largest target is 1
		 -> ADC_DefaultInterruptHandler(), 

    gpio_pin_direction_intialize@_pin_config	PTR const struct . size(1) Largest target is 1
		 -> led_intialize@pin_obj(COMRAM[1]), 

    gpio_pin_intialize@_pin_config	PTR const struct . size(1) Largest target is 1
		 -> led_intialize@pin_obj(COMRAM[1]), 

    gpio_pin_write_logic@_pin_config	PTR const struct . size(1) Largest target is 1
		 -> led_intialize@pin_obj(COMRAM[1]), led_turn_off@pin_obj(COMRAM[1]), led_turn_on@pin_obj(COMRAM[1]), 

    INT0_InterruptHandler	PTR FTN()void  size(2) Largest target is 1
		 -> NULL(), 

    INT1_InterruptHandler	PTR FTN()void  size(2) Largest target is 1
		 -> NULL(), 

    INT2_InterruptHandler	PTR FTN()void  size(2) Largest target is 1
		 -> NULL(), 

    Interrupt_INTx_Clear_Flag@int_obj$EXT_InterruptHandler	PTR FTN()void  size(2) Largest target is 0

    Interrupt_INTx_DeInit@int_obj$EXT_InterruptHandler	PTR FTN()void  size(2) Largest target is 0

    Interrupt_INTx_Disable@int_obj$EXT_InterruptHandler	PTR FTN()void  size(2) Largest target is 0

    Interrupt_INTx_Edge_Init@int_obj$EXT_InterruptHandler	PTR FTN()void  size(2) Largest target is 0

    Interrupt_INTx_Enable@int_obj$EXT_InterruptHandler	PTR FTN()void  size(2) Largest target is 0

    Interrupt_INTx_Pin_Init@int_obj$EXT_InterruptHandler	PTR FTN()void  size(2) Largest target is 0

    Interrupt_INTx_SetInterruptHandler@int_obj$EXT_InterruptHandler	PTR FTN()void  size(2) Largest target is 0

    Interrupt_RBx_Init@int_obj$EXT_InterruptHandlerHigh	PTR FTN()void  size(2) Largest target is 0

    Interrupt_RBx_Init@int_obj$EXT_InterruptHandlerLow	PTR FTN()void  size(2) Largest target is 0

    Interrupt_RBx_Pin_Init@int_obj$EXT_InterruptHandlerHigh	PTR FTN()void  size(2) Largest target is 0

    Interrupt_RBx_Pin_Init@int_obj$EXT_InterruptHandlerLow	PTR FTN()void  size(2) Largest target is 0

    lat_registers	PTR volatile unsigned char [5] size(2) Largest target is 1
		 -> LATA(BITBIGSFRlllll[1]), LATB(BITBIGSFRllllh[1]), LATC(BITBIGSFRllllh[1]), LATD(BITBIGSFRllllh[1]), 
		 -> LATE(BITBIGSFRllllh[1]), 

    led_intialize@led	PTR const struct . size(1) Largest target is 1
		 -> led0(COMRAM[1]), led1(COMRAM[1]), led2(COMRAM[1]), led3(COMRAM[1]), 

    led_turn_off@led	PTR const struct . size(1) Largest target is 1
		 -> led0(COMRAM[1]), led1(COMRAM[1]), led2(COMRAM[1]), led3(COMRAM[1]), 

    led_turn_on@led	PTR const struct . size(1) Largest target is 1
		 -> led0(COMRAM[1]), led1(COMRAM[1]), led2(COMRAM[1]), led3(COMRAM[1]), 

    port_registers	PTR volatile unsigned char [5] size(2) Largest target is 1
		 -> PORTA(BITBIGSFRlllll[1]), PORTB(BITBIGSFRlllll[1]), PORTC(BITBIGSFRlllll[1]), PORTD(BITBIGSFRlllll[1]), 
		 -> PORTE(BITBIGSFRlllll[1]), 

    RB4_InterruptHandlerHigh	PTR FTN()void  size(2) Largest target is 1
		 -> NULL(), 

    RB4_InterruptHandlerLow	PTR FTN()void  size(2) Largest target is 1
		 -> NULL(), 

    RB5_InterruptHandlerHigh	PTR FTN()void  size(2) Largest target is 1
		 -> NULL(), 

    RB5_InterruptHandlerLow	PTR FTN()void  size(2) Largest target is 1
		 -> NULL(), 

    RB6_InterruptHandlerHigh	PTR FTN()void  size(2) Largest target is 1
		 -> NULL(), 

    RB6_InterruptHandlerLow	PTR FTN()void  size(2) Largest target is 1
		 -> NULL(), 

    RB7_InterruptHandlerHigh	PTR FTN()void  size(2) Largest target is 1
		 -> NULL(), 

    RB7_InterruptHandlerLow	PTR FTN()void  size(2) Largest target is 1
		 -> NULL(), 

    S1037$EXT_InterruptHandler	PTR FTN()void  size(2) Largest target is 0

    S1075$EXT_InterruptHandlerHigh	PTR FTN()void  size(2) Largest target is 0

    S1075$EXT_InterruptHandlerLow	PTR FTN()void  size(2) Largest target is 0

    S196$ADC_InterruptHandler	PTR FTN()void  size(2) Largest target is 1
		 -> ADC_DefaultInterruptHandler(), 

    select_result_format@_adc	PTR const struct . size(1) Largest target is 6
		 -> adc1(COMRAM[6]), 

    select_result_format@_adc$ADC_InterruptHandler	PTR FTN()void  size(2) Largest target is 1
		 -> ADC_DefaultInterruptHandler(), 

    tris_registers	PTR volatile unsigned char [5] size(2) Largest target is 1
		 -> TRISA(BITBIGSFRlllll[1]), TRISB(ABS[1]), TRISC(ABS[1]), TRISD(ABS[1]), 
		 -> TRISE(ABS[1]), 


Critical Paths under _main in COMRAM

    _application_intialize->_led_intialize
    _led_intialize->_gpio_pin_intialize
    _gpio_pin_intialize->_gpio_pin_write_logic
    _ADC_Init->_adc_input_channel_pin_configure
    _ADC_StartConversion_Interrupt->_ADC_SelectChannel
    _ADC_SelectChannel->_adc_input_channel_pin_configure

Critical Paths under _InterruptManager in COMRAM

    _ADC_DefaultInterruptHandler->_led_turn_off
    _ADC_DefaultInterruptHandler->_led_turn_on
    _led_turn_on->i2_gpio_pin_write_logic
    _led_turn_off->i2_gpio_pin_write_logic

Critical Paths under _main in BANK0

    None.

Critical Paths under _InterruptManager in BANK0

    None.

Critical Paths under _main in BANK1

    None.

Critical Paths under _InterruptManager in BANK1

    None.

Critical Paths under _main in BANK2

    None.

Critical Paths under _InterruptManager in BANK2

    None.

Critical Paths under _main in BANK3

    None.

Critical Paths under _InterruptManager in BANK3

    None.

Critical Paths under _main in BANK4

    None.

Critical Paths under _InterruptManager in BANK4

    None.

Critical Paths under _main in BANK5

    None.

Critical Paths under _InterruptManager in BANK5

    None.

Critical Paths under _main in BANK6

    None.

Critical Paths under _InterruptManager in BANK6

    None.

Critical Paths under _main in BANK7

    None.

Critical Paths under _InterruptManager in BANK7

    None.

Critical Paths under _main in BANK8

    None.

Critical Paths under _InterruptManager in BANK8

    None.

Critical Paths under _main in BANK9

    None.

Critical Paths under _InterruptManager in BANK9

    None.

Critical Paths under _main in BANK10

    None.

Critical Paths under _InterruptManager in BANK10

    None.

Critical Paths under _main in BANK11

    None.

Critical Paths under _InterruptManager in BANK11

    None.

Critical Paths under _main in BANK12

    None.

Critical Paths under _InterruptManager in BANK12

    None.

Critical Paths under _main in BANK13

    None.

Critical Paths under _InterruptManager in BANK13

    None.

Critical Paths under _main in BANK14

    None.

Critical Paths under _InterruptManager in BANK14

    None.

Critical Paths under _main in BANK15

    None.

Critical Paths under _InterruptManager in BANK15

    None.

Call Graph Tables:

 ---------------------------------------------------------------------------------
 (Depth) Function   	        Calls       Base Space   Used Autos Params    Refs
 ---------------------------------------------------------------------------------
 (0) _main                                                 1     1      0    3084
      _ADC_StartConversion_Interrupt
              _application_intialize
 ---------------------------------------------------------------------------------
 (1) _application_intialize                                1     1      0    2208
                           _ADC_Init
                      _led_intialize
 ---------------------------------------------------------------------------------
 (2) _led_intialize                                        4     3      1    1671
                                             27 COMRAM     4     3      1
                 _gpio_pin_intialize
 ---------------------------------------------------------------------------------
 (3) _gpio_pin_intialize                                   3     2      1    1210
                                             24 COMRAM     3     2      1
       _gpio_pin_direction_intialize
               _gpio_pin_write_logic
 ---------------------------------------------------------------------------------
 (4) _gpio_pin_write_logic                                 8     6      2     531
                                             16 COMRAM     8     6      2
 ---------------------------------------------------------------------------------
 (4) _gpio_pin_direction_intialize                         7     6      1     483
                                             16 COMRAM     7     6      1
 ---------------------------------------------------------------------------------
 (2) _ADC_Init                                             3     2      1     531
                                             19 COMRAM     3     2      1
    _adc_input_channel_pin_configure
        _configure_voltage_reference
               _select_result_format
 ---------------------------------------------------------------------------------
 (3) _select_result_format                                 1     0      1     120
                                             16 COMRAM     1     0      1
 ---------------------------------------------------------------------------------
 (3) _configure_voltage_reference                          1     0      1     120
                                             16 COMRAM     1     0      1
 ---------------------------------------------------------------------------------
 (1) _ADC_StartConversion_Interrupt                        4     2      2     874
                                             23 COMRAM     4     2      2
                  _ADC_SelectChannel
                _ADC_StartConversion
 ---------------------------------------------------------------------------------
 (2) _ADC_StartConversion                                  2     1      1     198
                                             16 COMRAM     2     1      1
 ---------------------------------------------------------------------------------
 (2) _ADC_SelectChannel                                    4     2      2     409
                                             19 COMRAM     4     2      2
    _adc_input_channel_pin_configure
 ---------------------------------------------------------------------------------
 (3) _adc_input_channel_pin_configure                      3     3      0      15
                                             16 COMRAM     3     3      0
 ---------------------------------------------------------------------------------
 Estimated maximum stack depth 4
 ---------------------------------------------------------------------------------
 (Depth) Function   	        Calls       Base Space   Used Autos Params    Refs
 ---------------------------------------------------------------------------------
 (5) _InterruptManager                                     6     6      0    2596
                                             10 COMRAM     6     6      0
                            _ADC_ISR
                           _INT0_ISR
                           _INT1_ISR
                           _INT2_ISR
                            _RB4_ISR
                            _RB5_ISR
                            _RB6_ISR
                            _RB7_ISR
 ---------------------------------------------------------------------------------
 (6) _RB7_ISR                                              1     1      0      30
                                              0 COMRAM     1     1      0
 ---------------------------------------------------------------------------------
 (6) _RB6_ISR                                              1     1      0      30
                                              0 COMRAM     1     1      0
 ---------------------------------------------------------------------------------
 (6) _RB5_ISR                                              1     1      0      30
                                              0 COMRAM     1     1      0
 ---------------------------------------------------------------------------------
 (6) _RB4_ISR                                              1     1      0      30
                                              0 COMRAM     1     1      0
 ---------------------------------------------------------------------------------
 (6) _INT2_ISR                                             0     0      0       0
 ---------------------------------------------------------------------------------
 (6) _INT1_ISR                                             0     0      0       0
 ---------------------------------------------------------------------------------
 (6) _INT0_ISR                                             0     0      0       0
 ---------------------------------------------------------------------------------
 (6) _ADC_ISR                                              0     0      0    2476
                                NULL *
        _ADC_DefaultInterruptHandler *
 ---------------------------------------------------------------------------------
 (7) _ADC_DefaultInterruptHandler                          0     0      0    2476
            _ADC_GetConversionResult
                       _led_turn_off
                        _led_turn_on
 ---------------------------------------------------------------------------------
 (8) _led_turn_on                                          4     3      1     704
                                              7 COMRAM     3     2      1
             i2_gpio_pin_write_logic
 ---------------------------------------------------------------------------------
 (8) _led_turn_off                                         4     3      1    1312
                                              7 COMRAM     3     2      1
             i2_gpio_pin_write_logic
 ---------------------------------------------------------------------------------
 (9) i2_gpio_pin_write_logic                               8     6      2     267
                                              0 COMRAM     7     5      2
 ---------------------------------------------------------------------------------
 (8) _ADC_GetConversionResult                              6     4      2     460
                                              0 COMRAM     6     4      2
 ---------------------------------------------------------------------------------
 (7) NULL(Fake)                                            0     0      0       0
 ---------------------------------------------------------------------------------
 Estimated maximum stack depth 9
 ---------------------------------------------------------------------------------

 Call Graph Graphs:

 _main (ROOT)
   _ADC_StartConversion_Interrupt
     _ADC_SelectChannel
       _adc_input_channel_pin_configure
     _ADC_StartConversion
   _application_intialize
     _ADC_Init
       _adc_input_channel_pin_configure
       _configure_voltage_reference
       _select_result_format
     _led_intialize
       _gpio_pin_intialize
         _gpio_pin_direction_intialize
         _gpio_pin_write_logic

 _InterruptManager (ROOT)
   _ADC_ISR
     NULL(Fake) *
     _ADC_DefaultInterruptHandler *
       _ADC_GetConversionResult
       _led_turn_off
         i2_gpio_pin_write_logic
       _led_turn_on
         i2_gpio_pin_write_logic
   _INT0_ISR
   _INT1_ISR
   _INT2_ISR
   _RB4_ISR
   _RB5_ISR
   _RB6_ISR
   _RB7_ISR

 Address spaces:
Name               Size   Autos  Total    Cost      Usage
BIGRAM             F7F      0       0      44        0.0%
EEDATA             400      0       0       0        0.0%
BITBANK14          100      0       0      33        0.0%
BANK14             100      0       0      34        0.0%
BITBANK13          100      0       0      31        0.0%
BANK13             100      0       0      32        0.0%
BITBANK12          100      0       0      29        0.0%
BANK12             100      0       0      30        0.0%
BITBANK11          100      0       0      27        0.0%
BANK11             100      0       0      28        0.0%
BITBANK10          100      0       0      25        0.0%
BANK10             100      0       0      26        0.0%
BITBANK9           100      0       0      23        0.0%
BANK9              100      0       0      24        0.0%
BITBANK8           100      0       0      21        0.0%
BANK8              100      0       0      22        0.0%
BITBANK7           100      0       0      19        0.0%
BANK7              100      0       0      20        0.0%
BITBANK6           100      0       0      17        0.0%
BANK6              100      0       0      18        0.0%
BITBANK5           100      0       0      15        0.0%
BANK5              100      0       0      16        0.0%
BITBANK4           100      0       0      13        0.0%
BANK4              100      0       0      14        0.0%
BITBANK3           100      0       0      10        0.0%
BANK3              100      0       0      11        0.0%
BITBANK2           100      0       0       8        0.0%
BANK2              100      0       0       9        0.0%
BITBANK1           100      0       0       6        0.0%
BANK1              100      0       0       7        0.0%
BITBANK15           80      0       0      35        0.0%
BANK15              80      0       0      36        0.0%
BITBANK0            80      0       0       4        0.0%
BANK0               80      0       0       5        0.0%
BITCOMRAM           7E      0       0       0        0.0%
COMRAM              7E     1F      6A       1       84.1%
BITBIGSFRhlhl       2B      0       0      38        0.0%
BITBIGSFRllhh       15      0       0      39        0.0%
BITBIGSFRhh          D      0       0      37        0.0%
BITBIGSFRllhll       7      0       0      40        0.0%
BITBIGSFRlllhh       6      0       0      41        0.0%
BITBIGSFRllllh       4      0       0      42        0.0%
BITBIGSFRlllll       4      0       0      43        0.0%
BIGSFR               0      0       0     200        0.0%
BITSFR               0      0       0     200        0.0%
SFR                  0      0       0     200        0.0%
STACK                0      0       0       2        0.0%
NULL                 0      0       0       0        0.0%
ABS                  0      0      6A      12        0.0%
DATA                 0      0      6A       3        0.0%
CODE                 0      0       0       0        0.0%


Microchip Technology PIC18 Macro Assembler V2.46 build 20240104201356 
Symbol Table                                                                                   Fri Nov 08 21:04:11 2024

                              ??_InterruptManager 0056                                     _led_intialize 191A  
                                               l9 1936                                                l13 1988  
                                              l83 188A                                                l85 1918  
                                              l95 1BD6                                                l98 1C7A  
                                             l100 1C7E                                               l132 1B9E  
                                             l150 17B4                                               l160 1ACE  
                                             l241 13E8                                               l164 1AEE  
                                             l156 1B66                                               l260 14F8  
                                             l166 1AF2                                               l281 1AB4  
                                             l630 1C5C               __end_of_configure_voltage_reference 1AF4  
                     _configure_voltage_reference 1AB6                                   __end_of_ADC_ISR 1C08  
                                             tosl 0FFD                                               wreg 0FE8  
                                    ?_led_turn_on 0053                    ?_ADC_StartConversion_Interrupt 0063  
                    ?_ADC_DefaultInterruptHandler 004C                                   __end_of_RB4_ISR 1CE8  
                                 __end_of_RB5_ISR 1CCE                                   __end_of_RB6_ISR 1CB4  
                                 __end_of_RB7_ISR 1C9A                                              l2200 13BA  
                                            l1410 16F6                                              l1402 16E0  
                                            l2202 13E6                                              l1420 1714  
                                            l1412 16FC                                              l1404 16E4  
                                            l2300 196E                                              l1422 171A  
                                            l1414 1702                                              l1406 16EA  
                                            l2310 1882                                              l2230 1A92  
                                            l2302 197E                                              l1424 1720  
                                            l1416 1708                                              l1408 16F0  
                                            l1432 1732                                              l2320 18F2  
                                            l2312 188C                                              l2224 1A5E  
                                            l2304 1986                                              l2400 1C54  
                                            l1426 1726                                              l1418 170E  
                                            l2330 1914                                              l2322 18F4  
                                            l2314 18DE                                              l2170 141E  
                                            l2226 1A6E                                              l1428 172C  
                                            l2340 1BBC                                              l2324 18F6  
                                            l2316 18EE                                              l2332 1916  
                                            l2308 186E                                              l2172 1426  
                                            l2180 14F6                                              l2228 1A8E  
                                            l2342 1BCE                                              l2350 1C72  
                                            l2270 1AB6                                              l2262 1B2E  
                                            l2326 1904                                              l2318 18F0  
                                            l2190 12EC                                              l2174 1476  
                                            l2166 13EA                                              l2344 1BD4  
                                            l2336 1BA0                                              l2352 1C7C  
                                            l2272 1AD6                                              l2264 1B46  
                                            l2328 190C                                              l2192 130C  
                                            l2168 13FE                                              l2338 1BB4  
                                            l2266 1B4C                                              l2194 1314  
                                            l2610 14E0                                              l2178 14CC  
                                            l2612 1746                                              l2348 1C5E  
                                            l2380 1B9C                                              l2268 1B64  
                                            l2196 136A                                              l2188 12D8  
                                            l2292 191A                                              l2374 1B68  
                                            l2294 192E                                              l2390 1C34  
                                            l2376 1B7C                                              l2296 193A  
                                            l2392 1C34                                              l2378 1B84  
                                            l2298 196C                                              l2394 1C3C  
                                            l2396 1C44                                              l2398 1C4C  
                                            l2592 1CE8                                              l2594 1CE8  
                                            l2596 1CEC                                              u1400 130C  
                                            u1401 1308                                              _LATA 0F89  
                                            u1430 13D0                                              u1414 1332  
                                            u1350 13FE                                              _LATB 0F8A  
                                            u1431 13CA                                              u1415 132E  
                                            u1351 13FA                                              _LATC 0F8B  
                                            u1424 1388                                              u1360 141E  
                                            _LATD 0F8C                                              u1425 1384  
                                            u1361 141A                                              _LATE 0F8D  
                                            u1540 1B46                                              u1436 13D2  
                                            u1541 1B42                                              u1710 1B7C  
                                            u1550 1B64                                              u1390 12EC  
                                            u1374 1444                                              u1630 192E  
                                            u1711 1B78                                              u1551 1B60  
                                            u1391 12E8                                              u1375 1440  
                                            u1631 192A                                              u1560 1ACE  
                                            u1384 1494                                              u1480 1A6E  
                                            u1561 1ACA                                              u1385 1490  
                                            u1481 1A6A                                              u1570 1AEE  
                                            u1650 1882                                              u1490 1A8E  
                                            u1571 1AEA                                              u1651 187E  
                                            u1491 1A8A                                              u1660 1BB4  
                                            u1661 1BB0                                              u1645 197C  
                                            u1670 1C72                                              u1671 1C6E  
                                            u1647 197E                                              i2l20 19F2  
                                            i2l23 1A08                                              i2l16 199E  
                                            i2l27 1A5C                           ??_application_intialize 006B  
                                            _adc1 0023                          _RB4_InterruptHandlerHigh 003B  
                                            _led0 002C                                              _led1 002B  
                                            _led2 002A                                              _led3 0029  
                                            _main 1CE8                          _RB7_InterruptHandlerHigh 002F  
                                            fsr2h 0FDA                                              indf2 0FDF  
                                            fsr1l 0FE1                                              fsr2l 0FD9  
                                            btemp 006B                                  __end_of_ADC_Init 191A  
                                            prodh 0FF4                                              prodl 0FF3  
                                            start 000E                                     ?_led_turn_off 0053  
                                  ?_led_intialize 0067                                      ___param_bank 0000  
                            _gpio_pin_write_logic 13EA                                  __end_of_INT0_ISR 1D0C  
                                __end_of_INT1_ISR 1D08                                  __end_of_INT2_ISR 1D04  
                                           ?_main 004C                                             _EEADR 0FA9  
                                           i2l117 186C                                             i2l170 1C06  
                                           i2l260 15FE                                             i2l350 103C  
                                           i2l360 1148                                             i2l352 105C  
                                           i2l370 129C                                             i2l362 118C  
                                           i2l354 107C                                             i2l531 1D0A  
                                           i2l364 11D0                                             i2l356 10C0  
                                           i2l373 12BC                                             i2l366 1214  
                                           i2l358 1104                                             i2l535 1D06  
                                           i2l368 1258                                             i2l619 16DC  
                                           i2l539 1D02                                             i2l548 1CE6  
                                           i2l557 1CCC                                             i2l566 1CB2  
                                           i2l575 1C98                                             _PORTA 0F80  
                                           _PORTB 0F81                                             _PORTC 0F82  
                                           _PORTD 0F83                                             _PORTE 0F84  
                                           _TRISA 0F92                                             _TRISB 0F93  
                                           _TRISC 0F94                                             _TRISD 0F95  
                                           _TRISE 0F96                                             pclath 0FFA  
                                           pclatu 0FFB                                             tablat 0FF5  
                                           ttemp5 006C                                             ttemp6 006F  
                                           ttemp7 0073                                             status 0FD8  
                                           wtemp8 006C                                    ??_led_turn_off 0054  
                                 __initialization 1AF4                                      __end_of_main 1D00  
                           ?_gpio_pin_write_logic 005C                       i2gpio_pin_write_logic@logic 004D  
                                       ??_ADC_ISR 0056                                     _lat_registers 000B  
                                          ??_main 006B                                     __activetblptr 0002  
                                led_turn_on@F3067 0048                                         ??_RB4_ISR 004C  
                                       ??_RB5_ISR 004C                                         ??_RB6_ISR 004C  
                                       ??_RB7_ISR 004C            adc_input_channel_pin_configure@channel 005E  
                                          _ADRESH 0FC4                                            _EEADRH 0FAA  
                                          _ADRESL 0FC3                                            _EEDATA 0FA8  
                                          _EECON2 0FA7                                            i2l2210 152A  
                                          i2l2212 152E                                            i2l2214 157E  
                                          i2l2206 14FA                                            i2l2208 150A  
                                          i2l2240 19D4                                            i2l1600 1C9E  
                                          i2l2218 15D4                                            i2l2250 1A04  
                                          i2l2242 19D6                                            i2l2234 198A  
                                          i2l1610 1C84                                            i2l2252 1A0C  
                                          i2l2244 19E6                                            i2l2236 199A  
                                          i2l1604 1CB2                                            i2l2500 1266  
                                          i2l2420 1038                                            i2l2254 1A3E  
                                          i2l2238 19A2                                            i2l1614 1C98  
                                          i2l2510 12AA                                            i2l2502 1274  
                                          i2l2430 108A                                            i2l2422 104A  
                                          i2l2280 17E2                                            i2l2256 1A40  
                                          i2l2248 19F4                                            i2l2360 160E  
                                          i2l1608 1C82                                            i2l2512 12B8  
                                          i2l2504 1282                                            i2l2440 10CE  
                                          i2l2432 1098                                            i2l2424 1058  
                                          i2l2416 101C                                            i2l2282 17FA  
                                          i2l2274 17B6                                            i2l2258 1A50  
                                          i2l2370 1698                                            i2l2362 1624  
                                          i2l1570 1D04                                            i2l2506 1292  
                                          i2l2450 1112                                            i2l2442 10DC  
                                          i2l2434 10A6                                            i2l2426 106A  
                                          i2l2418 102A                                            i2l2284 1820  
                                          i2l2276 17CA                                            i2l2372 16BC  
                                          i2l2364 1648                                            i2l2356 1600  
                                          i2l1580 1CD2                                            i2l2508 1296  
                                          i2l2460 1156                                            i2l2452 1120  
                                          i2l2444 10EA                                            i2l2436 10B6  
                                          i2l2428 1078                                            i2l2286 1838  
                                          i2l2278 17DA                                            i2l2614 15E8  
                                          i2l2366 165E                                            i2l2358 1602  
                                          i2l1566 1D08                                            i2l1574 1D00  
                                          i2l1590 1CB8                                            i2l2470 119A  
                                          i2l2462 1164                                            i2l2454 112E  
                                          i2l2446 10FA                                            i2l2438 10BA  
                                          i2l2288 186A                                            i2l2368 1682  
                                          i2l2384 1BD8                                            i2l1584 1CE6  
                                          i2l2480 11DE                                            i2l2472 11A8  
                                          i2l2464 1172                                            i2l2456 113E  
                                          i2l2448 10FE                                            i2l2386 1BDA  
                                          i2l1578 1CD0                                            i2l1594 1CCC  
                                          i2l2490 1222                                            i2l2482 11EC  
                                          i2l2474 11B6                                            i2l2466 1182  
                                          i2l2458 1142                                            i2l2388 1BEC  
                                          i2l1588 1CB6                                            i2l2492 1230  
                                          i2l2484 11FA                                            i2l2476 11C6  
                                          i2l2468 1186                                            i2l1598 1C9C  
                                          i2l2494 123E                                            i2l2486 120A  
                                          i2l2478 11CA                                            i2l2496 124E  
                                          i2l2488 120E                                            i2l2498 1252  
                                 ??_led_intialize 0068                           _RB6_InterruptHandlerLow 0031  
                                led_intialize@led 0067                                  led_intialize@ret 0069  
                                          clear_0 1B1A                                            isa$std 0001  
         gpio_pin_direction_intialize@_pin_config 005C                                      __pdataCOMRAM 0001  
                                       ?_ADC_Init 005F                                      __mediumconst 0000  
                                          tblptrh 0FF7                                            tblptrl 0FF6  
                                          tblptru 0FF8                      __end_of_select_result_format 1B68  
                                      __accesstop 0080                           __end_of__initialization 1B20  
                                       ?_INT0_ISR 004C                                         ?_INT1_ISR 004C  
                                       ?_INT2_ISR 004C                                     ___rparam_used 0001  
                          ??_gpio_pin_write_logic 005E                                    __pcstackCOMRAM 004C  
                               RB5_ISR@RB5_source 004C                           _ADC_GetConversionResult 17B6  
                                      ??_ADC_Init 0060                              __end_of_led_turn_off 1A5E  
                            ADC_SelectChannel@ret 0062                            ADC_StartConversion@ret 005D  
                           _INT0_InterruptHandler 0041                                        ??_INT0_ISR 004C  
                                      ??_INT1_ISR 004C                                        ??_INT2_ISR 004C  
                      ADC_GetConversionResult@ret 0051                     __end_of_application_intialize 1C5E  
                               led_turn_off@F3072 0047                                           _ADC_ISR 1BD8  
                                         _RB4_ISR 1CCE                                           _RB5_ISR 1CB4  
                                         _RB6_ISR 1C9A                                           _RB7_ISR 1C80  
                            led_turn_toggle@F3077 0046                                           i2u40_40 1CE2  
                                         i2u40_41 1CDE                                           i2u41_40 1CC8  
                                         i2u41_41 1CC4                                           i2u42_40 1CAE  
                                         i2u42_41 1CAA                                           i2u43_40 1C94  
                                         i2u43_41 1C90                                 RB7_ISR@RB7_source 004C  
                                  _tris_registers 0015                          _RB6_InterruptHandlerHigh 0033  
                            _ADC_InterruptHandler 0043                                           __Hparam 0000  
                                    ADC_Init@_adc 005F                                           __Lparam 0000  
                            led_intialize@pin_obj 006A                                      __psmallconst 1000  
                       ??_ADC_GetConversionResult 004E                        __end_of_gpio_pin_intialize 1AB6  
                                         __pcinit 1AF4                              _select_result_format 1B2E  
                                         __ramtop 1000                                           __ptext0 1CE8  
                                         __ptext1 1C34                                           __ptext2 191A  
                                         __ptext3 1A5E                                           __ptext4 13EA  
                                         __ptext5 12D8                                           __ptext6 186E  
                                         __ptext7 1B2E                                           __ptext8 1AB6  
                                         __ptext9 1B68                          ??i2_gpio_pin_write_logic 004E  
                                  __pintcode_body 1002                              end_of_initialization 1B20  
                        select_result_format@_adc 005C                                     __Lmediumconst 0000  
                                         int_func 1002                             gpio_pin_intialize@ret 0066  
                             led_turn_off@pin_obj 0055                                           postdec1 0FE5  
                                         postdec2 0FDD                                           postinc0 0FEE  
                                         postinc2 0FDE                             ?_select_result_format 005C  
                ADC_StartConversion_Interrupt@ret 0066                             _INT1_InterruptHandler 003F  
                                       _PORTBbits 0F81                                  _InterruptManager 0008  
                   gpio_pin_intialize@_pin_config 0064              __end_of_gpio_pin_direction_intialize 13EA  
                    _gpio_pin_direction_intialize 12D8               __end_of_ADC_DefaultInterruptHandler 16DE  
                     _ADC_DefaultInterruptHandler 1600                               _ADC_StartConversion 1C5E  
                   ??_ADC_DefaultInterruptHandler 0056  ADC_StartConversion_Interrupt@l_conversion_status 0065  
                         _RB4_InterruptHandlerLow 0039                           _RB7_InterruptHandlerLow 002D  
                                    _led_turn_off 19F4                             __end_of_led_intialize 198A  
                            ?_ADC_StartConversion 005C                                     __pidataCOMRAM 1C08  
               ADC_StartConversion_Interrupt@_adc 0063                      ?_configure_voltage_reference 005C  
                             start_initialization 1AF4                                     ??_led_turn_on 0054  
                   ?_gpio_pin_direction_intialize 005C                                   led_turn_off@led 0053  
                           ADC_SelectChannel@_adc 005F              ADC_StartConversion_Interrupt@channel 0064  
                           ??_ADC_StartConversion 005D                            ??_select_result_format 005D  
                                        ?_ADC_ISR 004C                           ADC_StartConversion@_adc 005C  
                                        ?_RB4_ISR 004C                                          ?_RB5_ISR 004C  
                                        ?_RB6_ISR 004C                                          ?_RB7_ISR 004C  
                                     __pbssCOMRAM 002D           __end_of_adc_input_channel_pin_configure 17B6  
               ??_adc_input_channel_pin_configure 005C                  ?_adc_input_channel_pin_configure 004C  
                 _adc_input_channel_pin_configure 16DE                     ??_configure_voltage_reference 005D  
                                       _adc_res_1 004A                       ADC_GetConversionResult@_adc 004C  
                             __end_of_led_turn_on 19F4                             _INT2_InterruptHandler 003D  
                 gpio_pin_direction_intialize@ret 0062                             _application_intialize 1C34  
                                       __pintcode 0008                                 _ADC_SelectChannel 1BA0  
                          i2_gpio_pin_write_logic 14FA                   gpio_pin_write_logic@_pin_config 005C  
               i2gpio_pin_write_logic@_pin_config 004C                                ?_ADC_SelectChannel 005F  
                       gpio_pin_write_logic@logic 005D                                       __smallconst 1000  
                             ??_ADC_SelectChannel 0061                                          _ADC_Init 186E  
                                     ADC_Init@ret 0061                                _gpio_pin_intialize 1A5E  
                  ??_gpio_pin_direction_intialize 005D                          _RB5_InterruptHandlerHigh 0037  
                                        _INT0_ISR 1D08                                          _INT1_ISR 1D04  
                                        _INT2_ISR 1D00                                          _RB4_Flag 0022  
                                        _RB5_Flag 0021                                          _RB6_Flag 0020  
                                        _RB7_Flag 001F                               ?_gpio_pin_intialize 0064  
                        __end_of_InterruptManager 12D8                                          _PIE1bits 0F9D  
                       __end_of_ADC_SelectChannel 1BD8                                          i2u200_40 11A8  
                                        i2u200_41 11A4                                          i2u201_40 11B6  
                                        i2u201_41 11B2                                          i2u210_40 124E  
                                        i2u202_40 11C6                                          i2u210_41 124A  
                                        i2u202_41 11C2                                          i2u211_40 1266  
                                        i2u203_40 11DE                                          i2u211_41 1262  
                                        i2u203_41 11DA                                          i2u212_40 1274  
                                        i2u204_40 11EC                                          i2u212_41 1270  
                                        i2u204_41 11E8                                          i2u213_40 1282  
                                        i2u205_40 11FA                                          i2u213_41 127E  
                                        i2u205_41 11F6                                          i2u150_40 199A  
                                        i2u214_40 1292                                          i2u206_40 120A  
                                        i2u150_41 1996                                          i2u214_41 128E  
                                        i2u206_41 1206                                          i2u215_40 12AA  
                                        i2u207_40 1222                                          i2u215_41 12A6  
                                        i2u207_41 121E                                          i2u151_45 19E4  
                                        i2u151_47 19E6                                          i2u160_40 17FA  
                                        i2u144_40 150A                                          i2u152_40 1A04  
                                        i2u216_40 12B8                                          i2u208_40 1230  
                                        i2u160_41 17F6                                          i2u144_41 1506  
                                        i2u152_41 1A00                                          i2u216_41 12B4  
                                        i2u208_41 122C                                          i2u161_40 1838  
                                        i2u145_40 152A                                          i2u209_40 123E  
                                        i2u161_41 1834                                          i2u145_41 1526  
                                        i2u209_41 123A                                          i2u153_45 1A4E  
                                        i2u153_47 1A50                                          i2u170_40 1698  
                                        i2u170_41 1694                                          i2u146_44 154C  
                                        i2u162_45 1850                                          i2u146_45 1548  
                                        i2u147_44 159C                                          i2u147_45 1598  
                                        i2u172_40 1BEC                                          i2u180_40 1058  
                                        i2u172_41 1BE8                                          i2u180_41 1054  
                                        i2u181_40 106A                                          i2u181_41 1066  
                                        i2u158_40 17CA                                          i2u173_48 1BF2  
                                        i2u190_40 10FA                                          i2u182_40 1078  
                                        i2u158_41 17C6                                          i2u173_49 1C06  
                                        i2u190_41 10F6                                          i2u182_41 1074  
                                        i2u159_40 17DA                                          i2u191_40 1112  
                                        i2u183_40 108A                                          i2u159_41 17D6  
                                        i2u191_41 110E                                          i2u183_41 1086  
                                        i2u168_40 1624                                          i2u192_40 1120  
                                        i2u184_40 1098                                          i2u168_41 1620  
                                        i2u192_41 111C                                          i2u184_41 1094  
                                        i2u169_40 165E                                          i2u193_40 112E  
                                        i2u185_40 10A6                                          i2u177_40 102A  
                                        i2u169_41 165A                                          i2u193_41 112A  
                                        i2u185_41 10A2                                          i2u177_41 1026  
                                        _PIR1bits 0F9E                                          i2u194_40 113E  
                                        i2u186_40 10B6                                          i2u178_40 1038  
                                        i2u194_41 113A                                          i2u186_41 10B2  
                                        i2u178_41 1034                                          i2u195_40 1156  
                                        i2u187_40 10CE                                          i2u179_40 104A  
                                        i2u195_41 1152                                          i2u187_41 10CA  
                                        i2u179_41 1046                                          i2u196_40 1164  
                                        i2u188_40 10DC                                          i2u196_41 1160  
                                        i2u188_41 10D8                                          i2u197_40 1172  
                                        i2u189_40 10EA                                          i2u197_41 116E  
                                        i2u189_41 10E6                                          i2u198_40 1182  
                                        i2u198_41 117E                                led_turn_on@pin_obj 0055  
                                        i2u199_40 119A                                          i2u199_41 1196  
                 ??_ADC_StartConversion_Interrupt 0065                                 RB4_ISR@RB4_source 004C  
                                      _ADCON0bits 0FC2                                        _ADCON1bits 0FC1  
                                      _ADCON2bits 0FC0                              ??_gpio_pin_intialize 0065  
                        ADC_SelectChannel@channel 0060                                       _led_turn_on 198A  
                         gpio_pin_write_logic@ret 0063                                       _INTCON2bits 0FF1  
                                     _INTCON3bits 0FF0                                         copy_data0 1B08  
                                      _EECON1bits 0FA6                            ?_application_intialize 004C  
                                  led_turn_on@led 0053                                          __Hrparam 0000  
                                        __Lrparam 0000                          ?_ADC_GetConversionResult 004C  
                                        _adc_flag 0045                                led_intialize@F3062 0049  
                               RB6_ISR@RB6_source 004C                                          __ptext10 1C5E  
                                        __ptext11 1BA0                                          __ptext20 1D08  
                                        __ptext12 16DE                                          __ptext21 1BD8  
                                        __ptext22 1600                                          __ptext14 1C80  
                                        __ptext23 198A                                          __ptext15 1C9A  
                                        __ptext24 19F4                                          __ptext16 1CB4  
                                        __ptext25 14FA                                          __ptext17 1CCE  
                                        __ptext26 17B6                                          __ptext18 1D00  
                                        __ptext19 1D04                   configure_voltage_reference@_adc 005C  
                         _RB5_InterruptHandlerLow 0035                                          isa$xinst 0000  
                                        int$flags 006B             __end_of_ADC_StartConversion_Interrupt 1BA0  
                   _ADC_StartConversion_Interrupt 1B68                                        _INTCONbits 0FF2  
                    __end_of_gpio_pin_write_logic 14FA          ADC_GetConversionResult@Conversion_result 004D  
                                        intlevel2 0000                       __end_of_ADC_StartConversion 1C80  
                 __end_of_ADC_GetConversionResult 186E                           ?i2_gpio_pin_write_logic 004C  
                                  _port_registers 0001                    __end_ofi2_gpio_pin_write_logic 1600  
                               ?_InterruptManager 004C  
