

Microchip MPLAB XC8 Assembler V2.46 build 20240104201356 
                                                                                               Tue May 07 05:40:54 2024

Microchip MPLAB XC8 C Compiler v2.46 (Free license) build 20240104201356 Og1 
     1                           	processor	18F4620
     2                           	fnconf	rparam,??,?,0
     3                           	pagewidth 120
     4                           	opt	flic
     5                           	psect	idataCOMRAM,global,class=CODE,delta=1,noexec
     6                           	psect	nvCOMRAM,global,class=COMRAM,space=1,delta=1,lowdata,noexec
     7                           	psect	cinit,global,reloc=2,class=CODE,delta=1
     8                           	psect	bssCOMRAM,global,class=COMRAM,space=1,delta=1,lowdata,noexec
     9                           	psect	dataCOMRAM,global,class=COMRAM,space=1,delta=1,lowdata,noexec
    10                           	psect	cstackCOMRAM,global,class=COMRAM,space=1,delta=1,lowdata,noexec
    11                           	psect	text0,global,reloc=2,class=CODE,delta=1
    12                           	psect	text1,global,reloc=2,class=CODE,delta=1
    13                           	psect	text2,global,reloc=2,class=CODE,delta=1
    14                           	psect	text3,global,reloc=2,class=CODE,delta=1
    15                           	psect	text4,global,reloc=2,class=CODE,delta=1
    16                           	psect	text5,global,reloc=2,class=CODE,delta=1
    17                           	psect	text6,global,reloc=2,class=CODE,delta=1
    18                           	psect	text7,global,reloc=2,class=CODE,delta=1
    19                           	psect	text8,global,reloc=2,class=CODE,delta=1
    20                           	psect	text9,global,reloc=2,class=CODE,delta=1
    21                           	psect	text10,global,reloc=2,class=CODE,delta=1
    22                           	psect	text11,global,reloc=2,class=CODE,delta=1
    23                           	psect	text12,global,reloc=2,class=CODE,delta=1
    24                           	psect	text13,global,reloc=2,class=CODE,delta=1
    25                           	psect	text14,global,reloc=2,class=CODE,delta=1
    26                           	psect	text15,global,reloc=2,class=CODE,delta=1
    27                           	psect	text16,global,reloc=2,class=CODE,delta=1
    28                           	psect	smallconst,global,reloc=2,class=SMALLCONST,delta=1,noexec
    29                           	psect	intsave_regs,global,class=BIGRAM,space=1,delta=1,noexec
    30                           	psect	rparam,global,class=COMRAM,space=1,delta=1,noexec
    31                           	psect	config,global,abs,ovrld,class=CONFIG,space=4,delta=1,noexec
    32   000000                     
    33                           ; Generated 17/10/2023 GMT
    34                           ; 
    35                           ; Copyright © 2023, Microchip Technology Inc. and its subsidiaries ("Microchip")
    36                           ; All rights reserved.
    37                           ; 
    38                           ; This software is developed by Microchip Technology Inc. and its subsidiaries ("Microch
      +                          ip").
    39                           ; 
    40                           ; Redistribution and use in source and binary forms, with or without modification, are
    41                           ; permitted provided that the following conditions are met:
    42                           ; 
    43                           ;     1. Redistributions of source code must retain the above copyright notice, this lis
      +                          t of
    44                           ;        conditions and the following disclaimer.
    45                           ; 
    46                           ;     2. Redistributions in binary form must reproduce the above copyright notice, this 
      +                          list
    47                           ;        of conditions and the following disclaimer in the documentation and/or other
    48                           ;        materials provided with the distribution. Publication is not required when
    49                           ;        this file is used in an embedded application.
    50                           ; 
    51                           ;     3. Microchip's name may not be used to endorse or promote products derived from th
      +                          is
    52                           ;        software without specific prior written permission.
    53                           ; 
    54                           ; THIS SOFTWARE IS PROVIDED BY MICROCHIP "AS IS" AND ANY EXPRESS OR IMPLIED WARRANTIES,
    55                           ; INCLUDING, BUT NOT LIMITED TO, THE IMPLIED WARRANTIES OF MERCHANTABILITY AND FITNESS F
      +                          OR
    56                           ; PURPOSE ARE DISCLAIMED.  IN NO EVENT SHALL MICROCHIP BE LIABLE FOR ANY DIRECT, INDIREC
      +                          T,
    57                           ; INCIDENTAL, SPECIAL, EXEMPLARY, OR CONSEQUENTIAL DAMAGES (INCLUDING BUT NOT LIMITED TO
    58                           ; PROCUREMENT OF SUBSTITUTE GOODS OR SERVICES; LOSS OF USE, DATA OR PROFITS; OR BUSINESS
    59                           ; INTERRUPTION) HOWSOEVER CAUSED AND ON ANY THEORY OF LIABILITY, WHETHER IN CONTRACT, ST
      +                          RICT
    60                           ; LIABILITY, OR TORT (INCLUDING NEGLIGENCE OR OTHERWISE) ARISING IN ANY WAY OUT OF THE U
      +                          SE OF
    61                           ; THIS SOFTWARE, EVEN IF ADVISED OF THE POSSIBILITY OF SUCH DAMAGE.
    62                           ; 
    63                           ; 
    64                           ; Code-generator required, PIC18F4620 Definitions
    65                           ; 
    66                           ; SFR Addresses
    67   000000                     
    68                           	psect	idataCOMRAM
    69   001C50                     __pidataCOMRAM:
    70                           	callstack 0
    71                           
    72                           ;initializer for _port_registers
    73   001C50  80                 	db	128
    74   001C51  0F                 	db	15
    75   001C52  81                 	db	129
    76   001C53  0F                 	db	15
    77   001C54  82                 	db	130
    78   001C55  0F                 	db	15
    79   001C56  83                 	db	131
    80   001C57  0F                 	db	15
    81   001C58  84                 	db	132
    82   001C59  0F                 	db	15
    83                           
    84                           ;initializer for _lat_registers
    85   001C5A  89                 	db	137
    86   001C5B  0F                 	db	15
    87   001C5C  8A                 	db	138
    88   001C5D  0F                 	db	15
    89   001C5E  8B                 	db	139
    90   001C5F  0F                 	db	15
    91   001C60  8C                 	db	140
    92   001C61  0F                 	db	15
    93   001C62  8D                 	db	141
    94   001C63  0F                 	db	15
    95                           
    96                           ;initializer for _tris_registers
    97   001C64  92                 	db	146
    98   001C65  0F                 	db	15
    99   001C66  93                 	db	147
   100   001C67  0F                 	db	15
   101   001C68  94                 	db	148
   102   001C69  0F                 	db	15
   103   001C6A  95                 	db	149
   104   001C6B  0F                 	db	15
   105   001C6C  96                 	db	150
   106   001C6D  0F                 	db	15
   107                           
   108                           ;initializer for _btn_low_valid
   109   001C6E  0001               	dw	1
   110                           
   111                           ;initializer for _btn_high_valid
   112   001C70  0001               	dw	1
   113                           
   114                           ;initializer for _btn_low_last_valid_status
   115   001C72  01                 	db	1
   116                           
   117                           ;initializer for _btn_low_valid_status
   118   001C73  01                 	db	1
   119                           
   120                           ;initializer for _btn_high_last_valid_status
   121   001C74  01                 	db	1
   122                           
   123                           ;initializer for _btn_high_valid_status
   124   001C75  01                 	db	1
   125                           
   126                           ;initializer for _btn_low
   127   001C76  4B                 	db	75
   128   001C77  01                 	db	1
   129   001C78  01                 	db	1
   130                           
   131                           ;initializer for _btn_high
   132   001C79  43                 	db	67
   133   001C7A  01                 	db	1
   134   001C7B  00                 	db	0
   135                           
   136                           ;initializer for _btn_low_status
   137   001C7C  01                 	db	1
   138                           
   139                           ;initializer for _btn_high_status
   140   001C7D  01                 	db	1
   141                           
   142                           ;initializer for _led8
   143   001C7E  72                 	db	114
   144                           
   145                           ;initializer for _led7
   146   001C7F  62                 	db	98
   147                           
   148                           ;initializer for _led6
   149   001C80  52                 	db	82
   150                           
   151                           ;initializer for _led5
   152   001C81  42                 	db	66
   153                           
   154                           ;initializer for _led4
   155   001C82  32                 	db	50
   156                           
   157                           ;initializer for _led3
   158   001C83  22                 	db	34
   159                           
   160                           ;initializer for _led2
   161   001C84  12                 	db	18
   162                           
   163                           ;initializer for _led1
   164   001C85  02                 	db	2
   165                           
   166                           	psect	nvCOMRAM
   167   00004B                     __pnvCOMRAM:
   168                           	callstack 0
   169   00004B                     _ret:
   170                           	callstack 0
   171   00004B                     	ds	1
   172   000000                     _PORTE	set	3972
   173   000000                     _PORTD	set	3971
   174   000000                     _PORTC	set	3970
   175   000000                     _PORTB	set	3969
   176   000000                     _PORTA	set	3968
   177   000000                     _LATA	set	3977
   178   000000                     _TRISA	set	3986
   179   000000                     _TRISE	set	3990
   180   000000                     _TRISD	set	3989
   181   000000                     _TRISC	set	3988
   182   000000                     _TRISB	set	3987
   183   000000                     _LATE	set	3981
   184   000000                     _LATD	set	3980
   185   000000                     _LATC	set	3979
   186   000000                     _LATB	set	3978
   187                           
   188                           ; #config settings
   189                           
   190                           	psect	cinit
   191   001C86                     __pcinit:
   192                           	callstack 0
   193   001C86                     start_initialization:
   194                           	callstack 0
   195   001C86                     __initialization:
   196                           	callstack 0
   197                           
   198                           ; Initialize objects allocated to COMRAM (54 bytes)
   199                           ; load TBLPTR registers with __pidataCOMRAM
   200   001C86  0E50               	movlw	low __pidataCOMRAM
   201   001C88  6EF6               	movwf	tblptrl,c
   202   001C8A  0E1C               	movlw	high __pidataCOMRAM
   203   001C8C  6EF7               	movwf	tblptrh,c
   204   001C8E  0E00               	movlw	low (__pidataCOMRAM shr (0+16))
   205   001C90  6EF8               	movwf	tblptru,c
   206   001C92  EE00  F001         	lfsr	0,__pdataCOMRAM
   207   001C96  EE10 F036          	lfsr	1,54
   208   001C9A                     copy_data0:
   209   001C9A  0009               	tblrd		*+
   210   001C9C  CFF5 FFEE          	movff	tablat,postinc0
   211   001CA0  50E5               	movf	postdec1,w,c
   212   001CA2  50E1               	movf	fsr1l,w,c
   213   001CA4  E1FA               	bnz	copy_data0
   214                           
   215                           ; Clear objects allocated to COMRAM (5 bytes)
   216   001CA6  6A4A               	clrf	(__pbssCOMRAM+4)& (0+255),c
   217   001CA8  6A49               	clrf	(__pbssCOMRAM+3)& (0+255),c
   218   001CAA  6A48               	clrf	(__pbssCOMRAM+2)& (0+255),c
   219   001CAC  6A47               	clrf	(__pbssCOMRAM+1)& (0+255),c
   220   001CAE  6A46               	clrf	__pbssCOMRAM& (0+255),c
   221   001CB0                     end_of_initialization:
   222                           	callstack 0
   223   001CB0                     __end_of__initialization:
   224                           	callstack 0
   225   001CB0  0E00               	movlw	low (__Lmediumconst shr (0+16))
   226   001CB2  6EF8               	movwf	tblptru,c
   227   001CB4  0100               	movlb	0
   228   001CB6  EF01  F008         	goto	_main	;jump to C main() function
   229                           
   230                           	psect	bssCOMRAM
   231   000046                     __pbssCOMRAM:
   232                           	callstack 0
   233   000046                     _program_selected:
   234                           	callstack 0
   235   000046                     	ds	1
   236   000047                     led_turn_toggle@F2589:
   237                           	callstack 0
   238   000047                     	ds	1
   239   000048                     led_turn_off@F2584:
   240                           	callstack 0
   241   000048                     	ds	1
   242   000049                     led_turn_on@F2579:
   243                           	callstack 0
   244   000049                     	ds	1
   245   00004A                     led_intialize@F2574:
   246                           	callstack 0
   247   00004A                     	ds	1
   248                           
   249                           	psect	dataCOMRAM
   250   000001                     __pdataCOMRAM:
   251                           	callstack 0
   252   000001                     _port_registers:
   253                           	callstack 0
   254   000001                     	ds	10
   255   00000B                     _lat_registers:
   256                           	callstack 0
   257   00000B                     	ds	10
   258   000015                     _tris_registers:
   259                           	callstack 0
   260   000015                     	ds	10
   261   00001F                     _btn_low_valid:
   262                           	callstack 0
   263   00001F                     	ds	2
   264   000021                     _btn_high_valid:
   265                           	callstack 0
   266   000021                     	ds	2
   267   000023                     _btn_low_last_valid_status:
   268                           	callstack 0
   269   000023                     	ds	1
   270   000024                     _btn_low_valid_status:
   271                           	callstack 0
   272   000024                     	ds	1
   273   000025                     _btn_high_last_valid_status:
   274                           	callstack 0
   275   000025                     	ds	1
   276   000026                     _btn_high_valid_status:
   277                           	callstack 0
   278   000026                     	ds	1
   279   000027                     _btn_low:
   280                           	callstack 0
   281   000027                     	ds	3
   282   00002A                     _btn_high:
   283                           	callstack 0
   284   00002A                     	ds	3
   285   00002D                     _btn_low_status:
   286                           	callstack 0
   287   00002D                     	ds	1
   288   00002E                     _btn_high_status:
   289                           	callstack 0
   290   00002E                     	ds	1
   291   00002F                     _led8:
   292                           	callstack 0
   293   00002F                     	ds	1
   294   000030                     _led7:
   295                           	callstack 0
   296   000030                     	ds	1
   297   000031                     _led6:
   298                           	callstack 0
   299   000031                     	ds	1
   300   000032                     _led5:
   301                           	callstack 0
   302   000032                     	ds	1
   303   000033                     _led4:
   304                           	callstack 0
   305   000033                     	ds	1
   306   000034                     _led3:
   307                           	callstack 0
   308   000034                     	ds	1
   309   000035                     _led2:
   310                           	callstack 0
   311   000035                     	ds	1
   312   000036                     _led1:
   313                           	callstack 0
   314   000036                     	ds	1
   315                           
   316                           	psect	cstackCOMRAM
   317   000037                     __pcstackCOMRAM:
   318                           	callstack 0
   319   000037                     gpio_pin_direction_intialize@_pin_config:
   320                           	callstack 0
   321   000037                     gpio_pin_write_logic@_pin_config:
   322                           	callstack 0
   323   000037                     gpio_pin_read_logic@_pin_config:
   324                           	callstack 0
   325   000037                     gpio_pin_toggle_logic@_pin_config:
   326                           	callstack 0
   327                           
   328                           ; 1 bytes @ 0x0
   329   000037                     	ds	1
   330   000038                     ??_gpio_pin_toggle_logic:
   331   000038                     ??_gpio_pin_direction_intialize:
   332   000038                     gpio_pin_write_logic@logic:
   333                           	callstack 0
   334   000038                     gpio_pin_read_logic@logic:
   335                           	callstack 0
   336                           
   337                           ; 1 bytes @ 0x1
   338   000038                     	ds	1
   339   000039                     ??_gpio_pin_write_logic:
   340   000039                     ??_gpio_pin_read_logic:
   341                           
   342                           ; 1 bytes @ 0x2
   343   000039                     	ds	3
   344   00003C                     led_turn_toggle@led:
   345                           	callstack 0
   346                           
   347                           ; 1 bytes @ 0x5
   348   00003C                     	ds	1
   349   00003D                     ??_led_turn_toggle:
   350   00003D                     gpio_pin_direction_intialize@ret:
   351                           	callstack 0
   352   00003D                     button_read_state@btn:
   353                           	callstack 0
   354                           
   355                           ; 1 bytes @ 0x6
   356   00003D                     	ds	1
   357   00003E                     led_turn_toggle@pin_obj:
   358                           	callstack 0
   359   00003E                     gpio_pin_write_logic@ret:
   360                           	callstack 0
   361   00003E                     button_intialize@btn:
   362                           	callstack 0
   363   00003E                     button_read_state@btn_state:
   364                           	callstack 0
   365                           
   366                           ; 1 bytes @ 0x7
   367   00003E                     	ds	1
   368   00003F                     led_turn_on@led:
   369                           	callstack 0
   370   00003F                     led_turn_off@led:
   371                           	callstack 0
   372   00003F                     gpio_pin_intialize@_pin_config:
   373                           	callstack 0
   374   00003F                     button_intialize@ret:
   375                           	callstack 0
   376                           
   377                           ; 1 bytes @ 0x8
   378   00003F                     	ds	1
   379   000040                     ??_gpio_pin_intialize:
   380   000040                     ??_led_turn_on:
   381   000040                     ??_led_turn_off:
   382   000040                     button_read_state@ret:
   383                           	callstack 0
   384                           
   385                           ; 1 bytes @ 0x9
   386   000040                     	ds	1
   387   000041                     led_turn_on@pin_obj:
   388                           	callstack 0
   389   000041                     led_turn_off@pin_obj:
   390                           	callstack 0
   391   000041                     gpio_pin_intialize@ret:
   392                           	callstack 0
   393   000041                     button_read_state@pin_logic_status:
   394                           	callstack 0
   395                           
   396                           ; 1 bytes @ 0xA
   397   000041                     	ds	1
   398   000042                     ??_program_1:
   399   000042                     ??_program_2:
   400   000042                     ??_program_3:
   401   000042                     ??_program_4:
   402   000042                     led_intialize@led:
   403                           	callstack 0
   404                           
   405                           ; 1 bytes @ 0xB
   406   000042                     	ds	1
   407   000043                     ??_led_intialize:
   408                           
   409                           ; 1 bytes @ 0xC
   410   000043                     	ds	1
   411   000044                     led_intialize@ret:
   412                           	callstack 0
   413   000044                     program_1@i:
   414                           	callstack 0
   415   000044                     program_4@i:
   416                           	callstack 0
   417                           
   418                           ; 1 bytes @ 0xD
   419   000044                     	ds	1
   420   000045                     led_intialize@pin_obj:
   421                           	callstack 0
   422                           
   423                           ; 1 bytes @ 0xE
   424   000045                     	ds	1
   425   000046                     
   426                           ; 1 bytes @ 0xF
   427 ;;
   428 ;;Main: autosize = 0, tempsize = 0, incstack = 0, save=0
   429 ;;
   430 ;; *************** function _main *****************
   431 ;; Defined at:
   432 ;;		line 164 in file "application.c"
   433 ;; Parameters:    Size  Location     Type
   434 ;;		None
   435 ;; Auto vars:     Size  Location     Type
   436 ;;		None
   437 ;; Return value:  Size  Location     Type
   438 ;;                  2  227[None  ] int 
   439 ;; Registers used:
   440 ;;		wreg, fsr1l, fsr1h, fsr2l, fsr2h, status,2, status,0, prodl, prodh, cstack
   441 ;; Tracked objects:
   442 ;;		On entry : 0/0
   443 ;;		On exit  : 0/0
   444 ;;		Unchanged: 0/0
   445 ;; Data sizes:     COMRAM   BANK0   BANK1   BANK2   BANK3   BANK4   BANK5   BANK6   BANK7   BANK8   BANK9  BANK10  BANK1
      +1  BANK12  BANK13  BANK14  BANK15
   446 ;;      Params:         0       0       0       0       0       0       0       0       0       0       0       0       
      +0       0       0       0       0
   447 ;;      Locals:         0       0       0       0       0       0       0       0       0       0       0       0       
      +0       0       0       0       0
   448 ;;      Temps:          0       0       0       0       0       0       0       0       0       0       0       0       
      +0       0       0       0       0
   449 ;;      Totals:         0       0       0       0       0       0       0       0       0       0       0       0       
      +0       0       0       0       0
   450 ;;Total ram usage:        0 bytes
   451 ;; Hardware stack levels required when called: 4
   452 ;; This function calls:
   453 ;;		_application_intialize
   454 ;;		_button_read_state
   455 ;;		_program_1
   456 ;;		_program_2
   457 ;;		_program_3
   458 ;;		_program_4
   459 ;; This function is called by:
   460 ;;		Startup code after reset
   461 ;; This function uses a non-reentrant model
   462 ;;
   463                           
   464                           	psect	text0
   465   001002                     __ptext0:
   466                           	callstack 0
   467   001002                     _main:
   468                           	callstack 27
   469   001002                     
   470                           ;application.c: 165:     application_intialize();
   471   001002  ECC9  F00D         	call	_application_intialize	;wreg free
   472   001006                     l1676:
   473                           
   474                           ;application.c: 168:         ret = button_read_state(&btn_high,&btn_high_status);
   475   001006  0E2A               	movlw	low _btn_high
   476   001008  6E3D               	movwf	button_read_state@btn^0,c
   477   00100A  0E2E               	movlw	low _btn_high_status
   478   00100C  6E3E               	movwf	button_read_state@btn_state^0,c
   479   00100E  EC0D  F00C         	call	_button_read_state	;wreg free
   480   001012  6E4B               	movwf	_ret^0,c
   481   001014                     
   482                           ;application.c: 169:         ret = button_read_state(&btn_low,&btn_low_status);
   483   001014  0E27               	movlw	low _btn_low
   484   001016  6E3D               	movwf	button_read_state@btn^0,c
   485   001018  0E2D               	movlw	low _btn_low_status
   486   00101A  6E3E               	movwf	button_read_state@btn_state^0,c
   487   00101C  EC0D  F00C         	call	_button_read_state	;wreg free
   488   001020  6E4B               	movwf	_ret^0,c
   489   001022                     
   490                           ;application.c: 171:         if(BUTTON_PRESSED == btn_high_status){
   491   001022  502E               	movf	_btn_high_status^0,w,c
   492   001024  A4D8               	btfss	status,2,c
   493   001026  EF17  F008         	goto	u901
   494   00102A  EF19  F008         	goto	u900
   495   00102E                     u901:
   496   00102E  EF2A  F008         	goto	l1688
   497   001032                     u900:
   498   001032                     
   499                           ;application.c: 172:             btn_high_valid++;
   500   001032  4A21               	infsnz	_btn_high_valid^0,f,c
   501   001034  2A22               	incf	(_btn_high_valid+1)^0,f,c
   502   001036                     
   503                           ;application.c: 173:             if(btn_high_valid > 500){
   504   001036  0EF5               	movlw	245
   505   001038  5C21               	subwf	_btn_high_valid^0,w,c
   506   00103A  0E01               	movlw	1
   507   00103C  5822               	subwfb	(_btn_high_valid+1)^0,w,c
   508   00103E  A0D8               	btfss	status,0,c
   509   001040  EF24  F008         	goto	u911
   510   001044  EF26  F008         	goto	u910
   511   001048                     u911:
   512   001048  EF30  F008         	goto	l1690
   513   00104C                     u910:
   514   00104C                     
   515                           ;application.c: 174:                 btn_high_valid_status = BUTTON_PRESSED;
   516   00104C  0E00               	movlw	0
   517   00104E  6E26               	movwf	_btn_high_valid_status^0,c
   518   001050  EF30  F008         	goto	l1690
   519   001054                     l1688:
   520                           
   521                           ;application.c: 177:             btn_high_valid = 0;
   522   001054  0E00               	movlw	0
   523   001056  6E22               	movwf	(_btn_high_valid+1)^0,c
   524   001058  0E00               	movlw	0
   525   00105A  6E21               	movwf	_btn_high_valid^0,c
   526                           
   527                           ;application.c: 178:             btn_high_valid_status = BUTTON_RELEASED;
   528   00105C  0E01               	movlw	1
   529   00105E  6E26               	movwf	_btn_high_valid_status^0,c
   530   001060                     l1690:
   531   001060  5025               	movf	_btn_high_last_valid_status^0,w,c
   532   001062  1826               	xorwf	_btn_high_valid_status^0,w,c
   533   001064  B4D8               	btfsc	status,2,c
   534   001066  EF37  F008         	goto	u921
   535   00106A  EF39  F008         	goto	u920
   536   00106E                     u921:
   537   00106E  EF69  F008         	goto	l1710
   538   001072                     u920:
   539   001072                     
   540                           ;application.c: 181:             btn_high_last_valid_status =btn_high_valid_status;
   541   001072  C026  F025         	movff	_btn_high_valid_status,_btn_high_last_valid_status
   542   001076                     
   543                           ;application.c: 182:             if(btn_high_valid_status ==BUTTON_PRESSED){
   544   001076  5026               	movf	_btn_high_valid_status^0,w,c
   545   001078  A4D8               	btfss	status,2,c
   546   00107A  EF41  F008         	goto	u931
   547   00107E  EF43  F008         	goto	u930
   548   001082                     u931:
   549   001082  EF69  F008         	goto	l1710
   550   001086                     u930:
   551   001086                     
   552                           ;application.c: 183:                 program_selected++;
   553   001086  2A46               	incf	_program_selected^0,f,c
   554                           
   555                           ;application.c: 184:                 switch(program_selected){
   556   001088  EF56  F008         	goto	l1708
   557   00108C                     l1698:
   558   00108C  ECAE  F00B         	call	_program_1	;wreg free
   559   001090  EF69  F008         	goto	l1710
   560   001094                     l1700:
   561   001094  EC7E  F009         	call	_program_2	;wreg free
   562   001098  EF69  F008         	goto	l1710
   563   00109C                     l1702:
   564   00109C  ECC5  F008         	call	_program_3	;wreg free
   565   0010A0  EF69  F008         	goto	l1710
   566   0010A4                     l1704:
   567   0010A4  EC48  F00B         	call	_program_4	;wreg free
   568   0010A8  EF69  F008         	goto	l1710
   569   0010AC                     l1708:
   570   0010AC  5046               	movf	_program_selected^0,w,c
   571                           
   572                           ; Switch size 1, requested type "simple"
   573                           ; Number of cases is 4, Range of values is 1 to 4
   574                           ; switch strategies available:
   575                           ; Name         Instructions Cycles
   576                           ; simple_byte           13     7 (average)
   577                           ;	Chosen strategy is simple_byte
   578   0010AE  0A01               	xorlw	1	; case 1
   579   0010B0  B4D8               	btfsc	status,2,c
   580   0010B2  EF46  F008         	goto	l1698
   581   0010B6  0A03               	xorlw	3	; case 2
   582   0010B8  B4D8               	btfsc	status,2,c
   583   0010BA  EF4A  F008         	goto	l1700
   584   0010BE  0A01               	xorlw	1	; case 3
   585   0010C0  B4D8               	btfsc	status,2,c
   586   0010C2  EF4E  F008         	goto	l1702
   587   0010C6  0A07               	xorlw	7	; case 4
   588   0010C8  B4D8               	btfsc	status,2,c
   589   0010CA  EF52  F008         	goto	l1704
   590   0010CE  EF69  F008         	goto	l1710
   591   0010D2                     l1710:
   592                           
   593                           ;application.c: 192:           if(BUTTON_PRESSED == btn_low_status){
   594   0010D2  502D               	movf	_btn_low_status^0,w,c
   595   0010D4  A4D8               	btfss	status,2,c
   596   0010D6  EF6F  F008         	goto	u941
   597   0010DA  EF71  F008         	goto	u940
   598   0010DE                     u941:
   599   0010DE  EF82  F008         	goto	l1718
   600   0010E2                     u940:
   601   0010E2                     
   602                           ;application.c: 193:             btn_low_valid++;
   603   0010E2  4A1F               	infsnz	_btn_low_valid^0,f,c
   604   0010E4  2A20               	incf	(_btn_low_valid+1)^0,f,c
   605   0010E6                     
   606                           ;application.c: 194:             if(btn_low_valid > 500){
   607   0010E6  0EF5               	movlw	245
   608   0010E8  5C1F               	subwf	_btn_low_valid^0,w,c
   609   0010EA  0E01               	movlw	1
   610   0010EC  5820               	subwfb	(_btn_low_valid+1)^0,w,c
   611   0010EE  A0D8               	btfss	status,0,c
   612   0010F0  EF7C  F008         	goto	u951
   613   0010F4  EF7E  F008         	goto	u950
   614   0010F8                     u951:
   615   0010F8  EF88  F008         	goto	l1720
   616   0010FC                     u950:
   617   0010FC                     
   618                           ;application.c: 195:                 btn_low_valid_status = BUTTON_PRESSED;
   619   0010FC  0E00               	movlw	0
   620   0010FE  6E24               	movwf	_btn_low_valid_status^0,c
   621   001100  EF88  F008         	goto	l1720
   622   001104                     l1718:
   623                           
   624                           ;application.c: 198:             btn_low_valid = 0;
   625   001104  0E00               	movlw	0
   626   001106  6E20               	movwf	(_btn_low_valid+1)^0,c
   627   001108  0E00               	movlw	0
   628   00110A  6E1F               	movwf	_btn_low_valid^0,c
   629                           
   630                           ;application.c: 199:             btn_low_valid_status = BUTTON_RELEASED;
   631   00110C  0E01               	movlw	1
   632   00110E  6E24               	movwf	_btn_low_valid_status^0,c
   633   001110                     l1720:
   634                           
   635                           ;application.c: 202:         if(btn_low_valid_status !=btn_low_last_valid_status){
   636   001110  5023               	movf	_btn_low_last_valid_status^0,w,c
   637   001112  1824               	xorwf	_btn_low_valid_status^0,w,c
   638   001114  B4D8               	btfsc	status,2,c
   639   001116  EF8F  F008         	goto	u961
   640   00111A  EF91  F008         	goto	u960
   641   00111E                     u961:
   642   00111E  EF03  F008         	goto	l1676
   643   001122                     u960:
   644   001122                     
   645                           ;application.c: 203:             btn_low_last_valid_status =btn_low_valid_status;
   646   001122  C024  F023         	movff	_btn_low_valid_status,_btn_low_last_valid_status
   647   001126                     
   648                           ;application.c: 204:             if(btn_low_valid_status ==BUTTON_PRESSED){
   649   001126  5024               	movf	_btn_low_valid_status^0,w,c
   650   001128  A4D8               	btfss	status,2,c
   651   00112A  EF99  F008         	goto	u971
   652   00112E  EF9B  F008         	goto	u970
   653   001132                     u971:
   654   001132  EF03  F008         	goto	l1676
   655   001136                     u970:
   656   001136                     
   657                           ;application.c: 205:                 program_selected++;
   658   001136  2A46               	incf	_program_selected^0,f,c
   659                           
   660                           ;application.c: 206:                 switch(program_selected){
   661   001138  EFAE  F008         	goto	l1738
   662   00113C                     l1728:
   663   00113C  ECAE  F00B         	call	_program_1	;wreg free
   664   001140  EF03  F008         	goto	l1676
   665   001144                     l1730:
   666   001144  EC7E  F009         	call	_program_2	;wreg free
   667   001148  EF03  F008         	goto	l1676
   668   00114C                     l1732:
   669   00114C  ECC5  F008         	call	_program_3	;wreg free
   670   001150  EF03  F008         	goto	l1676
   671   001154                     l1734:
   672   001154  EC48  F00B         	call	_program_4	;wreg free
   673   001158  EF03  F008         	goto	l1676
   674   00115C                     l1738:
   675   00115C  5046               	movf	_program_selected^0,w,c
   676                           
   677                           ; Switch size 1, requested type "simple"
   678                           ; Number of cases is 4, Range of values is 1 to 4
   679                           ; switch strategies available:
   680                           ; Name         Instructions Cycles
   681                           ; simple_byte           13     7 (average)
   682                           ;	Chosen strategy is simple_byte
   683   00115E  0A01               	xorlw	1	; case 1
   684   001160  B4D8               	btfsc	status,2,c
   685   001162  EF9E  F008         	goto	l1728
   686   001166  0A03               	xorlw	3	; case 2
   687   001168  B4D8               	btfsc	status,2,c
   688   00116A  EFA2  F008         	goto	l1730
   689   00116E  0A01               	xorlw	1	; case 3
   690   001170  B4D8               	btfsc	status,2,c
   691   001172  EFA6  F008         	goto	l1732
   692   001176  0A07               	xorlw	7	; case 4
   693   001178  B4D8               	btfsc	status,2,c
   694   00117A  EFAA  F008         	goto	l1734
   695   00117E  EFC1  F008         	goto	l243
   696   001182                     l243:
   697   001182  EF03  F008         	goto	l1676
   698   001186  EF00  F000         	goto	start
   699   00118A                     __end_of_main:
   700                           	callstack 0
   701                           
   702 ;; *************** function _program_4 *****************
   703 ;; Defined at:
   704 ;;		line 140 in file "application.c"
   705 ;; Parameters:    Size  Location     Type
   706 ;;		None
   707 ;; Auto vars:     Size  Location     Type
   708 ;;  i               1   13[COMRAM] unsigned char 
   709 ;; Return value:  Size  Location     Type
   710 ;;                  1    wreg      void 
   711 ;; Registers used:
   712 ;;		wreg, fsr2l, fsr2h, status,2, status,0, prodl, prodh, cstack
   713 ;; Tracked objects:
   714 ;;		On entry : 0/0
   715 ;;		On exit  : 0/0
   716 ;;		Unchanged: 0/0
   717 ;; Data sizes:     COMRAM   BANK0   BANK1   BANK2   BANK3   BANK4   BANK5   BANK6   BANK7   BANK8   BANK9  BANK10  BANK1
      +1  BANK12  BANK13  BANK14  BANK15
   718 ;;      Params:         0       0       0       0       0       0       0       0       0       0       0       0       
      +0       0       0       0       0
   719 ;;      Locals:         1       0       0       0       0       0       0       0       0       0       0       0       
      +0       0       0       0       0
   720 ;;      Temps:          2       0       0       0       0       0       0       0       0       0       0       0       
      +0       0       0       0       0
   721 ;;      Totals:         3       0       0       0       0       0       0       0       0       0       0       0       
      +0       0       0       0       0
   722 ;;Total ram usage:        3 bytes
   723 ;; Hardware stack levels used: 1
   724 ;; Hardware stack levels required when called: 2
   725 ;; This function calls:
   726 ;;		_led_turn_off
   727 ;;		_led_turn_on
   728 ;; This function is called by:
   729 ;;		_main
   730 ;; This function uses a non-reentrant model
   731 ;;
   732                           
   733                           	psect	text1
   734   001690                     __ptext1:
   735                           	callstack 0
   736   001690                     _program_4:
   737                           	callstack 28
   738   001690                     
   739                           ;application.c: 141:    for(uint8 i=0;i<10;i++){
   740   001690  0E00               	movlw	0
   741   001692  6E44               	movwf	program_4@i^0,c
   742   001694                     l1616:
   743                           
   744                           ;application.c: 142:      led_turn_on(&led1);
   745   001694  0E36               	movlw	low _led1
   746   001696  6E3F               	movwf	led_turn_on@led^0,c
   747   001698  EC2C  F00D         	call	_led_turn_on	;wreg free
   748                           
   749                           ;application.c: 143:     led_turn_off(&led2);
   750   00169C  0E35               	movlw	low _led2
   751   00169E  6E3F               	movwf	led_turn_off@led^0,c
   752   0016A0  EC61  F00D         	call	_led_turn_off	;wreg free
   753                           
   754                           ;application.c: 144:     led_turn_on(&led3);
   755   0016A4  0E34               	movlw	low _led3
   756   0016A6  6E3F               	movwf	led_turn_on@led^0,c
   757   0016A8  EC2C  F00D         	call	_led_turn_on	;wreg free
   758                           
   759                           ;application.c: 145:     led_turn_off(&led4);
   760   0016AC  0E33               	movlw	low _led4
   761   0016AE  6E3F               	movwf	led_turn_off@led^0,c
   762   0016B0  EC61  F00D         	call	_led_turn_off	;wreg free
   763                           
   764                           ;application.c: 146:     led_turn_on(&led5);
   765   0016B4  0E32               	movlw	low _led5
   766   0016B6  6E3F               	movwf	led_turn_on@led^0,c
   767   0016B8  EC2C  F00D         	call	_led_turn_on	;wreg free
   768                           
   769                           ;application.c: 147:     led_turn_off(&led6);
   770   0016BC  0E31               	movlw	low _led6
   771   0016BE  6E3F               	movwf	led_turn_off@led^0,c
   772   0016C0  EC61  F00D         	call	_led_turn_off	;wreg free
   773                           
   774                           ;application.c: 148:     led_turn_on(&led7);
   775   0016C4  0E30               	movlw	low _led7
   776   0016C6  6E3F               	movwf	led_turn_on@led^0,c
   777   0016C8  EC2C  F00D         	call	_led_turn_on	;wreg free
   778                           
   779                           ;application.c: 149:     led_turn_off(&led8);
   780   0016CC  0E2F               	movlw	low _led8
   781   0016CE  6E3F               	movwf	led_turn_off@led^0,c
   782   0016D0  EC61  F00D         	call	_led_turn_off	;wreg free
   783   0016D4                     
   784                           ;application.c: 150:     _delay((unsigned long)((250)*((uint64)3200000/4000.0)));
   785   0016D4  0E02               	movlw	2
   786   0016D6  6E43               	movwf	(??_program_4+1)^0,c
   787   0016D8  0E04               	movlw	4
   788   0016DA  6E42               	movwf	??_program_4^0,c
   789   0016DC  0EBA               	movlw	186
   790   0016DE                     u987:
   791   0016DE  2EE8               	decfsz	wreg,f,c
   792   0016E0  D7FE               	bra	u987
   793   0016E2  2E42               	decfsz	??_program_4^0,f,c
   794   0016E4  D7FC               	bra	u987
   795   0016E6  2E43               	decfsz	(??_program_4+1)^0,f,c
   796   0016E8  D7FA               	bra	u987
   797   0016EA  D000               	nop2	
   798   0016EC                     
   799                           ;application.c: 151:     led_turn_off(&led1);
   800   0016EC  0E36               	movlw	low _led1
   801   0016EE  6E3F               	movwf	led_turn_off@led^0,c
   802   0016F0  EC61  F00D         	call	_led_turn_off	;wreg free
   803   0016F4                     
   804                           ;application.c: 152:     led_turn_on(&led2);
   805   0016F4  0E35               	movlw	low _led2
   806   0016F6  6E3F               	movwf	led_turn_on@led^0,c
   807   0016F8  EC2C  F00D         	call	_led_turn_on	;wreg free
   808   0016FC                     
   809                           ;application.c: 153:     led_turn_off(&led3);
   810   0016FC  0E34               	movlw	low _led3
   811   0016FE  6E3F               	movwf	led_turn_off@led^0,c
   812   001700  EC61  F00D         	call	_led_turn_off	;wreg free
   813   001704                     
   814                           ;application.c: 154:     led_turn_on(&led4);
   815   001704  0E33               	movlw	low _led4
   816   001706  6E3F               	movwf	led_turn_on@led^0,c
   817   001708  EC2C  F00D         	call	_led_turn_on	;wreg free
   818   00170C                     
   819                           ;application.c: 155:     led_turn_off(&led5);
   820   00170C  0E32               	movlw	low _led5
   821   00170E  6E3F               	movwf	led_turn_off@led^0,c
   822   001710  EC61  F00D         	call	_led_turn_off	;wreg free
   823   001714                     
   824                           ;application.c: 156:     led_turn_on(&led6);
   825   001714  0E31               	movlw	low _led6
   826   001716  6E3F               	movwf	led_turn_on@led^0,c
   827   001718  EC2C  F00D         	call	_led_turn_on	;wreg free
   828   00171C                     
   829                           ;application.c: 157:     led_turn_off(&led7);
   830   00171C  0E30               	movlw	low _led7
   831   00171E  6E3F               	movwf	led_turn_off@led^0,c
   832   001720  EC61  F00D         	call	_led_turn_off	;wreg free
   833   001724                     
   834                           ;application.c: 158:     led_turn_on(&led8);
   835   001724  0E2F               	movlw	low _led8
   836   001726  6E3F               	movwf	led_turn_on@led^0,c
   837   001728  EC2C  F00D         	call	_led_turn_on	;wreg free
   838   00172C                     
   839                           ;application.c: 159:     _delay((unsigned long)((250)*((uint64)3200000/4000.0)));
   840   00172C  0E02               	movlw	2
   841   00172E  6E43               	movwf	(??_program_4+1)^0,c
   842   001730  0E04               	movlw	4
   843   001732  6E42               	movwf	??_program_4^0,c
   844   001734  0EBA               	movlw	186
   845   001736                     u997:
   846   001736  2EE8               	decfsz	wreg,f,c
   847   001738  D7FE               	bra	u997
   848   00173A  2E42               	decfsz	??_program_4^0,f,c
   849   00173C  D7FC               	bra	u997
   850   00173E  2E43               	decfsz	(??_program_4+1)^0,f,c
   851   001740  D7FA               	bra	u997
   852   001742  D000               	nop2	
   853   001744                     
   854                           ;application.c: 160:    }
   855   001744  2A44               	incf	program_4@i^0,f,c
   856   001746  0E09               	movlw	9
   857   001748  6444               	cpfsgt	program_4@i^0,c
   858   00174A  EFA9  F00B         	goto	u831
   859   00174E  EFAB  F00B         	goto	u830
   860   001752                     u831:
   861   001752  EF4A  F00B         	goto	l1616
   862   001756                     u830:
   863   001756                     
   864                           ;application.c: 161:    program_selected =0;
   865   001756  0E00               	movlw	0
   866   001758  6E46               	movwf	_program_selected^0,c
   867   00175A  0012               	return		;funcret
   868   00175C                     __end_of_program_4:
   869                           	callstack 0
   870                           
   871 ;; *************** function _program_3 *****************
   872 ;; Defined at:
   873 ;;		line 107 in file "application.c"
   874 ;; Parameters:    Size  Location     Type
   875 ;;		None
   876 ;; Auto vars:     Size  Location     Type
   877 ;;		None
   878 ;; Return value:  Size  Location     Type
   879 ;;                  1    wreg      void 
   880 ;; Registers used:
   881 ;;		wreg, fsr2l, fsr2h, status,2, status,0, prodl, prodh, cstack
   882 ;; Tracked objects:
   883 ;;		On entry : 0/0
   884 ;;		On exit  : 0/0
   885 ;;		Unchanged: 0/0
   886 ;; Data sizes:     COMRAM   BANK0   BANK1   BANK2   BANK3   BANK4   BANK5   BANK6   BANK7   BANK8   BANK9  BANK10  BANK1
      +1  BANK12  BANK13  BANK14  BANK15
   887 ;;      Params:         0       0       0       0       0       0       0       0       0       0       0       0       
      +0       0       0       0       0
   888 ;;      Locals:         0       0       0       0       0       0       0       0       0       0       0       0       
      +0       0       0       0       0
   889 ;;      Temps:          2       0       0       0       0       0       0       0       0       0       0       0       
      +0       0       0       0       0
   890 ;;      Totals:         2       0       0       0       0       0       0       0       0       0       0       0       
      +0       0       0       0       0
   891 ;;Total ram usage:        2 bytes
   892 ;; Hardware stack levels used: 1
   893 ;; Hardware stack levels required when called: 2
   894 ;; This function calls:
   895 ;;		_led_turn_off
   896 ;;		_led_turn_on
   897 ;;		_led_turn_toggle
   898 ;; This function is called by:
   899 ;;		_main
   900 ;; This function uses a non-reentrant model
   901 ;;
   902                           
   903                           	psect	text2
   904   00118A                     __ptext2:
   905                           	callstack 0
   906   00118A                     _program_3:
   907                           	callstack 28
   908   00118A                     
   909                           ;application.c: 108:     led_turn_on(&led8);
   910   00118A  0E2F               	movlw	low _led8
   911   00118C  6E3F               	movwf	led_turn_on@led^0,c
   912   00118E  EC2C  F00D         	call	_led_turn_on	;wreg free
   913                           
   914                           ;application.c: 109:     led_turn_off(&led7);
   915   001192  0E30               	movlw	low _led7
   916   001194  6E3F               	movwf	led_turn_off@led^0,c
   917   001196  EC61  F00D         	call	_led_turn_off	;wreg free
   918                           
   919                           ;application.c: 110:     led_turn_off(&led6);
   920   00119A  0E31               	movlw	low _led6
   921   00119C  6E3F               	movwf	led_turn_off@led^0,c
   922   00119E  EC61  F00D         	call	_led_turn_off	;wreg free
   923                           
   924                           ;application.c: 111:     led_turn_off(&led5);
   925   0011A2  0E32               	movlw	low _led5
   926   0011A4  6E3F               	movwf	led_turn_off@led^0,c
   927   0011A6  EC61  F00D         	call	_led_turn_off	;wreg free
   928                           
   929                           ;application.c: 112:     led_turn_off(&led4);
   930   0011AA  0E33               	movlw	low _led4
   931   0011AC  6E3F               	movwf	led_turn_off@led^0,c
   932   0011AE  EC61  F00D         	call	_led_turn_off	;wreg free
   933                           
   934                           ;application.c: 113:     led_turn_off(&led3);
   935   0011B2  0E34               	movlw	low _led3
   936   0011B4  6E3F               	movwf	led_turn_off@led^0,c
   937   0011B6  EC61  F00D         	call	_led_turn_off	;wreg free
   938                           
   939                           ;application.c: 114:     led_turn_off(&led2);
   940   0011BA  0E35               	movlw	low _led2
   941   0011BC  6E3F               	movwf	led_turn_off@led^0,c
   942   0011BE  EC61  F00D         	call	_led_turn_off	;wreg free
   943                           
   944                           ;application.c: 115:     led_turn_off(&led1);
   945   0011C2  0E36               	movlw	low _led1
   946   0011C4  6E3F               	movwf	led_turn_off@led^0,c
   947   0011C6  EC61  F00D         	call	_led_turn_off	;wreg free
   948   0011CA                     
   949                           ;application.c: 116:     _delay((unsigned long)((250)*((uint64)3200000/4000.0)));
   950   0011CA  0E02               	movlw	2
   951   0011CC  6E43               	movwf	(??_program_3+1)^0,c
   952   0011CE  0E04               	movlw	4
   953   0011D0  6E42               	movwf	??_program_3^0,c
   954   0011D2  0EBA               	movlw	186
   955   0011D4                     u1007:
   956   0011D4  2EE8               	decfsz	wreg,f,c
   957   0011D6  D7FE               	bra	u1007
   958   0011D8  2E42               	decfsz	??_program_3^0,f,c
   959   0011DA  D7FC               	bra	u1007
   960   0011DC  2E43               	decfsz	(??_program_3+1)^0,f,c
   961   0011DE  D7FA               	bra	u1007
   962   0011E0  D000               	nop2	
   963   0011E2                     
   964                           ;application.c: 117:     led_turn_toggle(&led8);
   965   0011E2  0E2F               	movlw	low _led8
   966   0011E4  6E3C               	movwf	led_turn_toggle@led^0,c
   967   0011E6  EC96  F00D         	call	_led_turn_toggle	;wreg free
   968   0011EA                     
   969                           ;application.c: 118:     led_turn_toggle(&led7);
   970   0011EA  0E30               	movlw	low _led7
   971   0011EC  6E3C               	movwf	led_turn_toggle@led^0,c
   972   0011EE  EC96  F00D         	call	_led_turn_toggle	;wreg free
   973   0011F2                     
   974                           ;application.c: 119:     _delay((unsigned long)((250)*((uint64)3200000/4000.0)));
   975   0011F2  0E02               	movlw	2
   976   0011F4  6E43               	movwf	(??_program_3+1)^0,c
   977   0011F6  0E04               	movlw	4
   978   0011F8  6E42               	movwf	??_program_3^0,c
   979   0011FA  0EBA               	movlw	186
   980   0011FC                     u1017:
   981   0011FC  2EE8               	decfsz	wreg,f,c
   982   0011FE  D7FE               	bra	u1017
   983   001200  2E42               	decfsz	??_program_3^0,f,c
   984   001202  D7FC               	bra	u1017
   985   001204  2E43               	decfsz	(??_program_3+1)^0,f,c
   986   001206  D7FA               	bra	u1017
   987   001208  D000               	nop2	
   988                           
   989                           ;application.c: 120:     led_turn_toggle(&led7);
   990   00120A  0E30               	movlw	low _led7
   991   00120C  6E3C               	movwf	led_turn_toggle@led^0,c
   992   00120E  EC96  F00D         	call	_led_turn_toggle	;wreg free
   993                           
   994                           ;application.c: 121:     led_turn_toggle(&led6);
   995   001212  0E31               	movlw	low _led6
   996   001214  6E3C               	movwf	led_turn_toggle@led^0,c
   997   001216  EC96  F00D         	call	_led_turn_toggle	;wreg free
   998   00121A                     
   999                           ;application.c: 122:     _delay((unsigned long)((250)*((uint64)3200000/4000.0)));
  1000   00121A  0E02               	movlw	2
  1001   00121C  6E43               	movwf	(??_program_3+1)^0,c
  1002   00121E  0E04               	movlw	4
  1003   001220  6E42               	movwf	??_program_3^0,c
  1004   001222  0EBA               	movlw	186
  1005   001224                     u1027:
  1006   001224  2EE8               	decfsz	wreg,f,c
  1007   001226  D7FE               	bra	u1027
  1008   001228  2E42               	decfsz	??_program_3^0,f,c
  1009   00122A  D7FC               	bra	u1027
  1010   00122C  2E43               	decfsz	(??_program_3+1)^0,f,c
  1011   00122E  D7FA               	bra	u1027
  1012   001230  D000               	nop2	
  1013   001232                     
  1014                           ;application.c: 123:     led_turn_toggle(&led6);
  1015   001232  0E31               	movlw	low _led6
  1016   001234  6E3C               	movwf	led_turn_toggle@led^0,c
  1017   001236  EC96  F00D         	call	_led_turn_toggle	;wreg free
  1018   00123A                     
  1019                           ;application.c: 124:     led_turn_toggle(&led5);
  1020   00123A  0E32               	movlw	low _led5
  1021   00123C  6E3C               	movwf	led_turn_toggle@led^0,c
  1022   00123E  EC96  F00D         	call	_led_turn_toggle	;wreg free
  1023   001242                     
  1024                           ;application.c: 125:     _delay((unsigned long)((250)*((uint64)3200000/4000.0)));
  1025   001242  0E02               	movlw	2
  1026   001244  6E43               	movwf	(??_program_3+1)^0,c
  1027   001246  0E04               	movlw	4
  1028   001248  6E42               	movwf	??_program_3^0,c
  1029   00124A  0EBA               	movlw	186
  1030   00124C                     u1037:
  1031   00124C  2EE8               	decfsz	wreg,f,c
  1032   00124E  D7FE               	bra	u1037
  1033   001250  2E42               	decfsz	??_program_3^0,f,c
  1034   001252  D7FC               	bra	u1037
  1035   001254  2E43               	decfsz	(??_program_3+1)^0,f,c
  1036   001256  D7FA               	bra	u1037
  1037   001258  D000               	nop2	
  1038                           
  1039                           ;application.c: 126:     led_turn_toggle(&led5);
  1040   00125A  0E32               	movlw	low _led5
  1041   00125C  6E3C               	movwf	led_turn_toggle@led^0,c
  1042   00125E  EC96  F00D         	call	_led_turn_toggle	;wreg free
  1043                           
  1044                           ;application.c: 127:     led_turn_toggle(&led4);
  1045   001262  0E33               	movlw	low _led4
  1046   001264  6E3C               	movwf	led_turn_toggle@led^0,c
  1047   001266  EC96  F00D         	call	_led_turn_toggle	;wreg free
  1048   00126A                     
  1049                           ;application.c: 128:     _delay((unsigned long)((250)*((uint64)3200000/4000.0)));
  1050   00126A  0E02               	movlw	2
  1051   00126C  6E43               	movwf	(??_program_3+1)^0,c
  1052   00126E  0E04               	movlw	4
  1053   001270  6E42               	movwf	??_program_3^0,c
  1054   001272  0EBA               	movlw	186
  1055   001274                     u1047:
  1056   001274  2EE8               	decfsz	wreg,f,c
  1057   001276  D7FE               	bra	u1047
  1058   001278  2E42               	decfsz	??_program_3^0,f,c
  1059   00127A  D7FC               	bra	u1047
  1060   00127C  2E43               	decfsz	(??_program_3+1)^0,f,c
  1061   00127E  D7FA               	bra	u1047
  1062   001280  D000               	nop2	
  1063   001282                     
  1064                           ;application.c: 129:     led_turn_toggle(&led4);
  1065   001282  0E33               	movlw	low _led4
  1066   001284  6E3C               	movwf	led_turn_toggle@led^0,c
  1067   001286  EC96  F00D         	call	_led_turn_toggle	;wreg free
  1068   00128A                     
  1069                           ;application.c: 130:     led_turn_toggle(&led3);
  1070   00128A  0E34               	movlw	low _led3
  1071   00128C  6E3C               	movwf	led_turn_toggle@led^0,c
  1072   00128E  EC96  F00D         	call	_led_turn_toggle	;wreg free
  1073   001292                     
  1074                           ;application.c: 131:     _delay((unsigned long)((250)*((uint64)3200000/4000.0)));
  1075   001292  0E02               	movlw	2
  1076   001294  6E43               	movwf	(??_program_3+1)^0,c
  1077   001296  0E04               	movlw	4
  1078   001298  6E42               	movwf	??_program_3^0,c
  1079   00129A  0EBA               	movlw	186
  1080   00129C                     u1057:
  1081   00129C  2EE8               	decfsz	wreg,f,c
  1082   00129E  D7FE               	bra	u1057
  1083   0012A0  2E42               	decfsz	??_program_3^0,f,c
  1084   0012A2  D7FC               	bra	u1057
  1085   0012A4  2E43               	decfsz	(??_program_3+1)^0,f,c
  1086   0012A6  D7FA               	bra	u1057
  1087   0012A8  D000               	nop2	
  1088                           
  1089                           ;application.c: 132:     led_turn_toggle(&led3);
  1090   0012AA  0E34               	movlw	low _led3
  1091   0012AC  6E3C               	movwf	led_turn_toggle@led^0,c
  1092   0012AE  EC96  F00D         	call	_led_turn_toggle	;wreg free
  1093                           
  1094                           ;application.c: 133:     led_turn_toggle(&led2);
  1095   0012B2  0E35               	movlw	low _led2
  1096   0012B4  6E3C               	movwf	led_turn_toggle@led^0,c
  1097   0012B6  EC96  F00D         	call	_led_turn_toggle	;wreg free
  1098   0012BA                     
  1099                           ;application.c: 134:     _delay((unsigned long)((250)*((uint64)3200000/4000.0)));
  1100   0012BA  0E02               	movlw	2
  1101   0012BC  6E43               	movwf	(??_program_3+1)^0,c
  1102   0012BE  0E04               	movlw	4
  1103   0012C0  6E42               	movwf	??_program_3^0,c
  1104   0012C2  0EBA               	movlw	186
  1105   0012C4                     u1067:
  1106   0012C4  2EE8               	decfsz	wreg,f,c
  1107   0012C6  D7FE               	bra	u1067
  1108   0012C8  2E42               	decfsz	??_program_3^0,f,c
  1109   0012CA  D7FC               	bra	u1067
  1110   0012CC  2E43               	decfsz	(??_program_3+1)^0,f,c
  1111   0012CE  D7FA               	bra	u1067
  1112   0012D0  D000               	nop2	
  1113   0012D2                     
  1114                           ;application.c: 135:     led_turn_toggle(&led2);
  1115   0012D2  0E35               	movlw	low _led2
  1116   0012D4  6E3C               	movwf	led_turn_toggle@led^0,c
  1117   0012D6  EC96  F00D         	call	_led_turn_toggle	;wreg free
  1118   0012DA                     
  1119                           ;application.c: 136:     led_turn_toggle(&led1);
  1120   0012DA  0E36               	movlw	low _led1
  1121   0012DC  6E3C               	movwf	led_turn_toggle@led^0,c
  1122   0012DE  EC96  F00D         	call	_led_turn_toggle	;wreg free
  1123   0012E2                     
  1124                           ;application.c: 137:     _delay((unsigned long)((250)*((uint64)3200000/4000.0)));
  1125   0012E2  0E02               	movlw	2
  1126   0012E4  6E43               	movwf	(??_program_3+1)^0,c
  1127   0012E6  0E04               	movlw	4
  1128   0012E8  6E42               	movwf	??_program_3^0,c
  1129   0012EA  0EBA               	movlw	186
  1130   0012EC                     u1077:
  1131   0012EC  2EE8               	decfsz	wreg,f,c
  1132   0012EE  D7FE               	bra	u1077
  1133   0012F0  2E42               	decfsz	??_program_3^0,f,c
  1134   0012F2  D7FC               	bra	u1077
  1135   0012F4  2E43               	decfsz	(??_program_3+1)^0,f,c
  1136   0012F6  D7FA               	bra	u1077
  1137   0012F8  D000               	nop2	
  1138   0012FA  0012               	return		;funcret
  1139   0012FC                     __end_of_program_3:
  1140                           	callstack 0
  1141                           
  1142 ;; *************** function _program_2 *****************
  1143 ;; Defined at:
  1144 ;;		line 74 in file "application.c"
  1145 ;; Parameters:    Size  Location     Type
  1146 ;;		None
  1147 ;; Auto vars:     Size  Location     Type
  1148 ;;		None
  1149 ;; Return value:  Size  Location     Type
  1150 ;;                  1    wreg      void 
  1151 ;; Registers used:
  1152 ;;		wreg, fsr2l, fsr2h, status,2, status,0, prodl, prodh, cstack
  1153 ;; Tracked objects:
  1154 ;;		On entry : 0/0
  1155 ;;		On exit  : 0/0
  1156 ;;		Unchanged: 0/0
  1157 ;; Data sizes:     COMRAM   BANK0   BANK1   BANK2   BANK3   BANK4   BANK5   BANK6   BANK7   BANK8   BANK9  BANK10  BANK1
      +1  BANK12  BANK13  BANK14  BANK15
  1158 ;;      Params:         0       0       0       0       0       0       0       0       0       0       0       0       
      +0       0       0       0       0
  1159 ;;      Locals:         0       0       0       0       0       0       0       0       0       0       0       0       
      +0       0       0       0       0
  1160 ;;      Temps:          2       0       0       0       0       0       0       0       0       0       0       0       
      +0       0       0       0       0
  1161 ;;      Totals:         2       0       0       0       0       0       0       0       0       0       0       0       
      +0       0       0       0       0
  1162 ;;Total ram usage:        2 bytes
  1163 ;; Hardware stack levels used: 1
  1164 ;; Hardware stack levels required when called: 2
  1165 ;; This function calls:
  1166 ;;		_led_turn_off
  1167 ;;		_led_turn_on
  1168 ;;		_led_turn_toggle
  1169 ;; This function is called by:
  1170 ;;		_main
  1171 ;; This function uses a non-reentrant model
  1172 ;;
  1173                           
  1174                           	psect	text3
  1175   0012FC                     __ptext3:
  1176                           	callstack 0
  1177   0012FC                     _program_2:
  1178                           	callstack 28
  1179   0012FC                     
  1180                           ;application.c: 75:     led_turn_on(&led1);
  1181   0012FC  0E36               	movlw	low _led1
  1182   0012FE  6E3F               	movwf	led_turn_on@led^0,c
  1183   001300  EC2C  F00D         	call	_led_turn_on	;wreg free
  1184                           
  1185                           ;application.c: 76:     led_turn_off(&led2);
  1186   001304  0E35               	movlw	low _led2
  1187   001306  6E3F               	movwf	led_turn_off@led^0,c
  1188   001308  EC61  F00D         	call	_led_turn_off	;wreg free
  1189                           
  1190                           ;application.c: 77:     led_turn_off(&led3);
  1191   00130C  0E34               	movlw	low _led3
  1192   00130E  6E3F               	movwf	led_turn_off@led^0,c
  1193   001310  EC61  F00D         	call	_led_turn_off	;wreg free
  1194                           
  1195                           ;application.c: 78:     led_turn_off(&led4);
  1196   001314  0E33               	movlw	low _led4
  1197   001316  6E3F               	movwf	led_turn_off@led^0,c
  1198   001318  EC61  F00D         	call	_led_turn_off	;wreg free
  1199                           
  1200                           ;application.c: 79:     led_turn_off(&led5);
  1201   00131C  0E32               	movlw	low _led5
  1202   00131E  6E3F               	movwf	led_turn_off@led^0,c
  1203   001320  EC61  F00D         	call	_led_turn_off	;wreg free
  1204                           
  1205                           ;application.c: 80:     led_turn_off(&led6);
  1206   001324  0E31               	movlw	low _led6
  1207   001326  6E3F               	movwf	led_turn_off@led^0,c
  1208   001328  EC61  F00D         	call	_led_turn_off	;wreg free
  1209                           
  1210                           ;application.c: 81:     led_turn_off(&led7);
  1211   00132C  0E30               	movlw	low _led7
  1212   00132E  6E3F               	movwf	led_turn_off@led^0,c
  1213   001330  EC61  F00D         	call	_led_turn_off	;wreg free
  1214                           
  1215                           ;application.c: 82:     led_turn_off(&led8);
  1216   001334  0E2F               	movlw	low _led8
  1217   001336  6E3F               	movwf	led_turn_off@led^0,c
  1218   001338  EC61  F00D         	call	_led_turn_off	;wreg free
  1219   00133C                     
  1220                           ;application.c: 83:     _delay((unsigned long)((250)*((uint64)3200000/4000.0)));
  1221   00133C  0E02               	movlw	2
  1222   00133E  6E43               	movwf	(??_program_2+1)^0,c
  1223   001340  0E04               	movlw	4
  1224   001342  6E42               	movwf	??_program_2^0,c
  1225   001344  0EBA               	movlw	186
  1226   001346                     u1087:
  1227   001346  2EE8               	decfsz	wreg,f,c
  1228   001348  D7FE               	bra	u1087
  1229   00134A  2E42               	decfsz	??_program_2^0,f,c
  1230   00134C  D7FC               	bra	u1087
  1231   00134E  2E43               	decfsz	(??_program_2+1)^0,f,c
  1232   001350  D7FA               	bra	u1087
  1233   001352  D000               	nop2	
  1234   001354                     
  1235                           ;application.c: 84:     led_turn_toggle(&led1);
  1236   001354  0E36               	movlw	low _led1
  1237   001356  6E3C               	movwf	led_turn_toggle@led^0,c
  1238   001358  EC96  F00D         	call	_led_turn_toggle	;wreg free
  1239   00135C                     
  1240                           ;application.c: 85:     led_turn_toggle(&led2);
  1241   00135C  0E35               	movlw	low _led2
  1242   00135E  6E3C               	movwf	led_turn_toggle@led^0,c
  1243   001360  EC96  F00D         	call	_led_turn_toggle	;wreg free
  1244   001364                     
  1245                           ;application.c: 86:     _delay((unsigned long)((250)*((uint64)3200000/4000.0)));
  1246   001364  0E02               	movlw	2
  1247   001366  6E43               	movwf	(??_program_2+1)^0,c
  1248   001368  0E04               	movlw	4
  1249   00136A  6E42               	movwf	??_program_2^0,c
  1250   00136C  0EBA               	movlw	186
  1251   00136E                     u1097:
  1252   00136E  2EE8               	decfsz	wreg,f,c
  1253   001370  D7FE               	bra	u1097
  1254   001372  2E42               	decfsz	??_program_2^0,f,c
  1255   001374  D7FC               	bra	u1097
  1256   001376  2E43               	decfsz	(??_program_2+1)^0,f,c
  1257   001378  D7FA               	bra	u1097
  1258   00137A  D000               	nop2	
  1259                           
  1260                           ;application.c: 87:     led_turn_toggle(&led2);
  1261   00137C  0E35               	movlw	low _led2
  1262   00137E  6E3C               	movwf	led_turn_toggle@led^0,c
  1263   001380  EC96  F00D         	call	_led_turn_toggle	;wreg free
  1264                           
  1265                           ;application.c: 88:     led_turn_toggle(&led3);
  1266   001384  0E34               	movlw	low _led3
  1267   001386  6E3C               	movwf	led_turn_toggle@led^0,c
  1268   001388  EC96  F00D         	call	_led_turn_toggle	;wreg free
  1269   00138C                     
  1270                           ;application.c: 89:     _delay((unsigned long)((250)*((uint64)3200000/4000.0)));
  1271   00138C  0E02               	movlw	2
  1272   00138E  6E43               	movwf	(??_program_2+1)^0,c
  1273   001390  0E04               	movlw	4
  1274   001392  6E42               	movwf	??_program_2^0,c
  1275   001394  0EBA               	movlw	186
  1276   001396                     u1107:
  1277   001396  2EE8               	decfsz	wreg,f,c
  1278   001398  D7FE               	bra	u1107
  1279   00139A  2E42               	decfsz	??_program_2^0,f,c
  1280   00139C  D7FC               	bra	u1107
  1281   00139E  2E43               	decfsz	(??_program_2+1)^0,f,c
  1282   0013A0  D7FA               	bra	u1107
  1283   0013A2  D000               	nop2	
  1284   0013A4                     
  1285                           ;application.c: 90:     led_turn_toggle(&led3);
  1286   0013A4  0E34               	movlw	low _led3
  1287   0013A6  6E3C               	movwf	led_turn_toggle@led^0,c
  1288   0013A8  EC96  F00D         	call	_led_turn_toggle	;wreg free
  1289   0013AC                     
  1290                           ;application.c: 91:     led_turn_toggle(&led4);
  1291   0013AC  0E33               	movlw	low _led4
  1292   0013AE  6E3C               	movwf	led_turn_toggle@led^0,c
  1293   0013B0  EC96  F00D         	call	_led_turn_toggle	;wreg free
  1294   0013B4                     
  1295                           ;application.c: 92:     _delay((unsigned long)((250)*((uint64)3200000/4000.0)));
  1296   0013B4  0E02               	movlw	2
  1297   0013B6  6E43               	movwf	(??_program_2+1)^0,c
  1298   0013B8  0E04               	movlw	4
  1299   0013BA  6E42               	movwf	??_program_2^0,c
  1300   0013BC  0EBA               	movlw	186
  1301   0013BE                     u1117:
  1302   0013BE  2EE8               	decfsz	wreg,f,c
  1303   0013C0  D7FE               	bra	u1117
  1304   0013C2  2E42               	decfsz	??_program_2^0,f,c
  1305   0013C4  D7FC               	bra	u1117
  1306   0013C6  2E43               	decfsz	(??_program_2+1)^0,f,c
  1307   0013C8  D7FA               	bra	u1117
  1308   0013CA  D000               	nop2	
  1309                           
  1310                           ;application.c: 93:     led_turn_toggle(&led4);
  1311   0013CC  0E33               	movlw	low _led4
  1312   0013CE  6E3C               	movwf	led_turn_toggle@led^0,c
  1313   0013D0  EC96  F00D         	call	_led_turn_toggle	;wreg free
  1314                           
  1315                           ;application.c: 94:     led_turn_toggle(&led5);
  1316   0013D4  0E32               	movlw	low _led5
  1317   0013D6  6E3C               	movwf	led_turn_toggle@led^0,c
  1318   0013D8  EC96  F00D         	call	_led_turn_toggle	;wreg free
  1319   0013DC                     
  1320                           ;application.c: 95:     _delay((unsigned long)((250)*((uint64)3200000/4000.0)));
  1321   0013DC  0E02               	movlw	2
  1322   0013DE  6E43               	movwf	(??_program_2+1)^0,c
  1323   0013E0  0E04               	movlw	4
  1324   0013E2  6E42               	movwf	??_program_2^0,c
  1325   0013E4  0EBA               	movlw	186
  1326   0013E6                     u1127:
  1327   0013E6  2EE8               	decfsz	wreg,f,c
  1328   0013E8  D7FE               	bra	u1127
  1329   0013EA  2E42               	decfsz	??_program_2^0,f,c
  1330   0013EC  D7FC               	bra	u1127
  1331   0013EE  2E43               	decfsz	(??_program_2+1)^0,f,c
  1332   0013F0  D7FA               	bra	u1127
  1333   0013F2  D000               	nop2	
  1334   0013F4                     
  1335                           ;application.c: 96:     led_turn_toggle(&led5);
  1336   0013F4  0E32               	movlw	low _led5
  1337   0013F6  6E3C               	movwf	led_turn_toggle@led^0,c
  1338   0013F8  EC96  F00D         	call	_led_turn_toggle	;wreg free
  1339   0013FC                     
  1340                           ;application.c: 97:     led_turn_toggle(&led6);
  1341   0013FC  0E31               	movlw	low _led6
  1342   0013FE  6E3C               	movwf	led_turn_toggle@led^0,c
  1343   001400  EC96  F00D         	call	_led_turn_toggle	;wreg free
  1344   001404                     
  1345                           ;application.c: 98:     _delay((unsigned long)((250)*((uint64)3200000/4000.0)));
  1346   001404  0E02               	movlw	2
  1347   001406  6E43               	movwf	(??_program_2+1)^0,c
  1348   001408  0E04               	movlw	4
  1349   00140A  6E42               	movwf	??_program_2^0,c
  1350   00140C  0EBA               	movlw	186
  1351   00140E                     u1137:
  1352   00140E  2EE8               	decfsz	wreg,f,c
  1353   001410  D7FE               	bra	u1137
  1354   001412  2E42               	decfsz	??_program_2^0,f,c
  1355   001414  D7FC               	bra	u1137
  1356   001416  2E43               	decfsz	(??_program_2+1)^0,f,c
  1357   001418  D7FA               	bra	u1137
  1358   00141A  D000               	nop2	
  1359                           
  1360                           ;application.c: 99:     led_turn_toggle(&led6);
  1361   00141C  0E31               	movlw	low _led6
  1362   00141E  6E3C               	movwf	led_turn_toggle@led^0,c
  1363   001420  EC96  F00D         	call	_led_turn_toggle	;wreg free
  1364                           
  1365                           ;application.c: 100:     led_turn_toggle(&led7);
  1366   001424  0E30               	movlw	low _led7
  1367   001426  6E3C               	movwf	led_turn_toggle@led^0,c
  1368   001428  EC96  F00D         	call	_led_turn_toggle	;wreg free
  1369   00142C                     
  1370                           ;application.c: 101:     _delay((unsigned long)((250)*((uint64)3200000/4000.0)));
  1371   00142C  0E02               	movlw	2
  1372   00142E  6E43               	movwf	(??_program_2+1)^0,c
  1373   001430  0E04               	movlw	4
  1374   001432  6E42               	movwf	??_program_2^0,c
  1375   001434  0EBA               	movlw	186
  1376   001436                     u1147:
  1377   001436  2EE8               	decfsz	wreg,f,c
  1378   001438  D7FE               	bra	u1147
  1379   00143A  2E42               	decfsz	??_program_2^0,f,c
  1380   00143C  D7FC               	bra	u1147
  1381   00143E  2E43               	decfsz	(??_program_2+1)^0,f,c
  1382   001440  D7FA               	bra	u1147
  1383   001442  D000               	nop2	
  1384   001444                     
  1385                           ;application.c: 102:     led_turn_toggle(&led7);
  1386   001444  0E30               	movlw	low _led7
  1387   001446  6E3C               	movwf	led_turn_toggle@led^0,c
  1388   001448  EC96  F00D         	call	_led_turn_toggle	;wreg free
  1389   00144C                     
  1390                           ;application.c: 103:     led_turn_toggle(&led8);
  1391   00144C  0E2F               	movlw	low _led8
  1392   00144E  6E3C               	movwf	led_turn_toggle@led^0,c
  1393   001450  EC96  F00D         	call	_led_turn_toggle	;wreg free
  1394   001454                     
  1395                           ;application.c: 104:     _delay((unsigned long)((250)*((uint64)3200000/4000.0)));
  1396   001454  0E02               	movlw	2
  1397   001456  6E43               	movwf	(??_program_2+1)^0,c
  1398   001458  0E04               	movlw	4
  1399   00145A  6E42               	movwf	??_program_2^0,c
  1400   00145C  0EBA               	movlw	186
  1401   00145E                     u1157:
  1402   00145E  2EE8               	decfsz	wreg,f,c
  1403   001460  D7FE               	bra	u1157
  1404   001462  2E42               	decfsz	??_program_2^0,f,c
  1405   001464  D7FC               	bra	u1157
  1406   001466  2E43               	decfsz	(??_program_2+1)^0,f,c
  1407   001468  D7FA               	bra	u1157
  1408   00146A  D000               	nop2	
  1409   00146C  0012               	return		;funcret
  1410   00146E                     __end_of_program_2:
  1411                           	callstack 0
  1412                           
  1413 ;; *************** function _led_turn_on *****************
  1414 ;; Defined at:
  1415 ;;		line 37 in file "ECU_Layer/led/led.c"
  1416 ;; Parameters:    Size  Location     Type
  1417 ;;  led             1    8[COMRAM] PTR const struct .
  1418 ;;		 -> led1(1), led2(1), led3(1), led4(1), 
  1419 ;;		 -> led5(1), led6(1), led7(1), led8(1), 
  1420 ;; Auto vars:     Size  Location     Type
  1421 ;;  pin_obj         1   10[COMRAM] struct .
  1422 ;;  ret             1    0        unsigned char 
  1423 ;; Return value:  Size  Location     Type
  1424 ;;                  1    wreg      unsigned char 
  1425 ;; Registers used:
  1426 ;;		wreg, fsr2l, fsr2h, status,2, status,0, prodl, prodh, cstack
  1427 ;; Tracked objects:
  1428 ;;		On entry : 0/0
  1429 ;;		On exit  : 0/0
  1430 ;;		Unchanged: 0/0
  1431 ;; Data sizes:     COMRAM   BANK0   BANK1   BANK2   BANK3   BANK4   BANK5   BANK6   BANK7   BANK8   BANK9  BANK10  BANK1
      +1  BANK12  BANK13  BANK14  BANK15
  1432 ;;      Params:         1       0       0       0       0       0       0       0       0       0       0       0       
      +0       0       0       0       0
  1433 ;;      Locals:         1       0       0       0       0       0       0       0       0       0       0       0       
      +0       0       0       0       0
  1434 ;;      Temps:          1       0       0       0       0       0       0       0       0       0       0       0       
      +0       0       0       0       0
  1435 ;;      Totals:         3       0       0       0       0       0       0       0       0       0       0       0       
      +0       0       0       0       0
  1436 ;;Total ram usage:        3 bytes
  1437 ;; Hardware stack levels used: 1
  1438 ;; Hardware stack levels required when called: 1
  1439 ;; This function calls:
  1440 ;;		_gpio_pin_write_logic
  1441 ;; This function is called by:
  1442 ;;		_program_2
  1443 ;;		_program_3
  1444 ;;		_program_4
  1445 ;; This function uses a non-reentrant model
  1446 ;;
  1447                           
  1448                           	psect	text4
  1449   001A58                     __ptext4:
  1450                           	callstack 0
  1451   001A58                     _led_turn_on:
  1452                           	callstack 28
  1453   001A58                     
  1454                           ;ECU_Layer/led/led.c: 39:     if(((void*)0) == led){
  1455   001A58  503F               	movf	led_turn_on@led^0,w,c
  1456   001A5A  A4D8               	btfss	status,2,c
  1457   001A5C  EF32  F00D         	goto	u711
  1458   001A60  EF34  F00D         	goto	u710
  1459   001A64                     u711:
  1460   001A64  EF36  F00D         	goto	l16
  1461   001A68                     u710:
  1462   001A68                     
  1463                           ;ECU_Layer/led/led.c: 41:     }else{
  1464   001A68  EF60  F00D         	goto	l20
  1465   001A6C                     l16:
  1466                           
  1467                           ;ECU_Layer/led/led.c: 42:       pin_config_t pin_obj ={
  1468   001A6C  C049  F041         	movff	led_turn_on@F2579,led_turn_on@pin_obj
  1469   001A70  503F               	movf	led_turn_on@led^0,w,c
  1470   001A72  6ED9               	movwf	fsr2l,c
  1471   001A74  6ADA               	clrf	fsr2h,c
  1472   001A76  50DF               	movf	223,w,c
  1473   001A78  0B0F               	andlw	15
  1474   001A7A  6E40               	movwf	??_led_turn_on^0,c
  1475   001A7C  5041               	movf	led_turn_on@pin_obj^0,w,c
  1476   001A7E  1840               	xorwf	??_led_turn_on^0,w,c
  1477   001A80  0BF8               	andlw	-8
  1478   001A82  1840               	xorwf	??_led_turn_on^0,w,c
  1479   001A84  6E41               	movwf	led_turn_on@pin_obj^0,c
  1480   001A86  503F               	movf	led_turn_on@led^0,w,c
  1481   001A88  6ED9               	movwf	fsr2l,c
  1482   001A8A  6ADA               	clrf	fsr2h,c
  1483   001A8C  38DF               	swapf	223,w,c
  1484   001A8E  0B07               	andlw	7
  1485   001A90  6E40               	movwf	??_led_turn_on^0,c
  1486   001A92  4640               	rlncf	??_led_turn_on^0,f,c
  1487   001A94  4640               	rlncf	??_led_turn_on^0,f,c
  1488   001A96  4640               	rlncf	??_led_turn_on^0,f,c
  1489   001A98  5041               	movf	led_turn_on@pin_obj^0,w,c
  1490   001A9A  1840               	xorwf	??_led_turn_on^0,w,c
  1491   001A9C  0BC7               	andlw	-57
  1492   001A9E  1840               	xorwf	??_led_turn_on^0,w,c
  1493   001AA0  6E41               	movwf	led_turn_on@pin_obj^0,c
  1494   001AA2  9C41               	bcf	led_turn_on@pin_obj^0,6,c
  1495   001AA4  503F               	movf	led_turn_on@led^0,w,c
  1496   001AA6  6ED9               	movwf	fsr2l,c
  1497   001AA8  6ADA               	clrf	fsr2h,c
  1498   001AAA  AEDF               	btfss	indf2,7,c
  1499   001AAC  D002               	bra	u725
  1500   001AAE  8E41               	bsf	led_turn_on@pin_obj^0,7,c
  1501   001AB0  D001               	bra	u727
  1502   001AB2                     u725:
  1503   001AB2  9E41               	bcf	led_turn_on@pin_obj^0,7,c
  1504   001AB4                     u727:
  1505   001AB4                     
  1506                           ;ECU_Layer/led/led.c: 48:       gpio_pin_write_logic(&pin_obj,GPIO_HIGH);
  1507   001AB4  0E41               	movlw	low led_turn_on@pin_obj
  1508   001AB6  6E37               	movwf	gpio_pin_write_logic@_pin_config^0,c
  1509   001AB8  0E01               	movlw	1
  1510   001ABA  6E38               	movwf	gpio_pin_write_logic@logic^0,c
  1511   001ABC  ECC0  F00A         	call	_gpio_pin_write_logic	;wreg free
  1512   001AC0                     l20:
  1513   001AC0  0012               	return		;funcret
  1514   001AC2                     __end_of_led_turn_on:
  1515                           	callstack 0
  1516                           
  1517 ;; *************** function _program_1 *****************
  1518 ;; Defined at:
  1519 ;;		line 51 in file "application.c"
  1520 ;; Parameters:    Size  Location     Type
  1521 ;;		None
  1522 ;; Auto vars:     Size  Location     Type
  1523 ;;  i               1   13[COMRAM] unsigned char 
  1524 ;; Return value:  Size  Location     Type
  1525 ;;                  1    wreg      void 
  1526 ;; Registers used:
  1527 ;;		wreg, fsr2l, fsr2h, status,2, status,0, prodl, prodh, cstack
  1528 ;; Tracked objects:
  1529 ;;		On entry : 0/0
  1530 ;;		On exit  : 0/0
  1531 ;;		Unchanged: 0/0
  1532 ;; Data sizes:     COMRAM   BANK0   BANK1   BANK2   BANK3   BANK4   BANK5   BANK6   BANK7   BANK8   BANK9  BANK10  BANK1
      +1  BANK12  BANK13  BANK14  BANK15
  1533 ;;      Params:         0       0       0       0       0       0       0       0       0       0       0       0       
      +0       0       0       0       0
  1534 ;;      Locals:         1       0       0       0       0       0       0       0       0       0       0       0       
      +0       0       0       0       0
  1535 ;;      Temps:          2       0       0       0       0       0       0       0       0       0       0       0       
      +0       0       0       0       0
  1536 ;;      Totals:         3       0       0       0       0       0       0       0       0       0       0       0       
      +0       0       0       0       0
  1537 ;;Total ram usage:        3 bytes
  1538 ;; Hardware stack levels used: 1
  1539 ;; Hardware stack levels required when called: 2
  1540 ;; This function calls:
  1541 ;;		_led_turn_off
  1542 ;;		_led_turn_toggle
  1543 ;; This function is called by:
  1544 ;;		_main
  1545 ;; This function uses a non-reentrant model
  1546 ;;
  1547                           
  1548                           	psect	text5
  1549   00175C                     __ptext5:
  1550                           	callstack 0
  1551   00175C                     _program_1:
  1552                           	callstack 28
  1553   00175C                     
  1554                           ;application.c: 52:     led_turn_off(&led8);
  1555   00175C  0E2F               	movlw	low _led8
  1556   00175E  6E3F               	movwf	led_turn_off@led^0,c
  1557   001760  EC61  F00D         	call	_led_turn_off	;wreg free
  1558                           
  1559                           ;application.c: 53:     led_turn_off(&led7);
  1560   001764  0E30               	movlw	low _led7
  1561   001766  6E3F               	movwf	led_turn_off@led^0,c
  1562   001768  EC61  F00D         	call	_led_turn_off	;wreg free
  1563                           
  1564                           ;application.c: 54:     led_turn_off(&led6);
  1565   00176C  0E31               	movlw	low _led6
  1566   00176E  6E3F               	movwf	led_turn_off@led^0,c
  1567   001770  EC61  F00D         	call	_led_turn_off	;wreg free
  1568                           
  1569                           ;application.c: 55:     led_turn_off(&led5);
  1570   001774  0E32               	movlw	low _led5
  1571   001776  6E3F               	movwf	led_turn_off@led^0,c
  1572   001778  EC61  F00D         	call	_led_turn_off	;wreg free
  1573                           
  1574                           ;application.c: 56:     led_turn_off(&led4);
  1575   00177C  0E33               	movlw	low _led4
  1576   00177E  6E3F               	movwf	led_turn_off@led^0,c
  1577   001780  EC61  F00D         	call	_led_turn_off	;wreg free
  1578                           
  1579                           ;application.c: 57:     led_turn_off(&led3);
  1580   001784  0E34               	movlw	low _led3
  1581   001786  6E3F               	movwf	led_turn_off@led^0,c
  1582   001788  EC61  F00D         	call	_led_turn_off	;wreg free
  1583                           
  1584                           ;application.c: 58:     led_turn_off(&led2);
  1585   00178C  0E35               	movlw	low _led2
  1586   00178E  6E3F               	movwf	led_turn_off@led^0,c
  1587   001790  EC61  F00D         	call	_led_turn_off	;wreg free
  1588                           
  1589                           ;application.c: 59:     led_turn_off(&led1);
  1590   001794  0E36               	movlw	low _led1
  1591   001796  6E3F               	movwf	led_turn_off@led^0,c
  1592   001798  EC61  F00D         	call	_led_turn_off	;wreg free
  1593   00179C                     
  1594                           ;application.c: 60:     _delay((unsigned long)((200)*((uint64)3200000/4000.0)));
  1595   00179C  0ED0               	movlw	208
  1596   00179E  6E42               	movwf	??_program_1^0,c
  1597   0017A0  0ECA               	movlw	202
  1598   0017A2                     u1167:
  1599   0017A2  2EE8               	decfsz	wreg,f,c
  1600   0017A4  D7FE               	bra	u1167
  1601   0017A6  2E42               	decfsz	??_program_1^0,f,c
  1602   0017A8  D7FC               	bra	u1167
  1603   0017AA                     
  1604                           ;application.c: 61:      for(uint8 i=0;i<10;i++){
  1605   0017AA  0E00               	movlw	0
  1606   0017AC  6E44               	movwf	program_1@i^0,c
  1607   0017AE                     l1534:
  1608                           
  1609                           ;application.c: 62:     led_turn_toggle(&led1);
  1610   0017AE  0E36               	movlw	low _led1
  1611   0017B0  6E3C               	movwf	led_turn_toggle@led^0,c
  1612   0017B2  EC96  F00D         	call	_led_turn_toggle	;wreg free
  1613                           
  1614                           ;application.c: 63:     led_turn_toggle(&led2);
  1615   0017B6  0E35               	movlw	low _led2
  1616   0017B8  6E3C               	movwf	led_turn_toggle@led^0,c
  1617   0017BA  EC96  F00D         	call	_led_turn_toggle	;wreg free
  1618                           
  1619                           ;application.c: 64:     led_turn_toggle(&led3);
  1620   0017BE  0E34               	movlw	low _led3
  1621   0017C0  6E3C               	movwf	led_turn_toggle@led^0,c
  1622   0017C2  EC96  F00D         	call	_led_turn_toggle	;wreg free
  1623                           
  1624                           ;application.c: 65:     led_turn_toggle(&led4);
  1625   0017C6  0E33               	movlw	low _led4
  1626   0017C8  6E3C               	movwf	led_turn_toggle@led^0,c
  1627   0017CA  EC96  F00D         	call	_led_turn_toggle	;wreg free
  1628                           
  1629                           ;application.c: 66:     led_turn_toggle(&led5);
  1630   0017CE  0E32               	movlw	low _led5
  1631   0017D0  6E3C               	movwf	led_turn_toggle@led^0,c
  1632   0017D2  EC96  F00D         	call	_led_turn_toggle	;wreg free
  1633                           
  1634                           ;application.c: 67:     led_turn_toggle(&led6);
  1635   0017D6  0E31               	movlw	low _led6
  1636   0017D8  6E3C               	movwf	led_turn_toggle@led^0,c
  1637   0017DA  EC96  F00D         	call	_led_turn_toggle	;wreg free
  1638                           
  1639                           ;application.c: 68:     led_turn_toggle(&led7);
  1640   0017DE  0E30               	movlw	low _led7
  1641   0017E0  6E3C               	movwf	led_turn_toggle@led^0,c
  1642   0017E2  EC96  F00D         	call	_led_turn_toggle	;wreg free
  1643                           
  1644                           ;application.c: 69:     led_turn_toggle(&led8);
  1645   0017E6  0E2F               	movlw	low _led8
  1646   0017E8  6E3C               	movwf	led_turn_toggle@led^0,c
  1647   0017EA  EC96  F00D         	call	_led_turn_toggle	;wreg free
  1648   0017EE                     
  1649                           ;application.c: 70:    _delay((unsigned long)((500)*((uint64)3200000/4000.0)));
  1650   0017EE  0E03               	movlw	3
  1651   0017F0  6E43               	movwf	(??_program_1+1)^0,c
  1652   0017F2  0E08               	movlw	8
  1653   0017F4  6E42               	movwf	??_program_1^0,c
  1654   0017F6  0E77               	movlw	119
  1655   0017F8                     u1177:
  1656   0017F8  2EE8               	decfsz	wreg,f,c
  1657   0017FA  D7FE               	bra	u1177
  1658   0017FC  2E42               	decfsz	??_program_1^0,f,c
  1659   0017FE  D7FC               	bra	u1177
  1660   001800  2E43               	decfsz	(??_program_1+1)^0,f,c
  1661   001802  D7FA               	bra	u1177
  1662   001804  0000               	nop	
  1663   001806                     
  1664                           ;application.c: 71:  }
  1665   001806  2A44               	incf	program_1@i^0,f,c
  1666   001808  0E09               	movlw	9
  1667   00180A  6444               	cpfsgt	program_1@i^0,c
  1668   00180C  EF0A  F00C         	goto	u821
  1669   001810  EF0C  F00C         	goto	u820
  1670   001814                     u821:
  1671   001814  EFD7  F00B         	goto	l1534
  1672   001818                     u820:
  1673   001818  0012               	return		;funcret
  1674   00181A                     __end_of_program_1:
  1675                           	callstack 0
  1676                           
  1677 ;; *************** function _led_turn_toggle *****************
  1678 ;; Defined at:
  1679 ;;		line 83 in file "ECU_Layer/led/led.c"
  1680 ;; Parameters:    Size  Location     Type
  1681 ;;  led             1    5[COMRAM] PTR const struct .
  1682 ;;		 -> led1(1), led2(1), led3(1), led4(1), 
  1683 ;;		 -> led5(1), led6(1), led7(1), led8(1), 
  1684 ;; Auto vars:     Size  Location     Type
  1685 ;;  pin_obj         1    7[COMRAM] struct .
  1686 ;;  ret             1    0        unsigned char 
  1687 ;; Return value:  Size  Location     Type
  1688 ;;                  1    wreg      unsigned char 
  1689 ;; Registers used:
  1690 ;;		wreg, fsr2l, fsr2h, status,2, status,0, prodl, prodh, cstack
  1691 ;; Tracked objects:
  1692 ;;		On entry : 0/0
  1693 ;;		On exit  : 0/0
  1694 ;;		Unchanged: 0/0
  1695 ;; Data sizes:     COMRAM   BANK0   BANK1   BANK2   BANK3   BANK4   BANK5   BANK6   BANK7   BANK8   BANK9  BANK10  BANK1
      +1  BANK12  BANK13  BANK14  BANK15
  1696 ;;      Params:         1       0       0       0       0       0       0       0       0       0       0       0       
      +0       0       0       0       0
  1697 ;;      Locals:         1       0       0       0       0       0       0       0       0       0       0       0       
      +0       0       0       0       0
  1698 ;;      Temps:          1       0       0       0       0       0       0       0       0       0       0       0       
      +0       0       0       0       0
  1699 ;;      Totals:         3       0       0       0       0       0       0       0       0       0       0       0       
      +0       0       0       0       0
  1700 ;;Total ram usage:        3 bytes
  1701 ;; Hardware stack levels used: 1
  1702 ;; Hardware stack levels required when called: 1
  1703 ;; This function calls:
  1704 ;;		_gpio_pin_toggle_logic
  1705 ;; This function is called by:
  1706 ;;		_program_1
  1707 ;;		_program_2
  1708 ;;		_program_3
  1709 ;; This function uses a non-reentrant model
  1710 ;;
  1711                           
  1712                           	psect	text6
  1713   001B2C                     __ptext6:
  1714                           	callstack 0
  1715   001B2C                     _led_turn_toggle:
  1716                           	callstack 28
  1717   001B2C                     
  1718                           ;ECU_Layer/led/led.c: 85:     if(((void*)0) == led){
  1719   001B2C  503C               	movf	led_turn_toggle@led^0,w,c
  1720   001B2E  A4D8               	btfss	status,2,c
  1721   001B30  EF9C  F00D         	goto	u751
  1722   001B34  EF9E  F00D         	goto	u750
  1723   001B38                     u751:
  1724   001B38  EFA0  F00D         	goto	l30
  1725   001B3C                     u750:
  1726   001B3C                     
  1727                           ;ECU_Layer/led/led.c: 87:     }else{
  1728   001B3C  EFC8  F00D         	goto	l34
  1729   001B40                     l30:
  1730                           
  1731                           ;ECU_Layer/led/led.c: 88:         pin_config_t pin_obj ={
  1732   001B40  C047  F03E         	movff	led_turn_toggle@F2589,led_turn_toggle@pin_obj
  1733   001B44  503C               	movf	led_turn_toggle@led^0,w,c
  1734   001B46  6ED9               	movwf	fsr2l,c
  1735   001B48  6ADA               	clrf	fsr2h,c
  1736   001B4A  50DF               	movf	223,w,c
  1737   001B4C  0B0F               	andlw	15
  1738   001B4E  6E3D               	movwf	??_led_turn_toggle^0,c
  1739   001B50  503E               	movf	led_turn_toggle@pin_obj^0,w,c
  1740   001B52  183D               	xorwf	??_led_turn_toggle^0,w,c
  1741   001B54  0BF8               	andlw	-8
  1742   001B56  183D               	xorwf	??_led_turn_toggle^0,w,c
  1743   001B58  6E3E               	movwf	led_turn_toggle@pin_obj^0,c
  1744   001B5A  503C               	movf	led_turn_toggle@led^0,w,c
  1745   001B5C  6ED9               	movwf	fsr2l,c
  1746   001B5E  6ADA               	clrf	fsr2h,c
  1747   001B60  38DF               	swapf	223,w,c
  1748   001B62  0B07               	andlw	7
  1749   001B64  6E3D               	movwf	??_led_turn_toggle^0,c
  1750   001B66  463D               	rlncf	??_led_turn_toggle^0,f,c
  1751   001B68  463D               	rlncf	??_led_turn_toggle^0,f,c
  1752   001B6A  463D               	rlncf	??_led_turn_toggle^0,f,c
  1753   001B6C  503E               	movf	led_turn_toggle@pin_obj^0,w,c
  1754   001B6E  183D               	xorwf	??_led_turn_toggle^0,w,c
  1755   001B70  0BC7               	andlw	-57
  1756   001B72  183D               	xorwf	??_led_turn_toggle^0,w,c
  1757   001B74  6E3E               	movwf	led_turn_toggle@pin_obj^0,c
  1758   001B76  9C3E               	bcf	led_turn_toggle@pin_obj^0,6,c
  1759   001B78  503C               	movf	led_turn_toggle@led^0,w,c
  1760   001B7A  6ED9               	movwf	fsr2l,c
  1761   001B7C  6ADA               	clrf	fsr2h,c
  1762   001B7E  AEDF               	btfss	indf2,7,c
  1763   001B80  D002               	bra	u765
  1764   001B82  8E3E               	bsf	led_turn_toggle@pin_obj^0,7,c
  1765   001B84  D001               	bra	u767
  1766   001B86                     u765:
  1767   001B86  9E3E               	bcf	led_turn_toggle@pin_obj^0,7,c
  1768   001B88                     u767:
  1769   001B88                     
  1770                           ;ECU_Layer/led/led.c: 94:       gpio_pin_toggle_logic(&pin_obj);
  1771   001B88  0E3E               	movlw	low led_turn_toggle@pin_obj
  1772   001B8A  6E37               	movwf	gpio_pin_toggle_logic@_pin_config^0,c
  1773   001B8C  ECB3  F00C         	call	_gpio_pin_toggle_logic	;wreg free
  1774   001B90                     l34:
  1775   001B90  0012               	return		;funcret
  1776   001B92                     __end_of_led_turn_toggle:
  1777                           	callstack 0
  1778                           
  1779 ;; *************** function _gpio_pin_toggle_logic *****************
  1780 ;; Defined at:
  1781 ;;		line 115 in file "MCAL_Layer/GPIO/hal_gpio.c"
  1782 ;; Parameters:    Size  Location     Type
  1783 ;;  _pin_config     1    0[COMRAM] PTR const struct .
  1784 ;;		 -> led_turn_toggle@pin_obj(1), 
  1785 ;; Auto vars:     Size  Location     Type
  1786 ;;  ret             1    0        unsigned char 
  1787 ;; Return value:  Size  Location     Type
  1788 ;;                  1    wreg      unsigned char 
  1789 ;; Registers used:
  1790 ;;		wreg, fsr2l, fsr2h, status,2, status,0, prodl, prodh
  1791 ;; Tracked objects:
  1792 ;;		On entry : 0/0
  1793 ;;		On exit  : 0/0
  1794 ;;		Unchanged: 0/0
  1795 ;; Data sizes:     COMRAM   BANK0   BANK1   BANK2   BANK3   BANK4   BANK5   BANK6   BANK7   BANK8   BANK9  BANK10  BANK1
      +1  BANK12  BANK13  BANK14  BANK15
  1796 ;;      Params:         1       0       0       0       0       0       0       0       0       0       0       0       
      +0       0       0       0       0
  1797 ;;      Locals:         0       0       0       0       0       0       0       0       0       0       0       0       
      +0       0       0       0       0
  1798 ;;      Temps:          4       0       0       0       0       0       0       0       0       0       0       0       
      +0       0       0       0       0
  1799 ;;      Totals:         5       0       0       0       0       0       0       0       0       0       0       0       
      +0       0       0       0       0
  1800 ;;Total ram usage:        5 bytes
  1801 ;; Hardware stack levels used: 1
  1802 ;; This function calls:
  1803 ;;		Nothing
  1804 ;; This function is called by:
  1805 ;;		_led_turn_toggle
  1806 ;; This function uses a non-reentrant model
  1807 ;;
  1808                           
  1809                           	psect	text7
  1810   001966                     __ptext7:
  1811                           	callstack 0
  1812   001966                     _gpio_pin_toggle_logic:
  1813                           	callstack 28
  1814   001966                     
  1815                           ;MCAL_Layer/GPIO/hal_gpio.c: 117:     if(((void*)0)==_pin_config || _pin_config->pin >8 
      +                          -1){
  1816   001966  5037               	movf	gpio_pin_toggle_logic@_pin_config^0,w,c
  1817   001968  B4D8               	btfsc	status,2,c
  1818   00196A  EFB9  F00C         	goto	u661
  1819   00196E  EFBB  F00C         	goto	u660
  1820   001972                     u661:
  1821   001972  EFCB  F00C         	goto	l1438
  1822   001976                     u660:
  1823   001976  5037               	movf	gpio_pin_toggle_logic@_pin_config^0,w,c
  1824   001978  6ED9               	movwf	fsr2l,c
  1825   00197A  6ADA               	clrf	fsr2h,c
  1826   00197C  30DF               	rrcf	223,w,c
  1827   00197E  32E8               	rrcf	wreg,f,c
  1828   001980  32E8               	rrcf	wreg,f,c
  1829   001982  0B07               	andlw	7
  1830   001984  6E38               	movwf	??_gpio_pin_toggle_logic^0,c
  1831   001986  0E07               	movlw	7
  1832   001988  6438               	cpfsgt	??_gpio_pin_toggle_logic^0,c
  1833   00198A  EFC9  F00C         	goto	u671
  1834   00198E  EFCB  F00C         	goto	u670
  1835   001992                     u671:
  1836   001992  EFCD  F00C         	goto	l1440
  1837   001996                     u670:
  1838   001996                     l1438:
  1839                           
  1840                           ;MCAL_Layer/GPIO/hal_gpio.c: 119:     }else{
  1841   001996  EFF3  F00C         	goto	l115
  1842   00199A                     l1440:
  1843                           
  1844                           ;MCAL_Layer/GPIO/hal_gpio.c: 120:         (*port_registers[_pin_config->port] ^= ((uint8
      +                          )1 << _pin_config->pin));
  1845   00199A  5037               	movf	gpio_pin_toggle_logic@_pin_config^0,w,c
  1846   00199C  6ED9               	movwf	fsr2l,c
  1847   00199E  6ADA               	clrf	fsr2h,c
  1848   0019A0  30DF               	rrcf	223,w,c
  1849   0019A2  32E8               	rrcf	wreg,f,c
  1850   0019A4  32E8               	rrcf	wreg,f,c
  1851   0019A6  0B07               	andlw	7
  1852   0019A8  6E38               	movwf	??_gpio_pin_toggle_logic^0,c
  1853   0019AA  0E01               	movlw	1
  1854   0019AC  6E39               	movwf	(??_gpio_pin_toggle_logic+1)^0,c
  1855   0019AE  2A38               	incf	??_gpio_pin_toggle_logic^0,f,c
  1856   0019B0  EFDC  F00C         	goto	u684
  1857   0019B4                     u685:
  1858   0019B4  90D8               	bcf	status,0,c
  1859   0019B6  3639               	rlcf	(??_gpio_pin_toggle_logic+1)^0,f,c
  1860   0019B8                     u684:
  1861   0019B8  2E38               	decfsz	??_gpio_pin_toggle_logic^0,f,c
  1862   0019BA  EFDA  F00C         	goto	u685
  1863   0019BE  5037               	movf	gpio_pin_toggle_logic@_pin_config^0,w,c
  1864   0019C0  6ED9               	movwf	fsr2l,c
  1865   0019C2  6ADA               	clrf	fsr2h,c
  1866   0019C4  50DF               	movf	223,w,c
  1867   0019C6  0B07               	andlw	7
  1868   0019C8  0D02               	mullw	2
  1869   0019CA  50F3               	movf	243,w,c
  1870   0019CC  0F01               	addlw	low _port_registers
  1871   0019CE  6ED9               	movwf	fsr2l,c
  1872   0019D0  6ADA               	clrf	fsr2h,c
  1873   0019D2  CFDE F03A          	movff	postinc2,??_gpio_pin_toggle_logic+2
  1874   0019D6  CFDD F03B          	movff	postdec2,??_gpio_pin_toggle_logic+3
  1875   0019DA  C03A  FFD9         	movff	??_gpio_pin_toggle_logic+2,fsr2l
  1876   0019DE  C03B  FFDA         	movff	??_gpio_pin_toggle_logic+3,fsr2h
  1877   0019E2  5039               	movf	(??_gpio_pin_toggle_logic+1)^0,w,c
  1878   0019E4  1ADF               	xorwf	indf2,f,c
  1879   0019E6                     l115:
  1880   0019E6  0012               	return		;funcret
  1881   0019E8                     __end_of_gpio_pin_toggle_logic:
  1882                           	callstack 0
  1883                           
  1884 ;; *************** function _led_turn_off *****************
  1885 ;; Defined at:
  1886 ;;		line 60 in file "ECU_Layer/led/led.c"
  1887 ;; Parameters:    Size  Location     Type
  1888 ;;  led             1    8[COMRAM] PTR const struct .
  1889 ;;		 -> led1(1), led2(1), led3(1), led4(1), 
  1890 ;;		 -> led5(1), led6(1), led7(1), led8(1), 
  1891 ;; Auto vars:     Size  Location     Type
  1892 ;;  pin_obj         1   10[COMRAM] struct .
  1893 ;;  ret             1    0        unsigned char 
  1894 ;; Return value:  Size  Location     Type
  1895 ;;                  1    wreg      unsigned char 
  1896 ;; Registers used:
  1897 ;;		wreg, fsr2l, fsr2h, status,2, status,0, prodl, prodh, cstack
  1898 ;; Tracked objects:
  1899 ;;		On entry : 0/0
  1900 ;;		On exit  : 0/0
  1901 ;;		Unchanged: 0/0
  1902 ;; Data sizes:     COMRAM   BANK0   BANK1   BANK2   BANK3   BANK4   BANK5   BANK6   BANK7   BANK8   BANK9  BANK10  BANK1
      +1  BANK12  BANK13  BANK14  BANK15
  1903 ;;      Params:         1       0       0       0       0       0       0       0       0       0       0       0       
      +0       0       0       0       0
  1904 ;;      Locals:         1       0       0       0       0       0       0       0       0       0       0       0       
      +0       0       0       0       0
  1905 ;;      Temps:          1       0       0       0       0       0       0       0       0       0       0       0       
      +0       0       0       0       0
  1906 ;;      Totals:         3       0       0       0       0       0       0       0       0       0       0       0       
      +0       0       0       0       0
  1907 ;;Total ram usage:        3 bytes
  1908 ;; Hardware stack levels used: 1
  1909 ;; Hardware stack levels required when called: 1
  1910 ;; This function calls:
  1911 ;;		_gpio_pin_write_logic
  1912 ;; This function is called by:
  1913 ;;		_program_1
  1914 ;;		_program_2
  1915 ;;		_program_3
  1916 ;;		_program_4
  1917 ;; This function uses a non-reentrant model
  1918 ;;
  1919                           
  1920                           	psect	text8
  1921   001AC2                     __ptext8:
  1922                           	callstack 0
  1923   001AC2                     _led_turn_off:
  1924                           	callstack 28
  1925   001AC2                     
  1926                           ;ECU_Layer/led/led.c: 62:     if(((void*)0) == led){
  1927   001AC2  503F               	movf	led_turn_off@led^0,w,c
  1928   001AC4  A4D8               	btfss	status,2,c
  1929   001AC6  EF67  F00D         	goto	u731
  1930   001ACA  EF69  F00D         	goto	u730
  1931   001ACE                     u731:
  1932   001ACE  EF6B  F00D         	goto	l23
  1933   001AD2                     u730:
  1934   001AD2                     
  1935                           ;ECU_Layer/led/led.c: 64:     }else{
  1936   001AD2  EF95  F00D         	goto	l27
  1937   001AD6                     l23:
  1938                           
  1939                           ;ECU_Layer/led/led.c: 65:         pin_config_t pin_obj ={
  1940   001AD6  C048  F041         	movff	led_turn_off@F2584,led_turn_off@pin_obj
  1941   001ADA  503F               	movf	led_turn_off@led^0,w,c
  1942   001ADC  6ED9               	movwf	fsr2l,c
  1943   001ADE  6ADA               	clrf	fsr2h,c
  1944   001AE0  50DF               	movf	223,w,c
  1945   001AE2  0B0F               	andlw	15
  1946   001AE4  6E40               	movwf	??_led_turn_off^0,c
  1947   001AE6  5041               	movf	led_turn_off@pin_obj^0,w,c
  1948   001AE8  1840               	xorwf	??_led_turn_off^0,w,c
  1949   001AEA  0BF8               	andlw	-8
  1950   001AEC  1840               	xorwf	??_led_turn_off^0,w,c
  1951   001AEE  6E41               	movwf	led_turn_off@pin_obj^0,c
  1952   001AF0  503F               	movf	led_turn_off@led^0,w,c
  1953   001AF2  6ED9               	movwf	fsr2l,c
  1954   001AF4  6ADA               	clrf	fsr2h,c
  1955   001AF6  38DF               	swapf	223,w,c
  1956   001AF8  0B07               	andlw	7
  1957   001AFA  6E40               	movwf	??_led_turn_off^0,c
  1958   001AFC  4640               	rlncf	??_led_turn_off^0,f,c
  1959   001AFE  4640               	rlncf	??_led_turn_off^0,f,c
  1960   001B00  4640               	rlncf	??_led_turn_off^0,f,c
  1961   001B02  5041               	movf	led_turn_off@pin_obj^0,w,c
  1962   001B04  1840               	xorwf	??_led_turn_off^0,w,c
  1963   001B06  0BC7               	andlw	-57
  1964   001B08  1840               	xorwf	??_led_turn_off^0,w,c
  1965   001B0A  6E41               	movwf	led_turn_off@pin_obj^0,c
  1966   001B0C  9C41               	bcf	led_turn_off@pin_obj^0,6,c
  1967   001B0E  503F               	movf	led_turn_off@led^0,w,c
  1968   001B10  6ED9               	movwf	fsr2l,c
  1969   001B12  6ADA               	clrf	fsr2h,c
  1970   001B14  AEDF               	btfss	indf2,7,c
  1971   001B16  D002               	bra	u745
  1972   001B18  8E41               	bsf	led_turn_off@pin_obj^0,7,c
  1973   001B1A  D001               	bra	u747
  1974   001B1C                     u745:
  1975   001B1C  9E41               	bcf	led_turn_off@pin_obj^0,7,c
  1976   001B1E                     u747:
  1977   001B1E                     
  1978                           ;ECU_Layer/led/led.c: 71:       gpio_pin_write_logic(&pin_obj,GPIO_LOW);
  1979   001B1E  0E41               	movlw	low led_turn_off@pin_obj
  1980   001B20  6E37               	movwf	gpio_pin_write_logic@_pin_config^0,c
  1981   001B22  0E00               	movlw	0
  1982   001B24  6E38               	movwf	gpio_pin_write_logic@logic^0,c
  1983   001B26  ECC0  F00A         	call	_gpio_pin_write_logic	;wreg free
  1984   001B2A                     l27:
  1985   001B2A  0012               	return		;funcret
  1986   001B2C                     __end_of_led_turn_off:
  1987                           	callstack 0
  1988                           
  1989 ;; *************** function _button_read_state *****************
  1990 ;; Defined at:
  1991 ;;		line 32 in file "ECU_Layer/button/button.c"
  1992 ;; Parameters:    Size  Location     Type
  1993 ;;  btn             1    6[COMRAM] PTR const struct .
  1994 ;;		 -> btn_low(3), btn_high(3), 
  1995 ;;  btn_state       1    7[COMRAM] PTR enum E2554
  1996 ;;		 -> btn_low_status(1), btn_high_status(1), 
  1997 ;; Auto vars:     Size  Location     Type
  1998 ;;  pin_logic_st    1   10[COMRAM] enum E2494
  1999 ;;  ret             1    9[COMRAM] unsigned char 
  2000 ;; Return value:  Size  Location     Type
  2001 ;;                  1    wreg      unsigned char 
  2002 ;; Registers used:
  2003 ;;		wreg, fsr1l, fsr1h, fsr2l, fsr2h, status,2, status,0, prodl, prodh, cstack
  2004 ;; Tracked objects:
  2005 ;;		On entry : 0/0
  2006 ;;		On exit  : 0/0
  2007 ;;		Unchanged: 0/0
  2008 ;; Data sizes:     COMRAM   BANK0   BANK1   BANK2   BANK3   BANK4   BANK5   BANK6   BANK7   BANK8   BANK9  BANK10  BANK1
      +1  BANK12  BANK13  BANK14  BANK15
  2009 ;;      Params:         2       0       0       0       0       0       0       0       0       0       0       0       
      +0       0       0       0       0
  2010 ;;      Locals:         2       0       0       0       0       0       0       0       0       0       0       0       
      +0       0       0       0       0
  2011 ;;      Temps:          1       0       0       0       0       0       0       0       0       0       0       0       
      +0       0       0       0       0
  2012 ;;      Totals:         5       0       0       0       0       0       0       0       0       0       0       0       
      +0       0       0       0       0
  2013 ;;Total ram usage:        5 bytes
  2014 ;; Hardware stack levels used: 1
  2015 ;; Hardware stack levels required when called: 1
  2016 ;; This function calls:
  2017 ;;		_gpio_pin_read_logic
  2018 ;; This function is called by:
  2019 ;;		_main
  2020 ;; This function uses a non-reentrant model
  2021 ;;
  2022                           
  2023                           	psect	text9
  2024   00181A                     __ptext9:
  2025                           	callstack 0
  2026   00181A                     _button_read_state:
  2027                           	callstack 29
  2028   00181A                     
  2029                           ;ECU_Layer/button/button.c: 33:      Std_ReturnType ret = (Std_ReturnType)0x01 ;
  2030   00181A  0E01               	movlw	1
  2031   00181C  6E40               	movwf	button_read_state@ret^0,c
  2032                           
  2033                           ;ECU_Layer/button/button.c: 34:      logic_t pin_logic_status = GPIO_LOW ;
  2034   00181E  0E00               	movlw	0
  2035   001820  6E41               	movwf	button_read_state@pin_logic_status^0,c
  2036                           
  2037                           ;ECU_Layer/button/button.c: 35:     if(((void*)0) == btn || ((void*)0)==btn_state){
  2038   001822  503D               	movf	button_read_state@btn^0,w,c
  2039   001824  B4D8               	btfsc	status,2,c
  2040   001826  EF17  F00C         	goto	u841
  2041   00182A  EF19  F00C         	goto	u840
  2042   00182E                     u841:
  2043   00182E  EF21  F00C         	goto	l1650
  2044   001832                     u840:
  2045   001832  503E               	movf	button_read_state@btn_state^0,w,c
  2046   001834  A4D8               	btfss	status,2,c
  2047   001836  EF1F  F00C         	goto	u851
  2048   00183A  EF21  F00C         	goto	u850
  2049   00183E                     u851:
  2050   00183E  EF25  F00C         	goto	l1652
  2051   001842                     u850:
  2052   001842                     l1650:
  2053                           
  2054                           ;ECU_Layer/button/button.c: 36:         ret = (Std_ReturnType)0x00 ;
  2055   001842  0E00               	movlw	0
  2056   001844  6E40               	movwf	button_read_state@ret^0,c
  2057                           
  2058                           ;ECU_Layer/button/button.c: 37:     }else{
  2059   001846  EF64  F00C         	goto	l1670
  2060   00184A                     l1652:
  2061                           
  2062                           ;ECU_Layer/button/button.c: 38:         gpio_pin_read_logic(&(btn ->button_pin),&pin_log
      +                          ic_status);
  2063   00184A  C03D  F037         	movff	button_read_state@btn,gpio_pin_read_logic@_pin_config
  2064   00184E  0E41               	movlw	low button_read_state@pin_logic_status
  2065   001850  6E38               	movwf	gpio_pin_read_logic@logic^0,c
  2066   001852  EC66  F00C         	call	_gpio_pin_read_logic	;wreg free
  2067   001856                     
  2068                           ;ECU_Layer/button/button.c: 39:         if(BUTTON_ACTIVE_HIGH == btn ->button_connection
      +                          ){
  2069   001856  503D               	movf	button_read_state@btn^0,w,c
  2070   001858  6ED9               	movwf	fsr2l,c
  2071   00185A  6ADA               	clrf	fsr2h,c
  2072   00185C  0E02               	movlw	2
  2073   00185E  26D9               	addwf	fsr2l,f,c
  2074   001860  50DF               	movf	indf2,w,c
  2075   001862  A4D8               	btfss	status,2,c
  2076   001864  EF36  F00C         	goto	u861
  2077   001868  EF38  F00C         	goto	u860
  2078   00186C                     u861:
  2079   00186C  EF4D  F00C         	goto	l1662
  2080   001870                     u860:
  2081   001870                     
  2082                           ;ECU_Layer/button/button.c: 40:             if(GPIO_HIGH == pin_logic_status){
  2083   001870  0441               	decf	button_read_state@pin_logic_status^0,w,c
  2084   001872  A4D8               	btfss	status,2,c
  2085   001874  EF3E  F00C         	goto	u871
  2086   001878  EF40  F00C         	goto	u870
  2087   00187C                     u871:
  2088   00187C  EF46  F00C         	goto	l1660
  2089   001880                     u870:
  2090   001880                     l1658:
  2091                           
  2092                           ;ECU_Layer/button/button.c: 41:                 *btn_state = BUTTON_PRESSED;
  2093   001880  503E               	movf	button_read_state@btn_state^0,w,c
  2094   001882  6ED9               	movwf	fsr2l,c
  2095   001884  6ADA               	clrf	fsr2h,c
  2096   001886  6ADF               	clrf	indf2,c
  2097                           
  2098                           ;ECU_Layer/button/button.c: 42:             }else{
  2099   001888  EF64  F00C         	goto	l1670
  2100   00188C                     l1660:
  2101                           
  2102                           ;ECU_Layer/button/button.c: 43:                 *btn_state = BUTTON_RELEASED;
  2103   00188C  503E               	movf	button_read_state@btn_state^0,w,c
  2104   00188E  6ED9               	movwf	fsr2l,c
  2105   001890  6ADA               	clrf	fsr2h,c
  2106   001892  0E01               	movlw	1
  2107   001894  6EDF               	movwf	indf2,c
  2108   001896  EF64  F00C         	goto	l1670
  2109   00189A                     l1662:
  2110   00189A  503D               	movf	button_read_state@btn^0,w,c
  2111   00189C  6ED9               	movwf	fsr2l,c
  2112   00189E  6ADA               	clrf	fsr2h,c
  2113   0018A0  0E02               	movlw	2
  2114   0018A2  26D9               	addwf	fsr2l,f,c
  2115   0018A4  04DE               	decf	postinc2,w,c
  2116   0018A6  A4D8               	btfss	status,2,c
  2117   0018A8  EF58  F00C         	goto	u881
  2118   0018AC  EF5A  F00C         	goto	u880
  2119   0018B0                     u881:
  2120   0018B0  EF64  F00C         	goto	l275
  2121   0018B4                     u880:
  2122   0018B4                     
  2123                           ;ECU_Layer/button/button.c: 46:             if(GPIO_HIGH == pin_logic_status){
  2124   0018B4  0441               	decf	button_read_state@pin_logic_status^0,w,c
  2125   0018B6  A4D8               	btfss	status,2,c
  2126   0018B8  EF60  F00C         	goto	u891
  2127   0018BC  EF62  F00C         	goto	u890
  2128   0018C0                     u891:
  2129   0018C0  EF40  F00C         	goto	l1658
  2130   0018C4                     u890:
  2131   0018C4  EF46  F00C         	goto	l1660
  2132   0018C8                     l275:
  2133   0018C8                     l1670:
  2134                           
  2135                           ;ECU_Layer/button/button.c: 53:     return ret ;
  2136   0018C8  5040               	movf	button_read_state@ret^0,w,c
  2137   0018CA  0012               	return		;funcret
  2138   0018CC                     __end_of_button_read_state:
  2139                           	callstack 0
  2140                           
  2141 ;; *************** function _gpio_pin_read_logic *****************
  2142 ;; Defined at:
  2143 ;;		line 97 in file "MCAL_Layer/GPIO/hal_gpio.c"
  2144 ;; Parameters:    Size  Location     Type
  2145 ;;  _pin_config     1    0[COMRAM] PTR const struct .
  2146 ;;		 -> btn_low(3), btn_high(3), 
  2147 ;;  logic           1    1[COMRAM] PTR enum E2494
  2148 ;;		 -> button_read_state@pin_logic_status(1), 
  2149 ;; Auto vars:     Size  Location     Type
  2150 ;;  ret             1    0        unsigned char 
  2151 ;; Return value:  Size  Location     Type
  2152 ;;                  1    wreg      unsigned char 
  2153 ;; Registers used:
  2154 ;;		wreg, fsr1l, fsr1h, fsr2l, fsr2h, status,2, status,0, prodl, prodh
  2155 ;; Tracked objects:
  2156 ;;		On entry : 0/0
  2157 ;;		On exit  : 0/0
  2158 ;;		Unchanged: 0/0
  2159 ;; Data sizes:     COMRAM   BANK0   BANK1   BANK2   BANK3   BANK4   BANK5   BANK6   BANK7   BANK8   BANK9  BANK10  BANK1
      +1  BANK12  BANK13  BANK14  BANK15
  2160 ;;      Params:         2       0       0       0       0       0       0       0       0       0       0       0       
      +0       0       0       0       0
  2161 ;;      Locals:         0       0       0       0       0       0       0       0       0       0       0       0       
      +0       0       0       0       0
  2162 ;;      Temps:          4       0       0       0       0       0       0       0       0       0       0       0       
      +0       0       0       0       0
  2163 ;;      Totals:         6       0       0       0       0       0       0       0       0       0       0       0       
      +0       0       0       0       0
  2164 ;;Total ram usage:        6 bytes
  2165 ;; Hardware stack levels used: 1
  2166 ;; This function calls:
  2167 ;;		Nothing
  2168 ;; This function is called by:
  2169 ;;		_button_read_state
  2170 ;; This function uses a non-reentrant model
  2171 ;;
  2172                           
  2173                           	psect	text10
  2174   0018CC                     __ptext10:
  2175                           	callstack 0
  2176   0018CC                     _gpio_pin_read_logic:
  2177                           	callstack 29
  2178   0018CC                     
  2179                           ;MCAL_Layer/GPIO/hal_gpio.c: 99:     if(((void*)0)==_pin_config || ((void*)0)==logic || 
      +                          _pin_config->pin >8 -1 ){
  2180   0018CC  5037               	movf	gpio_pin_read_logic@_pin_config^0,w,c
  2181   0018CE  B4D8               	btfsc	status,2,c
  2182   0018D0  EF6C  F00C         	goto	u771
  2183   0018D4  EF6E  F00C         	goto	u770
  2184   0018D8                     u771:
  2185   0018D8  EF86  F00C         	goto	l1508
  2186   0018DC                     u770:
  2187   0018DC  5038               	movf	gpio_pin_read_logic@logic^0,w,c
  2188   0018DE  B4D8               	btfsc	status,2,c
  2189   0018E0  EF74  F00C         	goto	u781
  2190   0018E4  EF76  F00C         	goto	u780
  2191   0018E8                     u781:
  2192   0018E8  EF86  F00C         	goto	l1508
  2193   0018EC                     u780:
  2194   0018EC  5037               	movf	gpio_pin_read_logic@_pin_config^0,w,c
  2195   0018EE  6ED9               	movwf	fsr2l,c
  2196   0018F0  6ADA               	clrf	fsr2h,c
  2197   0018F2  30DF               	rrcf	223,w,c
  2198   0018F4  32E8               	rrcf	wreg,f,c
  2199   0018F6  32E8               	rrcf	wreg,f,c
  2200   0018F8  0B07               	andlw	7
  2201   0018FA  6E39               	movwf	??_gpio_pin_read_logic^0,c
  2202   0018FC  0E07               	movlw	7
  2203   0018FE  6439               	cpfsgt	??_gpio_pin_read_logic^0,c
  2204   001900  EF84  F00C         	goto	u791
  2205   001904  EF86  F00C         	goto	u790
  2206   001908                     u791:
  2207   001908  EF88  F00C         	goto	l1510
  2208   00190C                     u790:
  2209   00190C                     l1508:
  2210                           
  2211                           ;MCAL_Layer/GPIO/hal_gpio.c: 101:     }else{
  2212   00190C  EFB2  F00C         	goto	l108
  2213   001910                     l1510:
  2214                           
  2215                           ;MCAL_Layer/GPIO/hal_gpio.c: 102:         *logic = ((*port_registers[_pin_config->port] 
      +                          >> _pin_config->pin)&(uint8)1);
  2216   001910  5038               	movf	gpio_pin_read_logic@logic^0,w,c
  2217   001912  6ED9               	movwf	fsr2l,c
  2218   001914  6ADA               	clrf	fsr2h,c
  2219   001916  5037               	movf	gpio_pin_read_logic@_pin_config^0,w,c
  2220   001918  6EE1               	movwf	fsr1l,c
  2221   00191A  6AE2               	clrf	fsr1h,c
  2222   00191C  30E7               	rrcf	231,w,c
  2223   00191E  32E8               	rrcf	wreg,f,c
  2224   001920  32E8               	rrcf	wreg,f,c
  2225   001922  0B07               	andlw	7
  2226   001924  6E39               	movwf	??_gpio_pin_read_logic^0,c
  2227   001926  5037               	movf	gpio_pin_read_logic@_pin_config^0,w,c
  2228   001928  6EE1               	movwf	fsr1l,c
  2229   00192A  6AE2               	clrf	fsr1h,c
  2230   00192C  50E7               	movf	231,w,c
  2231   00192E  0B07               	andlw	7
  2232   001930  0D02               	mullw	2
  2233   001932  50F3               	movf	243,w,c
  2234   001934  0F01               	addlw	low _port_registers
  2235   001936  6EE1               	movwf	fsr1l,c
  2236   001938  6AE2               	clrf	fsr1h,c
  2237   00193A  CFE6 F03A          	movff	postinc1,??_gpio_pin_read_logic+1
  2238   00193E  CFE5 F03B          	movff	postdec1,??_gpio_pin_read_logic+2
  2239   001942  C03A  FFE1         	movff	??_gpio_pin_read_logic+1,fsr1l
  2240   001946  C03B  FFE2         	movff	??_gpio_pin_read_logic+2,fsr1h
  2241   00194A  50E7               	movf	indf1,w,c
  2242   00194C  6E3C               	movwf	(??_gpio_pin_read_logic+3)^0,c
  2243   00194E  2A39               	incf	??_gpio_pin_read_logic^0,f,c
  2244   001950  EFAC  F00C         	goto	u804
  2245   001954                     u805:
  2246   001954  90D8               	bcf	status,0,c
  2247   001956  323C               	rrcf	(??_gpio_pin_read_logic+3)^0,f,c
  2248   001958                     u804:
  2249   001958  2E39               	decfsz	??_gpio_pin_read_logic^0,f,c
  2250   00195A  EFAA  F00C         	goto	u805
  2251   00195E  503C               	movf	(??_gpio_pin_read_logic+3)^0,w,c
  2252   001960  0B01               	andlw	1
  2253   001962  6EDF               	movwf	indf2,c
  2254   001964                     l108:
  2255   001964  0012               	return		;funcret
  2256   001966                     __end_of_gpio_pin_read_logic:
  2257                           	callstack 0
  2258                           
  2259 ;; *************** function _application_intialize *****************
  2260 ;; Defined at:
  2261 ;;		line 218 in file "application.c"
  2262 ;; Parameters:    Size  Location     Type
  2263 ;;		None
  2264 ;; Auto vars:     Size  Location     Type
  2265 ;;		None
  2266 ;; Return value:  Size  Location     Type
  2267 ;;                  1    wreg      void 
  2268 ;; Registers used:
  2269 ;;		wreg, fsr2l, fsr2h, status,2, status,0, prodl, prodh, cstack
  2270 ;; Tracked objects:
  2271 ;;		On entry : 0/0
  2272 ;;		On exit  : 0/0
  2273 ;;		Unchanged: 0/0
  2274 ;; Data sizes:     COMRAM   BANK0   BANK1   BANK2   BANK3   BANK4   BANK5   BANK6   BANK7   BANK8   BANK9  BANK10  BANK1
      +1  BANK12  BANK13  BANK14  BANK15
  2275 ;;      Params:         0       0       0       0       0       0       0       0       0       0       0       0       
      +0       0       0       0       0
  2276 ;;      Locals:         0       0       0       0       0       0       0       0       0       0       0       0       
      +0       0       0       0       0
  2277 ;;      Temps:          0       0       0       0       0       0       0       0       0       0       0       0       
      +0       0       0       0       0
  2278 ;;      Totals:         0       0       0       0       0       0       0       0       0       0       0       0       
      +0       0       0       0       0
  2279 ;;Total ram usage:        0 bytes
  2280 ;; Hardware stack levels used: 1
  2281 ;; Hardware stack levels required when called: 3
  2282 ;; This function calls:
  2283 ;;		_button_intialize
  2284 ;;		_led_intialize
  2285 ;; This function is called by:
  2286 ;;		_main
  2287 ;; This function uses a non-reentrant model
  2288 ;;
  2289                           
  2290                           	psect	text11
  2291   001B92                     __ptext11:
  2292                           	callstack 0
  2293   001B92                     _application_intialize:
  2294                           	callstack 27
  2295   001B92                     
  2296                           ;application.c: 219:     ret = led_intialize(&led1);
  2297   001B92  0E36               	movlw	low _led1
  2298   001B94  6E42               	movwf	led_intialize@led^0,c
  2299   001B96  ECF4  F00C         	call	_led_intialize	;wreg free
  2300   001B9A  6E4B               	movwf	_ret^0,c
  2301                           
  2302                           ;application.c: 220:     ret = led_intialize(&led2);
  2303   001B9C  0E35               	movlw	low _led2
  2304   001B9E  6E42               	movwf	led_intialize@led^0,c
  2305   001BA0  ECF4  F00C         	call	_led_intialize	;wreg free
  2306   001BA4  6E4B               	movwf	_ret^0,c
  2307                           
  2308                           ;application.c: 221:     ret = led_intialize(&led3);
  2309   001BA6  0E34               	movlw	low _led3
  2310   001BA8  6E42               	movwf	led_intialize@led^0,c
  2311   001BAA  ECF4  F00C         	call	_led_intialize	;wreg free
  2312   001BAE  6E4B               	movwf	_ret^0,c
  2313                           
  2314                           ;application.c: 222:     ret = led_intialize(&led4);
  2315   001BB0  0E33               	movlw	low _led4
  2316   001BB2  6E42               	movwf	led_intialize@led^0,c
  2317   001BB4  ECF4  F00C         	call	_led_intialize	;wreg free
  2318   001BB8  6E4B               	movwf	_ret^0,c
  2319                           
  2320                           ;application.c: 223:     ret = led_intialize(&led5);
  2321   001BBA  0E32               	movlw	low _led5
  2322   001BBC  6E42               	movwf	led_intialize@led^0,c
  2323   001BBE  ECF4  F00C         	call	_led_intialize	;wreg free
  2324   001BC2  6E4B               	movwf	_ret^0,c
  2325                           
  2326                           ;application.c: 224:     ret = led_intialize(&led6);
  2327   001BC4  0E31               	movlw	low _led6
  2328   001BC6  6E42               	movwf	led_intialize@led^0,c
  2329   001BC8  ECF4  F00C         	call	_led_intialize	;wreg free
  2330   001BCC  6E4B               	movwf	_ret^0,c
  2331                           
  2332                           ;application.c: 225:     ret = led_intialize(&led7);
  2333   001BCE  0E30               	movlw	low _led7
  2334   001BD0  6E42               	movwf	led_intialize@led^0,c
  2335   001BD2  ECF4  F00C         	call	_led_intialize	;wreg free
  2336   001BD6  6E4B               	movwf	_ret^0,c
  2337                           
  2338                           ;application.c: 226:     ret = led_intialize(&led8);
  2339   001BD8  0E2F               	movlw	low _led8
  2340   001BDA  6E42               	movwf	led_intialize@led^0,c
  2341   001BDC  ECF4  F00C         	call	_led_intialize	;wreg free
  2342   001BE0  6E4B               	movwf	_ret^0,c
  2343                           
  2344                           ;application.c: 227:     ret = button_intialize(&btn_high);
  2345   001BE2  0E2A               	movlw	low _btn_high
  2346   001BE4  6E3E               	movwf	button_intialize@btn^0,c
  2347   001BE6  EC5D  F00E         	call	_button_intialize	;wreg free
  2348   001BEA  6E4B               	movwf	_ret^0,c
  2349                           
  2350                           ;application.c: 228:     ret = button_intialize(&btn_low);
  2351   001BEC  0E27               	movlw	low _btn_low
  2352   001BEE  6E3E               	movwf	button_intialize@btn^0,c
  2353   001BF0  EC5D  F00E         	call	_button_intialize	;wreg free
  2354   001BF4  6E4B               	movwf	_ret^0,c
  2355   001BF6  0012               	return		;funcret
  2356   001BF8                     __end_of_application_intialize:
  2357                           	callstack 0
  2358                           
  2359 ;; *************** function _led_intialize *****************
  2360 ;; Defined at:
  2361 ;;		line 15 in file "ECU_Layer/led/led.c"
  2362 ;; Parameters:    Size  Location     Type
  2363 ;;  led             1   11[COMRAM] PTR const struct .
  2364 ;;		 -> led1(1), led2(1), led3(1), led4(1), 
  2365 ;;		 -> led5(1), led6(1), led7(1), led8(1), 
  2366 ;; Auto vars:     Size  Location     Type
  2367 ;;  pin_obj         1   14[COMRAM] struct .
  2368 ;;  ret             1   13[COMRAM] unsigned char 
  2369 ;; Return value:  Size  Location     Type
  2370 ;;                  1    wreg      unsigned char 
  2371 ;; Registers used:
  2372 ;;		wreg, fsr2l, fsr2h, status,2, status,0, prodl, prodh, cstack
  2373 ;; Tracked objects:
  2374 ;;		On entry : 0/0
  2375 ;;		On exit  : 0/0
  2376 ;;		Unchanged: 0/0
  2377 ;; Data sizes:     COMRAM   BANK0   BANK1   BANK2   BANK3   BANK4   BANK5   BANK6   BANK7   BANK8   BANK9  BANK10  BANK1
      +1  BANK12  BANK13  BANK14  BANK15
  2378 ;;      Params:         1       0       0       0       0       0       0       0       0       0       0       0       
      +0       0       0       0       0
  2379 ;;      Locals:         2       0       0       0       0       0       0       0       0       0       0       0       
      +0       0       0       0       0
  2380 ;;      Temps:          1       0       0       0       0       0       0       0       0       0       0       0       
      +0       0       0       0       0
  2381 ;;      Totals:         4       0       0       0       0       0       0       0       0       0       0       0       
      +0       0       0       0       0
  2382 ;;Total ram usage:        4 bytes
  2383 ;; Hardware stack levels used: 1
  2384 ;; Hardware stack levels required when called: 2
  2385 ;; This function calls:
  2386 ;;		_gpio_pin_intialize
  2387 ;; This function is called by:
  2388 ;;		_application_intialize
  2389 ;; This function uses a non-reentrant model
  2390 ;;
  2391                           
  2392                           	psect	text12
  2393   0019E8                     __ptext12:
  2394                           	callstack 0
  2395   0019E8                     _led_intialize:
  2396                           	callstack 27
  2397   0019E8                     
  2398                           ;ECU_Layer/led/led.c: 16:     Std_ReturnType ret = (Std_ReturnType)0x01 ;
  2399   0019E8  0E01               	movlw	1
  2400   0019EA  6E44               	movwf	led_intialize@ret^0,c
  2401                           
  2402                           ;ECU_Layer/led/led.c: 17:     if(((void*)0) == led){
  2403   0019EC  5042               	movf	led_intialize@led^0,w,c
  2404   0019EE  A4D8               	btfss	status,2,c
  2405   0019F0  EFFC  F00C         	goto	u691
  2406   0019F4  EFFE  F00C         	goto	u690
  2407   0019F8                     u691:
  2408   0019F8  EF02  F00D         	goto	l9
  2409   0019FC                     u690:
  2410   0019FC                     
  2411                           ;ECU_Layer/led/led.c: 18:         ret = (Std_ReturnType)0x00 ;
  2412   0019FC  0E00               	movlw	0
  2413   0019FE  6E44               	movwf	led_intialize@ret^0,c
  2414                           
  2415                           ;ECU_Layer/led/led.c: 19:     }else{
  2416   001A00  EF2A  F00D         	goto	l1456
  2417   001A04                     l9:
  2418                           
  2419                           ;ECU_Layer/led/led.c: 20:         pin_config_t pin_obj ={
  2420   001A04  C04A  F045         	movff	led_intialize@F2574,led_intialize@pin_obj
  2421   001A08  5042               	movf	led_intialize@led^0,w,c
  2422   001A0A  6ED9               	movwf	fsr2l,c
  2423   001A0C  6ADA               	clrf	fsr2h,c
  2424   001A0E  50DF               	movf	223,w,c
  2425   001A10  0B0F               	andlw	15
  2426   001A12  6E43               	movwf	??_led_intialize^0,c
  2427   001A14  5045               	movf	led_intialize@pin_obj^0,w,c
  2428   001A16  1843               	xorwf	??_led_intialize^0,w,c
  2429   001A18  0BF8               	andlw	-8
  2430   001A1A  1843               	xorwf	??_led_intialize^0,w,c
  2431   001A1C  6E45               	movwf	led_intialize@pin_obj^0,c
  2432   001A1E  5042               	movf	led_intialize@led^0,w,c
  2433   001A20  6ED9               	movwf	fsr2l,c
  2434   001A22  6ADA               	clrf	fsr2h,c
  2435   001A24  38DF               	swapf	223,w,c
  2436   001A26  0B07               	andlw	7
  2437   001A28  6E43               	movwf	??_led_intialize^0,c
  2438   001A2A  4643               	rlncf	??_led_intialize^0,f,c
  2439   001A2C  4643               	rlncf	??_led_intialize^0,f,c
  2440   001A2E  4643               	rlncf	??_led_intialize^0,f,c
  2441   001A30  5045               	movf	led_intialize@pin_obj^0,w,c
  2442   001A32  1843               	xorwf	??_led_intialize^0,w,c
  2443   001A34  0BC7               	andlw	-57
  2444   001A36  1843               	xorwf	??_led_intialize^0,w,c
  2445   001A38  6E45               	movwf	led_intialize@pin_obj^0,c
  2446   001A3A  9C45               	bcf	led_intialize@pin_obj^0,6,c
  2447   001A3C  5042               	movf	led_intialize@led^0,w,c
  2448   001A3E  6ED9               	movwf	fsr2l,c
  2449   001A40  6ADA               	clrf	fsr2h,c
  2450   001A42  AEDF               	btfss	indf2,7,c
  2451   001A44  D002               	bra	u705
  2452   001A46  8E45               	bsf	led_intialize@pin_obj^0,7,c
  2453   001A48  D001               	bra	u707
  2454   001A4A                     u705:
  2455   001A4A  9E45               	bcf	led_intialize@pin_obj^0,7,c
  2456   001A4C                     u707:
  2457   001A4C                     
  2458                           ;ECU_Layer/led/led.c: 26:         gpio_pin_intialize(&pin_obj);
  2459   001A4C  0E45               	movlw	low led_intialize@pin_obj
  2460   001A4E  6E3F               	movwf	gpio_pin_intialize@_pin_config^0,c
  2461   001A50  ECFC  F00D         	call	_gpio_pin_intialize	;wreg free
  2462   001A54                     l1456:
  2463                           
  2464                           ;ECU_Layer/led/led.c: 28:     return ret ;
  2465   001A54  5044               	movf	led_intialize@ret^0,w,c
  2466   001A56  0012               	return		;funcret
  2467   001A58                     __end_of_led_intialize:
  2468                           	callstack 0
  2469                           
  2470 ;; *************** function _gpio_pin_intialize *****************
  2471 ;; Defined at:
  2472 ;;		line 133 in file "MCAL_Layer/GPIO/hal_gpio.c"
  2473 ;; Parameters:    Size  Location     Type
  2474 ;;  _pin_config     1    8[COMRAM] PTR const struct .
  2475 ;;		 -> led_intialize@pin_obj(1), 
  2476 ;; Auto vars:     Size  Location     Type
  2477 ;;  ret             1   10[COMRAM] unsigned char 
  2478 ;; Return value:  Size  Location     Type
  2479 ;;                  1    wreg      unsigned char 
  2480 ;; Registers used:
  2481 ;;		wreg, fsr2l, fsr2h, status,2, status,0, prodl, prodh, cstack
  2482 ;; Tracked objects:
  2483 ;;		On entry : 0/0
  2484 ;;		On exit  : 0/0
  2485 ;;		Unchanged: 0/0
  2486 ;; Data sizes:     COMRAM   BANK0   BANK1   BANK2   BANK3   BANK4   BANK5   BANK6   BANK7   BANK8   BANK9  BANK10  BANK1
      +1  BANK12  BANK13  BANK14  BANK15
  2487 ;;      Params:         1       0       0       0       0       0       0       0       0       0       0       0       
      +0       0       0       0       0
  2488 ;;      Locals:         1       0       0       0       0       0       0       0       0       0       0       0       
      +0       0       0       0       0
  2489 ;;      Temps:          1       0       0       0       0       0       0       0       0       0       0       0       
      +0       0       0       0       0
  2490 ;;      Totals:         3       0       0       0       0       0       0       0       0       0       0       0       
      +0       0       0       0       0
  2491 ;;Total ram usage:        3 bytes
  2492 ;; Hardware stack levels used: 1
  2493 ;; Hardware stack levels required when called: 1
  2494 ;; This function calls:
  2495 ;;		_gpio_pin_direction_intialize
  2496 ;;		_gpio_pin_write_logic
  2497 ;; This function is called by:
  2498 ;;		_led_intialize
  2499 ;; This function uses a non-reentrant model
  2500 ;;
  2501                           
  2502                           	psect	text13
  2503   001BF8                     __ptext13:
  2504                           	callstack 0
  2505   001BF8                     _gpio_pin_intialize:
  2506                           	callstack 27
  2507   001BF8                     
  2508                           ;MCAL_Layer/GPIO/hal_gpio.c: 135:      if(((void*)0)==_pin_config || _pin_config->pin >8
      +                           -1){
  2509   001BF8  503F               	movf	gpio_pin_intialize@_pin_config^0,w,c
  2510   001BFA  B4D8               	btfsc	status,2,c
  2511   001BFC  EF02  F00E         	goto	u641
  2512   001C00  EF04  F00E         	goto	u640
  2513   001C04                     u641:
  2514   001C04  EF14  F00E         	goto	l1428
  2515   001C08                     u640:
  2516   001C08  503F               	movf	gpio_pin_intialize@_pin_config^0,w,c
  2517   001C0A  6ED9               	movwf	fsr2l,c
  2518   001C0C  6ADA               	clrf	fsr2h,c
  2519   001C0E  30DF               	rrcf	223,w,c
  2520   001C10  32E8               	rrcf	wreg,f,c
  2521   001C12  32E8               	rrcf	wreg,f,c
  2522   001C14  0B07               	andlw	7
  2523   001C16  6E40               	movwf	??_gpio_pin_intialize^0,c
  2524   001C18  0E07               	movlw	7
  2525   001C1A  6440               	cpfsgt	??_gpio_pin_intialize^0,c
  2526   001C1C  EF12  F00E         	goto	u651
  2527   001C20  EF14  F00E         	goto	u650
  2528   001C24                     u651:
  2529   001C24  EF16  F00E         	goto	l1430
  2530   001C28                     u650:
  2531   001C28                     l1428:
  2532                           
  2533                           ;MCAL_Layer/GPIO/hal_gpio.c: 138:      }else{
  2534   001C28  EF27  F00E         	goto	l122
  2535   001C2C                     l1430:
  2536                           
  2537                           ;MCAL_Layer/GPIO/hal_gpio.c: 139:          ret = gpio_pin_direction_intialize( _pin_conf
      +                          ig );
  2538   001C2C  C03F  F037         	movff	gpio_pin_intialize@_pin_config,gpio_pin_direction_intialize@_pin_config
  2539   001C30  EC37  F00A         	call	_gpio_pin_direction_intialize	;wreg free
  2540   001C34  6E41               	movwf	gpio_pin_intialize@ret^0,c
  2541                           
  2542                           ;MCAL_Layer/GPIO/hal_gpio.c: 140:          ret = gpio_pin_write_logic(_pin_config ,_pin_
      +                          config-> logic);
  2543   001C36  C03F  F037         	movff	gpio_pin_intialize@_pin_config,gpio_pin_write_logic@_pin_config
  2544   001C3A  503F               	movf	gpio_pin_intialize@_pin_config^0,w,c
  2545   001C3C  6ED9               	movwf	fsr2l,c
  2546   001C3E  6ADA               	clrf	fsr2h,c
  2547   001C40  0E00               	movlw	0
  2548   001C42  BEDF               	btfsc	indf2,7,c
  2549   001C44  0E01               	movlw	1
  2550   001C46  6E38               	movwf	gpio_pin_write_logic@logic^0,c
  2551   001C48  ECC0  F00A         	call	_gpio_pin_write_logic	;wreg free
  2552   001C4C  6E41               	movwf	gpio_pin_intialize@ret^0,c
  2553   001C4E                     l122:
  2554   001C4E  0012               	return		;funcret
  2555   001C50                     __end_of_gpio_pin_intialize:
  2556                           	callstack 0
  2557                           
  2558 ;; *************** function _gpio_pin_write_logic *****************
  2559 ;; Defined at:
  2560 ;;		line 70 in file "MCAL_Layer/GPIO/hal_gpio.c"
  2561 ;; Parameters:    Size  Location     Type
  2562 ;;  _pin_config     1    0[COMRAM] PTR const struct .
  2563 ;;		 -> led_turn_off@pin_obj(1), led_turn_on@pin_obj(1), led_intialize@pin_obj(1), 
  2564 ;;  logic           1    1[COMRAM] enum E2494
  2565 ;; Auto vars:     Size  Location     Type
  2566 ;;  ret             1    7[COMRAM] unsigned char 
  2567 ;; Return value:  Size  Location     Type
  2568 ;;                  1    wreg      unsigned char 
  2569 ;; Registers used:
  2570 ;;		wreg, fsr2l, fsr2h, status,2, status,0, prodl, prodh
  2571 ;; Tracked objects:
  2572 ;;		On entry : 0/0
  2573 ;;		On exit  : 0/0
  2574 ;;		Unchanged: 0/0
  2575 ;; Data sizes:     COMRAM   BANK0   BANK1   BANK2   BANK3   BANK4   BANK5   BANK6   BANK7   BANK8   BANK9  BANK10  BANK1
      +1  BANK12  BANK13  BANK14  BANK15
  2576 ;;      Params:         2       0       0       0       0       0       0       0       0       0       0       0       
      +0       0       0       0       0
  2577 ;;      Locals:         1       0       0       0       0       0       0       0       0       0       0       0       
      +0       0       0       0       0
  2578 ;;      Temps:          5       0       0       0       0       0       0       0       0       0       0       0       
      +0       0       0       0       0
  2579 ;;      Totals:         8       0       0       0       0       0       0       0       0       0       0       0       
      +0       0       0       0       0
  2580 ;;Total ram usage:        8 bytes
  2581 ;; Hardware stack levels used: 1
  2582 ;; This function calls:
  2583 ;;		Nothing
  2584 ;; This function is called by:
  2585 ;;		_led_turn_on
  2586 ;;		_led_turn_off
  2587 ;;		_gpio_pin_intialize
  2588 ;; This function uses a non-reentrant model
  2589 ;;
  2590                           
  2591                           	psect	text14
  2592   001580                     __ptext14:
  2593                           	callstack 0
  2594   001580                     _gpio_pin_write_logic:
  2595                           	callstack 28
  2596   001580                     
  2597                           ;MCAL_Layer/GPIO/hal_gpio.c: 71:     Std_ReturnType ret = (Std_ReturnType)0x01 ;
  2598   001580  0E01               	movlw	1
  2599   001582  6E3E               	movwf	gpio_pin_write_logic@ret^0,c
  2600                           
  2601                           ;MCAL_Layer/GPIO/hal_gpio.c: 72:     if(((void*)0)==_pin_config|| _pin_config->pin >8 -1
      +                           ){
  2602   001584  5037               	movf	gpio_pin_write_logic@_pin_config^0,w,c
  2603   001586  B4D8               	btfsc	status,2,c
  2604   001588  EFC8  F00A         	goto	u551
  2605   00158C  EFCA  F00A         	goto	u550
  2606   001590                     u551:
  2607   001590  EFDA  F00A         	goto	l1388
  2608   001594                     u550:
  2609   001594  5037               	movf	gpio_pin_write_logic@_pin_config^0,w,c
  2610   001596  6ED9               	movwf	fsr2l,c
  2611   001598  6ADA               	clrf	fsr2h,c
  2612   00159A  30DF               	rrcf	223,w,c
  2613   00159C  32E8               	rrcf	wreg,f,c
  2614   00159E  32E8               	rrcf	wreg,f,c
  2615   0015A0  0B07               	andlw	7
  2616   0015A2  6E39               	movwf	??_gpio_pin_write_logic^0,c
  2617   0015A4  0E07               	movlw	7
  2618   0015A6  6439               	cpfsgt	??_gpio_pin_write_logic^0,c
  2619   0015A8  EFD8  F00A         	goto	u561
  2620   0015AC  EFDA  F00A         	goto	u560
  2621   0015B0                     u561:
  2622   0015B0  EF31  F00B         	goto	l1396
  2623   0015B4                     u560:
  2624   0015B4                     l1388:
  2625                           
  2626                           ;MCAL_Layer/GPIO/hal_gpio.c: 73:         ret = (Std_ReturnType)0x00;
  2627   0015B4  0E00               	movlw	0
  2628   0015B6  6E3E               	movwf	gpio_pin_write_logic@ret^0,c
  2629                           
  2630                           ;MCAL_Layer/GPIO/hal_gpio.c: 74:     }else{
  2631   0015B8  EF46  F00B         	goto	l1398
  2632   0015BC                     l1390:
  2633                           
  2634                           ;MCAL_Layer/GPIO/hal_gpio.c: 77:                 (*lat_registers[_pin_config->port] |= (
      +                          (uint8)1 << _pin_config->pin));
  2635   0015BC  5037               	movf	gpio_pin_write_logic@_pin_config^0,w,c
  2636   0015BE  6ED9               	movwf	fsr2l,c
  2637   0015C0  6ADA               	clrf	fsr2h,c
  2638   0015C2  30DF               	rrcf	223,w,c
  2639   0015C4  32E8               	rrcf	wreg,f,c
  2640   0015C6  32E8               	rrcf	wreg,f,c
  2641   0015C8  0B07               	andlw	7
  2642   0015CA  6E39               	movwf	??_gpio_pin_write_logic^0,c
  2643   0015CC  0E01               	movlw	1
  2644   0015CE  6E3A               	movwf	(??_gpio_pin_write_logic+1)^0,c
  2645   0015D0  2A39               	incf	??_gpio_pin_write_logic^0,f,c
  2646   0015D2  EFED  F00A         	goto	u574
  2647   0015D6                     u575:
  2648   0015D6  90D8               	bcf	status,0,c
  2649   0015D8  363A               	rlcf	(??_gpio_pin_write_logic+1)^0,f,c
  2650   0015DA                     u574:
  2651   0015DA  2E39               	decfsz	??_gpio_pin_write_logic^0,f,c
  2652   0015DC  EFEB  F00A         	goto	u575
  2653   0015E0  5037               	movf	gpio_pin_write_logic@_pin_config^0,w,c
  2654   0015E2  6ED9               	movwf	fsr2l,c
  2655   0015E4  6ADA               	clrf	fsr2h,c
  2656   0015E6  50DF               	movf	223,w,c
  2657   0015E8  0B07               	andlw	7
  2658   0015EA  0D02               	mullw	2
  2659   0015EC  50F3               	movf	243,w,c
  2660   0015EE  0F0B               	addlw	low _lat_registers
  2661   0015F0  6ED9               	movwf	fsr2l,c
  2662   0015F2  6ADA               	clrf	fsr2h,c
  2663   0015F4  CFDE F03B          	movff	postinc2,??_gpio_pin_write_logic+2
  2664   0015F8  CFDD F03C          	movff	postdec2,??_gpio_pin_write_logic+3
  2665   0015FC  C03B  FFD9         	movff	??_gpio_pin_write_logic+2,fsr2l
  2666   001600  C03C  FFDA         	movff	??_gpio_pin_write_logic+3,fsr2h
  2667   001604  503A               	movf	(??_gpio_pin_write_logic+1)^0,w,c
  2668   001606  12DF               	iorwf	indf2,f,c
  2669                           
  2670                           ;MCAL_Layer/GPIO/hal_gpio.c: 78:                 break;
  2671   001608  EF46  F00B         	goto	l1398
  2672   00160C                     l1392:
  2673                           
  2674                           ;MCAL_Layer/GPIO/hal_gpio.c: 80:                 (*lat_registers[_pin_config->port] &= ~
      +                          ((uint8)1 << _pin_config->pin));
  2675   00160C  5037               	movf	gpio_pin_write_logic@_pin_config^0,w,c
  2676   00160E  6ED9               	movwf	fsr2l,c
  2677   001610  6ADA               	clrf	fsr2h,c
  2678   001612  30DF               	rrcf	223,w,c
  2679   001614  32E8               	rrcf	wreg,f,c
  2680   001616  32E8               	rrcf	wreg,f,c
  2681   001618  0B07               	andlw	7
  2682   00161A  6E39               	movwf	??_gpio_pin_write_logic^0,c
  2683   00161C  0E01               	movlw	1
  2684   00161E  6E3A               	movwf	(??_gpio_pin_write_logic+1)^0,c
  2685   001620  2A39               	incf	??_gpio_pin_write_logic^0,f,c
  2686   001622  EF15  F00B         	goto	u584
  2687   001626                     u585:
  2688   001626  90D8               	bcf	status,0,c
  2689   001628  363A               	rlcf	(??_gpio_pin_write_logic+1)^0,f,c
  2690   00162A                     u584:
  2691   00162A  2E39               	decfsz	??_gpio_pin_write_logic^0,f,c
  2692   00162C  EF13  F00B         	goto	u585
  2693   001630  503A               	movf	(??_gpio_pin_write_logic+1)^0,w,c
  2694   001632  0AFF               	xorlw	255
  2695   001634  6E3B               	movwf	(??_gpio_pin_write_logic+2)^0,c
  2696   001636  5037               	movf	gpio_pin_write_logic@_pin_config^0,w,c
  2697   001638  6ED9               	movwf	fsr2l,c
  2698   00163A  6ADA               	clrf	fsr2h,c
  2699   00163C  50DF               	movf	223,w,c
  2700   00163E  0B07               	andlw	7
  2701   001640  0D02               	mullw	2
  2702   001642  50F3               	movf	243,w,c
  2703   001644  0F0B               	addlw	low _lat_registers
  2704   001646  6ED9               	movwf	fsr2l,c
  2705   001648  6ADA               	clrf	fsr2h,c
  2706   00164A  CFDE F03C          	movff	postinc2,??_gpio_pin_write_logic+3
  2707   00164E  CFDD F03D          	movff	postdec2,??_gpio_pin_write_logic+4
  2708   001652  C03C  FFD9         	movff	??_gpio_pin_write_logic+3,fsr2l
  2709   001656  C03D  FFDA         	movff	??_gpio_pin_write_logic+4,fsr2h
  2710   00165A  503B               	movf	(??_gpio_pin_write_logic+2)^0,w,c
  2711   00165C  16DF               	andwf	indf2,f,c
  2712                           
  2713                           ;MCAL_Layer/GPIO/hal_gpio.c: 81:                 break;
  2714   00165E  EF46  F00B         	goto	l1398
  2715   001662                     l1396:
  2716   001662  5038               	movf	gpio_pin_write_logic@logic^0,w,c
  2717   001664  6E39               	movwf	??_gpio_pin_write_logic^0,c
  2718   001666  6A3A               	clrf	(??_gpio_pin_write_logic+1)^0,c
  2719                           
  2720                           ; Switch on 2 bytes has been partitioned into a top level switch of size 1, and 1 sub-sw
      +                          itches
  2721                           ; Switch size 1, requested type "simple"
  2722                           ; Number of cases is 1, Range of values is 0 to 0
  2723                           ; switch strategies available:
  2724                           ; Name         Instructions Cycles
  2725                           ; simple_byte            4     3 (average)
  2726                           ;	Chosen strategy is simple_byte
  2727   001668  503A               	movf	(??_gpio_pin_write_logic+1)^0,w,c
  2728   00166A  0A00               	xorlw	0	; case 0
  2729   00166C  B4D8               	btfsc	status,2,c
  2730   00166E  EF3B  F00B         	goto	l1744
  2731   001672  EFDA  F00A         	goto	l1388
  2732   001676                     l1744:
  2733                           
  2734                           ; Switch size 1, requested type "simple"
  2735                           ; Number of cases is 2, Range of values is 0 to 1
  2736                           ; switch strategies available:
  2737                           ; Name         Instructions Cycles
  2738                           ; simple_byte            7     4 (average)
  2739                           ;	Chosen strategy is simple_byte
  2740   001676  5039               	movf	??_gpio_pin_write_logic^0,w,c
  2741   001678  0A00               	xorlw	0	; case 0
  2742   00167A  B4D8               	btfsc	status,2,c
  2743   00167C  EF06  F00B         	goto	l1392
  2744   001680  0A01               	xorlw	1	; case 1
  2745   001682  B4D8               	btfsc	status,2,c
  2746   001684  EFDE  F00A         	goto	l1390
  2747   001688  EFDA  F00A         	goto	l1388
  2748   00168C                     l1398:
  2749                           
  2750                           ;MCAL_Layer/GPIO/hal_gpio.c: 85:         return ret ;
  2751   00168C  503E               	movf	gpio_pin_write_logic@ret^0,w,c
  2752   00168E  0012               	return		;funcret
  2753   001690                     __end_of_gpio_pin_write_logic:
  2754                           	callstack 0
  2755                           
  2756 ;; *************** function _button_intialize *****************
  2757 ;; Defined at:
  2758 ;;		line 15 in file "ECU_Layer/button/button.c"
  2759 ;; Parameters:    Size  Location     Type
  2760 ;;  btn             1    7[COMRAM] PTR const struct .
  2761 ;;		 -> btn_low(3), btn_high(3), 
  2762 ;; Auto vars:     Size  Location     Type
  2763 ;;  ret             1    8[COMRAM] unsigned char 
  2764 ;; Return value:  Size  Location     Type
  2765 ;;                  1    wreg      unsigned char 
  2766 ;; Registers used:
  2767 ;;		wreg, fsr2l, fsr2h, status,2, status,0, prodl, prodh, cstack
  2768 ;; Tracked objects:
  2769 ;;		On entry : 0/0
  2770 ;;		On exit  : 0/0
  2771 ;;		Unchanged: 0/0
  2772 ;; Data sizes:     COMRAM   BANK0   BANK1   BANK2   BANK3   BANK4   BANK5   BANK6   BANK7   BANK8   BANK9  BANK10  BANK1
      +1  BANK12  BANK13  BANK14  BANK15
  2773 ;;      Params:         1       0       0       0       0       0       0       0       0       0       0       0       
      +0       0       0       0       0
  2774 ;;      Locals:         1       0       0       0       0       0       0       0       0       0       0       0       
      +0       0       0       0       0
  2775 ;;      Temps:          0       0       0       0       0       0       0       0       0       0       0       0       
      +0       0       0       0       0
  2776 ;;      Totals:         2       0       0       0       0       0       0       0       0       0       0       0       
      +0       0       0       0       0
  2777 ;;Total ram usage:        2 bytes
  2778 ;; Hardware stack levels used: 1
  2779 ;; Hardware stack levels required when called: 1
  2780 ;; This function calls:
  2781 ;;		_gpio_pin_direction_intialize
  2782 ;; This function is called by:
  2783 ;;		_application_intialize
  2784 ;; This function uses a non-reentrant model
  2785 ;;
  2786                           
  2787                           	psect	text15
  2788   001CBA                     __ptext15:
  2789                           	callstack 0
  2790   001CBA                     _button_intialize:
  2791                           	callstack 28
  2792   001CBA                     
  2793                           ;ECU_Layer/button/button.c: 17:     if(((void*)0) == btn){
  2794   001CBA  503E               	movf	button_intialize@btn^0,w,c
  2795   001CBC  A4D8               	btfss	status,2,c
  2796   001CBE  EF63  F00E         	goto	u811
  2797   001CC2  EF65  F00E         	goto	u810
  2798   001CC6                     u811:
  2799   001CC6  EF69  F00E         	goto	l1518
  2800   001CCA                     u810:
  2801   001CCA                     
  2802                           ;ECU_Layer/button/button.c: 18:         ret = (Std_ReturnType)0x00 ;
  2803   001CCA  0E00               	movlw	0
  2804   001CCC  6E3F               	movwf	button_intialize@ret^0,c
  2805                           
  2806                           ;ECU_Layer/button/button.c: 19:     }else{
  2807   001CCE  EF6E  F00E         	goto	l1520
  2808   001CD2                     l1518:
  2809                           
  2810                           ;ECU_Layer/button/button.c: 20:         ret = gpio_pin_direction_intialize(&(btn ->butto
      +                          n_pin));
  2811   001CD2  C03E  F037         	movff	button_intialize@btn,gpio_pin_direction_intialize@_pin_config
  2812   001CD6  EC37  F00A         	call	_gpio_pin_direction_intialize	;wreg free
  2813   001CDA  6E3F               	movwf	button_intialize@ret^0,c
  2814   001CDC                     l1520:
  2815                           
  2816                           ;ECU_Layer/button/button.c: 23:     return ret ;
  2817   001CDC  503F               	movf	button_intialize@ret^0,w,c
  2818   001CDE  0012               	return		;funcret
  2819   001CE0                     __end_of_button_intialize:
  2820                           	callstack 0
  2821                           
  2822 ;; *************** function _gpio_pin_direction_intialize *****************
  2823 ;; Defined at:
  2824 ;;		line 24 in file "MCAL_Layer/GPIO/hal_gpio.c"
  2825 ;; Parameters:    Size  Location     Type
  2826 ;;  _pin_config     1    0[COMRAM] PTR const struct .
  2827 ;;		 -> btn_low(3), btn_high(3), led_intialize@pin_obj(1), 
  2828 ;; Auto vars:     Size  Location     Type
  2829 ;;  ret             1    6[COMRAM] unsigned char 
  2830 ;; Return value:  Size  Location     Type
  2831 ;;                  1    wreg      unsigned char 
  2832 ;; Registers used:
  2833 ;;		wreg, fsr2l, fsr2h, status,2, status,0, prodl, prodh
  2834 ;; Tracked objects:
  2835 ;;		On entry : 0/0
  2836 ;;		On exit  : 0/0
  2837 ;;		Unchanged: 0/0
  2838 ;; Data sizes:     COMRAM   BANK0   BANK1   BANK2   BANK3   BANK4   BANK5   BANK6   BANK7   BANK8   BANK9  BANK10  BANK1
      +1  BANK12  BANK13  BANK14  BANK15
  2839 ;;      Params:         1       0       0       0       0       0       0       0       0       0       0       0       
      +0       0       0       0       0
  2840 ;;      Locals:         1       0       0       0       0       0       0       0       0       0       0       0       
      +0       0       0       0       0
  2841 ;;      Temps:          5       0       0       0       0       0       0       0       0       0       0       0       
      +0       0       0       0       0
  2842 ;;      Totals:         7       0       0       0       0       0       0       0       0       0       0       0       
      +0       0       0       0       0
  2843 ;;Total ram usage:        7 bytes
  2844 ;; Hardware stack levels used: 1
  2845 ;; This function calls:
  2846 ;;		Nothing
  2847 ;; This function is called by:
  2848 ;;		_gpio_pin_intialize
  2849 ;;		_button_intialize
  2850 ;; This function uses a non-reentrant model
  2851 ;;
  2852                           
  2853                           	psect	text16
  2854   00146E                     __ptext16:
  2855                           	callstack 0
  2856   00146E                     _gpio_pin_direction_intialize:
  2857                           	callstack 27
  2858   00146E                     
  2859                           ;MCAL_Layer/GPIO/hal_gpio.c: 25:     Std_ReturnType ret = (Std_ReturnType)0x01 ;
  2860   00146E  0E01               	movlw	1
  2861   001470  6E3D               	movwf	gpio_pin_direction_intialize@ret^0,c
  2862                           
  2863                           ;MCAL_Layer/GPIO/hal_gpio.c: 26:     if(((void*)0)==_pin_config || _pin_config->pin >8 -
      +                          1){
  2864   001472  5037               	movf	gpio_pin_direction_intialize@_pin_config^0,w,c
  2865   001474  B4D8               	btfsc	status,2,c
  2866   001476  EF3F  F00A         	goto	u591
  2867   00147A  EF41  F00A         	goto	u590
  2868   00147E                     u591:
  2869   00147E  EF51  F00A         	goto	l1410
  2870   001482                     u590:
  2871   001482  5037               	movf	gpio_pin_direction_intialize@_pin_config^0,w,c
  2872   001484  6ED9               	movwf	fsr2l,c
  2873   001486  6ADA               	clrf	fsr2h,c
  2874   001488  30DF               	rrcf	223,w,c
  2875   00148A  32E8               	rrcf	wreg,f,c
  2876   00148C  32E8               	rrcf	wreg,f,c
  2877   00148E  0B07               	andlw	7
  2878   001490  6E38               	movwf	??_gpio_pin_direction_intialize^0,c
  2879   001492  0E07               	movlw	7
  2880   001494  6438               	cpfsgt	??_gpio_pin_direction_intialize^0,c
  2881   001496  EF4F  F00A         	goto	u601
  2882   00149A  EF51  F00A         	goto	u600
  2883   00149E                     u601:
  2884   00149E  EFA8  F00A         	goto	l1418
  2885   0014A2                     u600:
  2886   0014A2                     l1410:
  2887                           
  2888                           ;MCAL_Layer/GPIO/hal_gpio.c: 27:         ret = (Std_ReturnType)0x00;
  2889   0014A2  0E00               	movlw	0
  2890   0014A4  6E3D               	movwf	gpio_pin_direction_intialize@ret^0,c
  2891                           
  2892                           ;MCAL_Layer/GPIO/hal_gpio.c: 28:     }else{
  2893   0014A6  EFBE  F00A         	goto	l1420
  2894   0014AA                     l1412:
  2895                           
  2896                           ;MCAL_Layer/GPIO/hal_gpio.c: 31:                 (*tris_registers[_pin_config->port] &= 
      +                          ~((uint8)1 << _pin_config->pin));
  2897   0014AA  5037               	movf	gpio_pin_direction_intialize@_pin_config^0,w,c
  2898   0014AC  6ED9               	movwf	fsr2l,c
  2899   0014AE  6ADA               	clrf	fsr2h,c
  2900   0014B0  30DF               	rrcf	223,w,c
  2901   0014B2  32E8               	rrcf	wreg,f,c
  2902   0014B4  32E8               	rrcf	wreg,f,c
  2903   0014B6  0B07               	andlw	7
  2904   0014B8  6E38               	movwf	??_gpio_pin_direction_intialize^0,c
  2905   0014BA  0E01               	movlw	1
  2906   0014BC  6E39               	movwf	(??_gpio_pin_direction_intialize+1)^0,c
  2907   0014BE  2A38               	incf	??_gpio_pin_direction_intialize^0,f,c
  2908   0014C0  EF64  F00A         	goto	u614
  2909   0014C4                     u615:
  2910   0014C4  90D8               	bcf	status,0,c
  2911   0014C6  3639               	rlcf	(??_gpio_pin_direction_intialize+1)^0,f,c
  2912   0014C8                     u614:
  2913   0014C8  2E38               	decfsz	??_gpio_pin_direction_intialize^0,f,c
  2914   0014CA  EF62  F00A         	goto	u615
  2915   0014CE  5039               	movf	(??_gpio_pin_direction_intialize+1)^0,w,c
  2916   0014D0  0AFF               	xorlw	255
  2917   0014D2  6E3A               	movwf	(??_gpio_pin_direction_intialize+2)^0,c
  2918   0014D4  5037               	movf	gpio_pin_direction_intialize@_pin_config^0,w,c
  2919   0014D6  6ED9               	movwf	fsr2l,c
  2920   0014D8  6ADA               	clrf	fsr2h,c
  2921   0014DA  50DF               	movf	223,w,c
  2922   0014DC  0B07               	andlw	7
  2923   0014DE  0D02               	mullw	2
  2924   0014E0  50F3               	movf	243,w,c
  2925   0014E2  0F15               	addlw	low _tris_registers
  2926   0014E4  6ED9               	movwf	fsr2l,c
  2927   0014E6  6ADA               	clrf	fsr2h,c
  2928   0014E8  CFDE F03B          	movff	postinc2,??_gpio_pin_direction_intialize+3
  2929   0014EC  CFDD F03C          	movff	postdec2,??_gpio_pin_direction_intialize+4
  2930   0014F0  C03B  FFD9         	movff	??_gpio_pin_direction_intialize+3,fsr2l
  2931   0014F4  C03C  FFDA         	movff	??_gpio_pin_direction_intialize+4,fsr2h
  2932   0014F8  503A               	movf	(??_gpio_pin_direction_intialize+2)^0,w,c
  2933   0014FA  16DF               	andwf	indf2,f,c
  2934                           
  2935                           ;MCAL_Layer/GPIO/hal_gpio.c: 32:               break;
  2936   0014FC  EFBE  F00A         	goto	l1420
  2937   001500                     l1414:
  2938                           
  2939                           ;MCAL_Layer/GPIO/hal_gpio.c: 34:                 (*tris_registers[_pin_config->port] |= 
      +                          ((uint8)1 << _pin_config->pin));
  2940   001500  5037               	movf	gpio_pin_direction_intialize@_pin_config^0,w,c
  2941   001502  6ED9               	movwf	fsr2l,c
  2942   001504  6ADA               	clrf	fsr2h,c
  2943   001506  30DF               	rrcf	223,w,c
  2944   001508  32E8               	rrcf	wreg,f,c
  2945   00150A  32E8               	rrcf	wreg,f,c
  2946   00150C  0B07               	andlw	7
  2947   00150E  6E38               	movwf	??_gpio_pin_direction_intialize^0,c
  2948   001510  0E01               	movlw	1
  2949   001512  6E39               	movwf	(??_gpio_pin_direction_intialize+1)^0,c
  2950   001514  2A38               	incf	??_gpio_pin_direction_intialize^0,f,c
  2951   001516  EF8F  F00A         	goto	u624
  2952   00151A                     u625:
  2953   00151A  90D8               	bcf	status,0,c
  2954   00151C  3639               	rlcf	(??_gpio_pin_direction_intialize+1)^0,f,c
  2955   00151E                     u624:
  2956   00151E  2E38               	decfsz	??_gpio_pin_direction_intialize^0,f,c
  2957   001520  EF8D  F00A         	goto	u625
  2958   001524  5037               	movf	gpio_pin_direction_intialize@_pin_config^0,w,c
  2959   001526  6ED9               	movwf	fsr2l,c
  2960   001528  6ADA               	clrf	fsr2h,c
  2961   00152A  50DF               	movf	223,w,c
  2962   00152C  0B07               	andlw	7
  2963   00152E  0D02               	mullw	2
  2964   001530  50F3               	movf	243,w,c
  2965   001532  0F15               	addlw	low _tris_registers
  2966   001534  6ED9               	movwf	fsr2l,c
  2967   001536  6ADA               	clrf	fsr2h,c
  2968   001538  CFDE F03A          	movff	postinc2,??_gpio_pin_direction_intialize+2
  2969   00153C  CFDD F03B          	movff	postdec2,??_gpio_pin_direction_intialize+3
  2970   001540  C03A  FFD9         	movff	??_gpio_pin_direction_intialize+2,fsr2l
  2971   001544  C03B  FFDA         	movff	??_gpio_pin_direction_intialize+3,fsr2h
  2972   001548  5039               	movf	(??_gpio_pin_direction_intialize+1)^0,w,c
  2973   00154A  12DF               	iorwf	indf2,f,c
  2974                           
  2975                           ;MCAL_Layer/GPIO/hal_gpio.c: 35:               break;
  2976   00154C  EFBE  F00A         	goto	l1420
  2977   001550                     l1418:
  2978   001550  5037               	movf	gpio_pin_direction_intialize@_pin_config^0,w,c
  2979   001552  6ED9               	movwf	fsr2l,c
  2980   001554  6ADA               	clrf	fsr2h,c
  2981   001556  BCDF               	btfsc	indf2,6,c
  2982   001558  EFB0  F00A         	goto	u631
  2983   00155C  EFB3  F00A         	goto	u630
  2984   001560                     u631:
  2985   001560  0E01               	movlw	1
  2986   001562  EFB4  F00A         	goto	u636
  2987   001566                     u630:
  2988   001566  0E00               	movlw	0
  2989   001568                     u636:
  2990                           
  2991                           ; Switch size 1, requested type "simple"
  2992                           ; Number of cases is 2, Range of values is 0 to 1
  2993                           ; switch strategies available:
  2994                           ; Name         Instructions Cycles
  2995                           ; simple_byte            7     4 (average)
  2996                           ;	Chosen strategy is simple_byte
  2997   001568  0A00               	xorlw	0	; case 0
  2998   00156A  B4D8               	btfsc	status,2,c
  2999   00156C  EF55  F00A         	goto	l1412
  3000   001570  0A01               	xorlw	1	; case 1
  3001   001572  B4D8               	btfsc	status,2,c
  3002   001574  EF80  F00A         	goto	l1414
  3003   001578  EF51  F00A         	goto	l1410
  3004   00157C                     l1420:
  3005                           
  3006                           ;MCAL_Layer/GPIO/hal_gpio.c: 39:     return ret ;
  3007   00157C  503D               	movf	gpio_pin_direction_intialize@ret^0,w,c
  3008   00157E  0012               	return		;funcret
  3009   001580                     __end_of_gpio_pin_direction_intialize:
  3010                           	callstack 0
  3011                           
  3012                           	psect	smallconst
  3013   001000                     __psmallconst:
  3014                           	callstack 0
  3015   001000  00                 	db	0
  3016   001001  00                 	db	0	; dummy byte at the end
  3017   000000                     
  3018                           	psect	rparam
  3019   000000                     
  3020                           	psect	config
  3021                           
  3022                           ; Padding undefined space
  3023   300000                     	org	3145728
  3024   300000  FF                 	db	255
  3025                           
  3026                           ;Config register CONFIG1H @ 0x300001
  3027                           ;	Oscillator Selection bits
  3028                           ;	OSC = HS, HS oscillator
  3029                           ;	Fail-Safe Clock Monitor Enable bit
  3030                           ;	FCMEN = OFF, Fail-Safe Clock Monitor disabled
  3031                           ;	Internal/External Oscillator Switchover bit
  3032                           ;	IESO = OFF, Oscillator Switchover mode disabled
  3033   300001                     	org	3145729
  3034   300001  02                 	db	2
  3035                           
  3036                           ;Config register CONFIG2L @ 0x300002
  3037                           ;	Power-up Timer Enable bit
  3038                           ;	PWRT = OFF, PWRT disabled
  3039                           ;	Brown-out Reset Enable bits
  3040                           ;	BOREN = OFF, Brown-out Reset disabled in hardware and software
  3041                           ;	Brown Out Reset Voltage bits
  3042                           ;	BORV = 1, 
  3043   300002                     	org	3145730
  3044   300002  09                 	db	9
  3045                           
  3046                           ;Config register CONFIG2H @ 0x300003
  3047                           ;	Watchdog Timer Enable bit
  3048                           ;	WDT = OFF, WDT disabled (control is placed on the SWDTEN bit)
  3049                           ;	Watchdog Timer Postscale Select bits
  3050                           ;	WDTPS = 32768, 1:32768
  3051   300003                     	org	3145731
  3052   300003  1E                 	db	30
  3053                           
  3054                           ; Padding undefined space
  3055   300004                     	org	3145732
  3056   300004  FF                 	db	255
  3057                           
  3058                           ;Config register CONFIG3H @ 0x300005
  3059                           ;	CCP2 MUX bit
  3060                           ;	CCP2MX = PORTC, CCP2 input/output is multiplexed with RC1
  3061                           ;	PORTB A/D Enable bit
  3062                           ;	PBADEN = OFF, PORTB<4:0> pins are configured as digital I/O on Reset
  3063                           ;	Low-Power Timer1 Oscillator Enable bit
  3064                           ;	LPT1OSC = OFF, Timer1 configured for higher power operation
  3065                           ;	MCLR Pin Enable bit
  3066                           ;	MCLRE = ON, MCLR pin enabled; RE3 input pin disabled
  3067   300005                     	org	3145733
  3068   300005  81                 	db	129
  3069                           
  3070                           ;Config register CONFIG4L @ 0x300006
  3071                           ;	Stack Full/Underflow Reset Enable bit
  3072                           ;	STVREN = ON, Stack full/underflow will cause Reset
  3073                           ;	Single-Supply ICSP Enable bit
  3074                           ;	LVP = OFF, Single-Supply ICSP disabled
  3075                           ;	Extended Instruction Set Enable bit
  3076                           ;	XINST = OFF, Instruction set extension and Indexed Addressing mode disabled (Legacy mo
      +                          de)
  3077                           ;	Background Debugger Enable bit
  3078                           ;	DEBUG = 0x1, unprogrammed default
  3079   300006                     	org	3145734
  3080   300006  81                 	db	129
  3081                           
  3082                           ; Padding undefined space
  3083   300007                     	org	3145735
  3084   300007  FF                 	db	255
  3085                           
  3086                           ;Config register CONFIG5L @ 0x300008
  3087                           ;	Code Protection bit
  3088                           ;	CP0 = OFF, Block 0 (000800-003FFFh) not code-protected
  3089                           ;	Code Protection bit
  3090                           ;	CP1 = OFF, Block 1 (004000-007FFFh) not code-protected
  3091                           ;	Code Protection bit
  3092                           ;	CP2 = OFF, Block 2 (008000-00BFFFh) not code-protected
  3093                           ;	Code Protection bit
  3094                           ;	CP3 = OFF, Block 3 (00C000-00FFFFh) not code-protected
  3095   300008                     	org	3145736
  3096   300008  0F                 	db	15
  3097                           
  3098                           ;Config register CONFIG5H @ 0x300009
  3099                           ;	Boot Block Code Protection bit
  3100                           ;	CPB = OFF, Boot block (000000-0007FFh) not code-protected
  3101                           ;	Data EEPROM Code Protection bit
  3102                           ;	CPD = OFF, Data EEPROM not code-protected
  3103   300009                     	org	3145737
  3104   300009  C0                 	db	192
  3105                           
  3106                           ;Config register CONFIG6L @ 0x30000A
  3107                           ;	Write Protection bit
  3108                           ;	WRT0 = OFF, Block 0 (000800-003FFFh) not write-protected
  3109                           ;	Write Protection bit
  3110                           ;	WRT1 = OFF, Block 1 (004000-007FFFh) not write-protected
  3111                           ;	Write Protection bit
  3112                           ;	WRT2 = OFF, Block 2 (008000-00BFFFh) not write-protected
  3113                           ;	Write Protection bit
  3114                           ;	WRT3 = OFF, Block 3 (00C000-00FFFFh) not write-protected
  3115   30000A                     	org	3145738
  3116   30000A  0F                 	db	15
  3117                           
  3118                           ;Config register CONFIG6H @ 0x30000B
  3119                           ;	Configuration Register Write Protection bit
  3120                           ;	WRTC = OFF, Configuration registers (300000-3000FFh) not write-protected
  3121                           ;	Boot Block Write Protection bit
  3122                           ;	WRTB = OFF, Boot Block (000000-0007FFh) not write-protected
  3123                           ;	Data EEPROM Write Protection bit
  3124                           ;	WRTD = OFF, Data EEPROM not write-protected
  3125   30000B                     	org	3145739
  3126   30000B  E0                 	db	224
  3127                           
  3128                           ;Config register CONFIG7L @ 0x30000C
  3129                           ;	Table Read Protection bit
  3130                           ;	EBTR0 = OFF, Block 0 (000800-003FFFh) not protected from table reads executed in other
      +                           blocks
  3131                           ;	Table Read Protection bit
  3132                           ;	EBTR1 = OFF, Block 1 (004000-007FFFh) not protected from table reads executed in other
      +                           blocks
  3133                           ;	Table Read Protection bit
  3134                           ;	EBTR2 = OFF, Block 2 (008000-00BFFFh) not protected from table reads executed in other
      +                           blocks
  3135                           ;	Table Read Protection bit
  3136                           ;	EBTR3 = OFF, Block 3 (00C000-00FFFFh) not protected from table reads executed in other
      +                           blocks
  3137   30000C                     	org	3145740
  3138   30000C  0F                 	db	15
  3139                           
  3140                           ;Config register CONFIG7H @ 0x30000D
  3141                           ;	Boot Block Table Read Protection bit
  3142                           ;	EBTRB = OFF, Boot Block (000000-0007FFh) not protected from table reads executed in ot
      +                          her blocks
  3143   30000D                     	org	3145741
  3144   30000D  40                 	db	64
  3145                           tosu	equ	0xFFF
  3146                           tosh	equ	0xFFE
  3147                           tosl	equ	0xFFD
  3148                           stkptr	equ	0xFFC
  3149                           pclatu	equ	0xFFB
  3150                           pclath	equ	0xFFA
  3151                           pcl	equ	0xFF9
  3152                           tblptru	equ	0xFF8
  3153                           tblptrh	equ	0xFF7
  3154                           tblptrl	equ	0xFF6
  3155                           tablat	equ	0xFF5
  3156                           prodh	equ	0xFF4
  3157                           prodl	equ	0xFF3
  3158                           indf0	equ	0xFEF
  3159                           postinc0	equ	0xFEE
  3160                           postdec0	equ	0xFED
  3161                           preinc0	equ	0xFEC
  3162                           plusw0	equ	0xFEB
  3163                           fsr0h	equ	0xFEA
  3164                           fsr0l	equ	0xFE9
  3165                           wreg	equ	0xFE8
  3166                           indf1	equ	0xFE7
  3167                           postinc1	equ	0xFE6
  3168                           postdec1	equ	0xFE5
  3169                           preinc1	equ	0xFE4
  3170                           plusw1	equ	0xFE3
  3171                           fsr1h	equ	0xFE2
  3172                           fsr1l	equ	0xFE1
  3173                           bsr	equ	0xFE0
  3174                           indf2	equ	0xFDF
  3175                           postinc2	equ	0xFDE
  3176                           postdec2	equ	0xFDD
  3177                           preinc2	equ	0xFDC
  3178                           plusw2	equ	0xFDB
  3179                           fsr2h	equ	0xFDA
  3180                           fsr2l	equ	0xFD9
  3181                           status	equ	0xFD8

Data Sizes:
    Strings     0
    Constant    0
    Data        54
    BSS         5
    Persistent  1
    Stack       0

Auto Spaces:
    Space          Size  Autos    Used
    COMRAM          127     15      75
    BANK0           128      0       0
    BANK1           256      0       0
    BANK2           256      0       0
    BANK3           256      0       0
    BANK4           256      0       0
    BANK5           256      0       0
    BANK6           256      0       0
    BANK7           256      0       0
    BANK8           256      0       0
    BANK9           256      0       0
    BANK10          256      0       0
    BANK11          256      0       0
    BANK12          256      0       0
    BANK13          256      0       0
    BANK14          256      0       0
    BANK15          128      0       0

Pointer List with Targets:

    button_intialize@btn	PTR const struct . size(1) Largest target is 3
		 -> btn_high(COMRAM[3]), btn_low(COMRAM[3]), 

    button_read_state@btn	PTR const struct . size(1) Largest target is 3
		 -> btn_high(COMRAM[3]), btn_low(COMRAM[3]), 

    button_read_state@btn_state	PTR enum E2554 size(1) Largest target is 1
		 -> btn_high_status(COMRAM[1]), btn_low_status(COMRAM[1]), 

    gpio_pin_direction_intialize@_pin_config	PTR const struct . size(1) Largest target is 3
		 -> btn_high(COMRAM[3]), btn_low(COMRAM[3]), led_intialize@pin_obj(COMRAM[1]), 

    gpio_pin_intialize@_pin_config	PTR const struct . size(1) Largest target is 1
		 -> led_intialize@pin_obj(COMRAM[1]), 

    gpio_pin_read_logic@_pin_config	PTR const struct . size(1) Largest target is 3
		 -> btn_high(COMRAM[3]), btn_low(COMRAM[3]), 

    gpio_pin_read_logic@logic	PTR enum E2494 size(1) Largest target is 1
		 -> button_read_state@pin_logic_status(COMRAM[1]), 

    gpio_pin_toggle_logic@_pin_config	PTR const struct . size(1) Largest target is 1
		 -> led_turn_toggle@pin_obj(COMRAM[1]), 

    gpio_pin_write_logic@_pin_config	PTR const struct . size(1) Largest target is 1
		 -> led_intialize@pin_obj(COMRAM[1]), led_turn_off@pin_obj(COMRAM[1]), led_turn_on@pin_obj(COMRAM[1]), 

    lat_registers	PTR volatile unsigned char [5] size(2) Largest target is 1
		 -> LATA(BITBIGSFRll[1]), LATB(BITBIGSFRlh[1]), LATC(BITBIGSFRlh[1]), LATD(BITBIGSFRlh[1]), 
		 -> LATE(BITBIGSFRlh[1]), 

    led_intialize@led	PTR const struct . size(1) Largest target is 1
		 -> led1(COMRAM[1]), led2(COMRAM[1]), led3(COMRAM[1]), led4(COMRAM[1]), 
		 -> led5(COMRAM[1]), led6(COMRAM[1]), led7(COMRAM[1]), led8(COMRAM[1]), 

    led_turn_off@led	PTR const struct . size(1) Largest target is 1
		 -> led1(COMRAM[1]), led2(COMRAM[1]), led3(COMRAM[1]), led4(COMRAM[1]), 
		 -> led5(COMRAM[1]), led6(COMRAM[1]), led7(COMRAM[1]), led8(COMRAM[1]), 

    led_turn_on@led	PTR const struct . size(1) Largest target is 1
		 -> led1(COMRAM[1]), led2(COMRAM[1]), led3(COMRAM[1]), led4(COMRAM[1]), 
		 -> led5(COMRAM[1]), led6(COMRAM[1]), led7(COMRAM[1]), led8(COMRAM[1]), 

    led_turn_toggle@led	PTR const struct . size(1) Largest target is 1
		 -> led1(COMRAM[1]), led2(COMRAM[1]), led3(COMRAM[1]), led4(COMRAM[1]), 
		 -> led5(COMRAM[1]), led6(COMRAM[1]), led7(COMRAM[1]), led8(COMRAM[1]), 

    port_registers	PTR volatile unsigned char [5] size(2) Largest target is 1
		 -> PORTA(BITBIGSFRll[1]), PORTB(BITBIGSFRll[1]), PORTC(BITBIGSFRll[1]), PORTD(BITBIGSFRll[1]), 
		 -> PORTE(BITBIGSFRll[1]), 

    tris_registers	PTR volatile unsigned char [5] size(2) Largest target is 1
		 -> TRISA(BITBIGSFRll[1]), TRISB(BITBIGSFRh[1]), TRISC(BITBIGSFRh[1]), TRISD(BITBIGSFRh[1]), 
		 -> TRISE(BITBIGSFRh[1]), 


Critical Paths under _main in COMRAM

    _program_4->_led_turn_off
    _program_4->_led_turn_on
    _program_3->_led_turn_off
    _program_3->_led_turn_on
    _program_2->_led_turn_off
    _program_2->_led_turn_on
    _led_turn_on->_gpio_pin_write_logic
    _program_1->_led_turn_off
    _led_turn_toggle->_gpio_pin_toggle_logic
    _led_turn_off->_gpio_pin_write_logic
    _button_read_state->_gpio_pin_read_logic
    _application_intialize->_led_intialize
    _led_intialize->_gpio_pin_intialize
    _gpio_pin_intialize->_gpio_pin_write_logic
    _button_intialize->_gpio_pin_direction_intialize

Critical Paths under _main in BANK0

    None.

Critical Paths under _main in BANK1

    None.

Critical Paths under _main in BANK2

    None.

Critical Paths under _main in BANK3

    None.

Critical Paths under _main in BANK4

    None.

Critical Paths under _main in BANK5

    None.

Critical Paths under _main in BANK6

    None.

Critical Paths under _main in BANK7

    None.

Critical Paths under _main in BANK8

    None.

Critical Paths under _main in BANK9

    None.

Critical Paths under _main in BANK10

    None.

Critical Paths under _main in BANK11

    None.

Critical Paths under _main in BANK12

    None.

Critical Paths under _main in BANK13

    None.

Critical Paths under _main in BANK14

    None.

Critical Paths under _main in BANK15

    None.

Call Graph Tables:

 ---------------------------------------------------------------------------------
 (Depth) Function   	        Calls       Base Space   Used Autos Params    Refs
 ---------------------------------------------------------------------------------
 (0) _main                                                 0     0      0   29296
              _application_intialize
                  _button_read_state
                          _program_1
                          _program_2
                          _program_3
                          _program_4
 ---------------------------------------------------------------------------------
 (1) _program_4                                            3     3      0    4612
                                             11 COMRAM     3     3      0
                       _led_turn_off
                        _led_turn_on
 ---------------------------------------------------------------------------------
 (1) _program_3                                            2     2      0    7600
                                             11 COMRAM     2     2      0
                       _led_turn_off
                        _led_turn_on
                    _led_turn_toggle
 ---------------------------------------------------------------------------------
 (1) _program_2                                            2     2      0    7600
                                             11 COMRAM     2     2      0
                       _led_turn_off
                        _led_turn_on
                    _led_turn_toggle
 ---------------------------------------------------------------------------------
 (2) _led_turn_on                                          4     3      1    1523
                                              8 COMRAM     3     2      1
               _gpio_pin_write_logic
 ---------------------------------------------------------------------------------
 (1) _program_1                                            3     3      0    6123
                                             11 COMRAM     3     3      0
                       _led_turn_off
                    _led_turn_toggle
 ---------------------------------------------------------------------------------
 (2) _led_turn_toggle                                      4     3      1    3034
                                              5 COMRAM     3     2      1
              _gpio_pin_toggle_logic
 ---------------------------------------------------------------------------------
 (3) _gpio_pin_toggle_logic                                6     5      1     172
                                              0 COMRAM     5     4      1
 ---------------------------------------------------------------------------------
 (2) _led_turn_off                                         4     3      1    3043
                                              8 COMRAM     3     2      1
               _gpio_pin_write_logic
 ---------------------------------------------------------------------------------
 (1) _button_read_state                                    5     3      2     887
                                              6 COMRAM     5     3      2
                _gpio_pin_read_logic
 ---------------------------------------------------------------------------------
 (2) _gpio_pin_read_logic                                  7     5      2     292
                                              0 COMRAM     6     4      2
 ---------------------------------------------------------------------------------
 (1) _application_intialize                                0     0      0    2474
                   _button_intialize
                      _led_intialize
 ---------------------------------------------------------------------------------
 (2) _led_intialize                                        4     3      1    1922
                                             11 COMRAM     4     3      1
                 _gpio_pin_intialize
 ---------------------------------------------------------------------------------
 (3) _gpio_pin_intialize                                   3     2      1    1162
                                              8 COMRAM     3     2      1
       _gpio_pin_direction_intialize
               _gpio_pin_write_logic
 ---------------------------------------------------------------------------------
 (3) _gpio_pin_write_logic                                 8     6      2     635
                                              0 COMRAM     8     6      2
 ---------------------------------------------------------------------------------
 (2) _button_intialize                                     2     1      1     552
                                              7 COMRAM     2     1      1
       _gpio_pin_direction_intialize
 ---------------------------------------------------------------------------------
 (4) _gpio_pin_direction_intialize                         7     6      1     331
                                              0 COMRAM     7     6      1
 ---------------------------------------------------------------------------------
 Estimated maximum stack depth 4
 ---------------------------------------------------------------------------------

 Call Graph Graphs:

 _main (ROOT)
   _application_intialize
     _button_intialize
       _gpio_pin_direction_intialize
     _led_intialize
       _gpio_pin_intialize
         _gpio_pin_direction_intialize
         _gpio_pin_write_logic
   _button_read_state
     _gpio_pin_read_logic
   _program_1
     _led_turn_off
       _gpio_pin_write_logic
     _led_turn_toggle
       _gpio_pin_toggle_logic
   _program_2
     _led_turn_off
     _led_turn_on
       _gpio_pin_write_logic
     _led_turn_toggle
   _program_3
     _led_turn_off
     _led_turn_on
     _led_turn_toggle
   _program_4
     _led_turn_off
     _led_turn_on

 Address spaces:
Name               Size   Autos  Total    Cost      Usage
BIGRAM             F7F      0       0      40        0.0%
EEDATA             400      0       0       0        0.0%
BITBANK14          100      0       0      32        0.0%
BANK14             100      0       0      33        0.0%
BITBANK13          100      0       0      30        0.0%
BANK13             100      0       0      31        0.0%
BITBANK12          100      0       0      28        0.0%
BANK12             100      0       0      29        0.0%
BITBANK11          100      0       0      26        0.0%
BANK11             100      0       0      27        0.0%
BITBANK10          100      0       0      24        0.0%
BANK10             100      0       0      25        0.0%
BITBANK9           100      0       0      22        0.0%
BANK9              100      0       0      23        0.0%
BITBANK8           100      0       0      20        0.0%
BANK8              100      0       0      21        0.0%
BITBANK7           100      0       0      18        0.0%
BANK7              100      0       0      19        0.0%
BITBANK6           100      0       0      16        0.0%
BANK6              100      0       0      17        0.0%
BITBANK5           100      0       0      14        0.0%
BANK5              100      0       0      15        0.0%
BITBANK4           100      0       0      12        0.0%
BANK4              100      0       0      13        0.0%
BITBANK3           100      0       0      10        0.0%
BANK3              100      0       0      11        0.0%
BITBANK2           100      0       0       8        0.0%
BANK2              100      0       0       9        0.0%
BITBANK1           100      0       0       6        0.0%
BANK1              100      0       0       7        0.0%
BITBANK15           80      0       0      34        0.0%
BANK15              80      0       0      35        0.0%
BITBANK0            80      0       0       4        0.0%
BANK0               80      0       0       5        0.0%
BITCOMRAM           7F      0       0       0        0.0%
COMRAM              7F      F      4B       1       59.1%
BITBIGSFRh          69      0       0      36        0.0%
BITBIGSFRlh          4      0       0      37        0.0%
BITBIGSFRll          4      0       0      38        0.0%
BIGSFR               0      0       0     200        0.0%
BITSFR               0      0       0     200        0.0%
SFR                  0      0       0     200        0.0%
STACK                0      0       0       2        0.0%
NULL                 0      0       0       0        0.0%
ABS                  0      0      4B      39        0.0%
DATA                 0      0      4B       3        0.0%
CODE                 0      0       0       0        0.0%


Microchip Technology PIC18 Macro Assembler V2.46 build 20240104201356 
Symbol Table                                                                                   Tue May 07 05:40:54 2024

                          _led_intialize 19E8                                        l9 1A04  
                                     l20 1AC0                                       l13 1A56  
                                     l30 1B40                                       l23 1AD6  
                                     l16 1A6C                                       l34 1B90  
                                     l27 1B2A                                       l82 157E  
                      ??_led_turn_toggle 003D                            _btn_low_valid 001F  
                                    l101 168E                                      l122 1C4E  
                                    l115 19E6                                      l108 1964  
                                    l212 1818                                      l215 146C  
                                    l223 175A                                      l218 12FA  
                                    l243 1182                                      l256 1BF6  
                                    l280 18CA                                      l265 1CDE  
                                    l275 18C8                                      u600 14A2  
                                    u601 149E                                      u630 1566  
                                    u614 14C8                                      u550 1594  
                                    u710 1A68                                      u631 1560  
                                    u615 14C4                                      u551 1590  
                                    u711 1A64                                      u624 151E  
                                    u560 15B4                                      u640 1C08  
                                    u625 151A                                      u561 15B0  
                                    u641 1C04                                      u705 1A4A  
                                    u810 1CCA                                      u650 1C28  
                                    u730 1AD2                                      u811 1CC6  
                                    u651 1C24                                      u707 1A4C  
                                    u731 1ACE                                      u636 1568  
                                    u804 1958                                      u660 1976  
                                    u820 1818                                      u900 1032  
                                    u805 1954                                      u661 1972  
                                    u821 1814                                      u725 1AB2  
                                    u901 102E                                      u590 1482  
                                    u574 15DA                                      u670 1996  
                                    u750 1B3C                                      u830 1756  
                                    u910 104C                                      u591 147E  
                                    u575 15D6                                      u671 1992  
                                    u751 1B38                                      u727 1AB4  
                                    u831 1752                                      u911 1048  
                                    u584 162A                                      u840 1832  
                                    u920 1072                                      u585 1626  
                                    u841 182E                                      u745 1B1C  
                                    u921 106E                                      u690 19FC  
                                    u770 18DC                                      u850 1842  
                                    u930 1086                                      u691 19F8  
                                    u771 18D8                                      u851 183E  
                                    u747 1B1E                                      u931 1082  
                                    u780 18EC                                      u860 1870  
                                    u684 19B8                                      u940 10E2  
                                    u781 18E8                                      u861 186C  
                                    u685 19B4                                      u765 1B86  
                                    u941 10DE                                      u790 190C  
                                    u870 1880                                      u950 10FC  
                                    u791 1908                                      u871 187C  
                                    u767 1B88                                      u951 10F8  
                                    u880 18B4                                      u960 1122  
                                    u881 18B0                                      u961 111E  
                                    u890 18C4                                      u970 1136  
                                    u891 18C0                                      u971 1132  
                                    u987 16DE                                      u997 1736  
                                    _ret 004B                                      wreg 0FE8  
                           ?_led_turn_on 003F                                     l1410 14A2  
                                   l1412 14AA                                     l1420 157C  
                                   l1414 1500                                     l1406 146E  
                                   l1430 1C2C                                     l1510 1910  
                                   l1502 18CC                                     l1408 1482  
                                   l1520 1CDC                                     l1424 1BF8  
                                   l1504 18DC                                     l1440 199A  
                                   l1600 1292                                     l1418 1550  
                                   l1514 1CBA                                     l1426 1C08  
                                   l1450 1A3A                                     l1506 18EC  
                                   l1434 1966                                     l1602 12BA  
                                   l1610 1690                                     l1516 1CCA  
                                   l1428 1C28                                     l1452 1A3C  
                                   l1444 19E8                                     l1508 190C  
                                   l1436 1976                                     l1540 1808  
                                   l1524 175C                                     l1460 1A58  
                                   l1604 12D2                                     l1620 16EC  
                                   l1700 1094                                     l1518 1CD2  
                                   l1390 15BC                                     l1454 1A4C  
                                   l1446 19FC                                     l1438 1996  
                                   l1534 17AE                                     l1526 179C  
                                   l1470 1AB4                                     l1462 1A68  
                                   l1550 1364                                     l1542 12FC  
                                   l1606 12DA                                     l1630 1714  
                                   l1622 16F4                                     l1702 109C  
                                   l1710 10D2                                     l1392 160C  
                                   l1384 1580                                     l1448 1A08  
                                   l1456 1A54                                     l1480 1B0C  
                                   l1536 17EE                                     l1528 17AA  
                                   l1464 1A70                                     l1560 13DC  
                                   l1552 138C                                     l1544 133C  
                                   l1608 12E2                                     l1640 1746  
                                   l1632 171C                                     l1624 16FC  
                                   l1616 1694                                     l1720 1110  
                                   l1712 10E2                                     l1704 10A4  
                                   l1386 1594                                     l1650 1842  
                                   l1482 1B0E                                     l1474 1AC2  
                                   l1490 1B3C                                     l1538 1806  
                                   l1466 1AA2                                     l1570 1444  
                                   l1562 13F4                                     l1554 13A4  
                                   l1546 1354                                     l1642 1756  
                                   l1634 1724                                     l1626 1704  
                                   l1618 16D4                                     l1730 1144  
                                   l1722 1122                                     l1714 10E6  
                                   l1396 1662                                     l1388 15B4  
                                   l1644 1B92                                     l1660 188C  
                                   l1652 184A                                     l1484 1B1E  
                                   l1476 1AD2                                     l1492 1B44  
                                   l1468 1AA4                                     l1572 144C  
                                   l1564 13FC                                     l1556 13AC  
                                   l1548 135C                                     l1580 11E2  
                                   l1636 172C                                     l1628 170C  
                                   l1732 114C                                     l1724 1126  
                                   l1716 10FC                                     l1708 10AC  
                                   l1398 168C                                     l1662 189A  
                                   l1654 1856                                     l1670 18C8  
                                   l1646 181A                                     l1478 1ADA  
                                   l1494 1B76                                     l1574 1454  
                                   l1566 1404                                     l1558 13B4  
                                   l1590 123A                                     l1582 11EA  
                                   l1638 1744                                     l1734 1154  
                                   l1726 1136                                     l1718 1104  
                                   l1744 1676                                     l1664 18B4  
                                   l1656 1870                                     l1648 1832  
                                   l1496 1B78                                     l1488 1B2C  
                                   l1568 142C                                     l1592 1242  
                                   l1584 11F2                                     l1576 118A  
                                   l1728 113C                                     l1680 1022  
                                   l1658 1880                                     l1498 1B88  
                                   l1594 126A                                     l1586 121A  
                                   l1578 11CA                                     l1738 115C  
                                   l1690 1060                                     l1682 1032  
                                   l1674 1002                                     l1596 1282  
                                   l1588 1232                                     l1692 1072  
                                   l1684 1036                                     l1676 1006  
                                   l1598 128A                                     l1694 1076  
                                   l1686 104C                                     l1678 1014  
                                   l1696 1086                                     l1688 1054  
                                   l1698 108C                           _btn_low_status 002D  
                                   u1007 11D4                                     u1017 11FC  
                                   u1107 1396                                     u1027 1224  
                                   u1117 13BE                                     u1037 124C  
                                   u1127 13E6                                     u1047 1274  
                                   u1137 140E                                     u1057 129C  
                                   u1147 1436                                     u1067 12C4  
                                   u1157 145E                                     u1077 12EC  
                                   _LATA 0F89                                     _LATB 0F8A  
                                   u1167 17A2                                     u1087 1346  
                                   _LATC 0F8B                                     _LATD 0F8C  
                                   u1177 17F8                                     u1097 136E  
                                   _LATE 0F8D                  ??_application_intialize 0046  
                                   _led1 0036                                     _led2 0035  
                                   _led3 0034                                     _led4 0033  
                                   _led5 0032                                     _led6 0031  
                                   _led7 0030                                     _led8 002F  
         gpio_pin_read_logic@_pin_config 0037                                     _main 1002  
                                   fsr1h 0FE2                                     fsr2h 0FDA  
                                   indf1 0FE7                                     indf2 0FDF  
                                   fsr1l 0FE1                                     fsr2l 0FD9  
                                   prodl 0FF3                                     start 0000  
                          ?_led_turn_off 003F                           ?_led_intialize 0042  
                           ___param_bank 0000                   ?_gpio_pin_toggle_logic 0037  
                   _gpio_pin_write_logic 1580                                    ?_main 0037  
                                  _PORTA 0F80                                    _PORTB 0F81  
                                  _PORTC 0F82                                    _PORTD 0F83  
                                  _PORTE 0F84                                    _TRISA 0F92  
                                  _TRISB 0F93                                    _TRISC 0F94  
                                  _TRISD 0F95                                    _TRISE 0F96  
                      ?_button_intialize 003E                       ??_button_intialize 003F  
                                  tablat 0FF5                                    status 0FD8  
                         ??_led_turn_off 0040                          __initialization 1C86  
                           __end_of_main 118A                    ?_gpio_pin_write_logic 0037  
               gpio_pin_read_logic@logic 0038                            _lat_registers 000B  
                                 ??_main 0046                            __activetblptr 0002  
                       led_turn_on@F2579 0049                        _button_read_state 181A  
                     ?_button_read_state 003D         gpio_pin_toggle_logic@_pin_config 0037  
                        ??_led_intialize 0043                      ??_button_read_state 003F  
                       led_intialize@led 0042                         led_intialize@ret 0044  
                                 isa$std 0001  gpio_pin_direction_intialize@_pin_config 0037  
                           __pdataCOMRAM 0001                             __mediumconst 0000  
              __end_of_button_read_state 18CC                                   tblptrh 0FF7  
                                 tblptrl 0FF6                                   tblptru 0FF8  
                             __accesstop 0080                  __end_of__initialization 1CB0  
                          ___rparam_used 0001                          _led_turn_toggle 1B2C  
                 ??_gpio_pin_write_logic 0039                           __pcstackCOMRAM 0037  
                   __end_of_led_turn_off 1B2C                               __pnvCOMRAM 004B  
          __end_of_application_intialize 1BF8                  ??_gpio_pin_toggle_logic 0038  
                   button_read_state@btn 003D                     button_read_state@ret 0040  
                      led_turn_off@F2584 0048                     led_turn_toggle@F2589 0047  
                __end_of_led_turn_toggle 1B92                           _tris_registers 0015  
                                __Hparam 0000                                  __Lparam 0000  
                   led_intialize@pin_obj 0045                      _gpio_pin_read_logic 18CC  
                           __psmallconst 1000               __end_of_gpio_pin_intialize 1C50  
                  _btn_high_valid_status 0026                                  __pcinit 1C86  
                                __ramtop 1000                                  __ptext0 1002  
                                __ptext1 1690                                  __ptext2 118A  
                                __ptext3 12FC                                  __ptext4 1A58  
                                __ptext5 175C                                  __ptext6 1B2C  
                                __ptext7 1966                                  __ptext8 1AC2  
                                __ptext9 181A                                  _btn_low 0027  
                   ?_gpio_pin_read_logic 0037                     end_of_initialization 1CB0  
                          __Lmediumconst 0000                    gpio_pin_intialize@ret 0041  
                    led_turn_off@pin_obj 0041                        __end_of_program_1 181A  
                      __end_of_program_2 146E                        __end_of_program_3 12FC  
                      __end_of_program_4 175C                                  postdec1 0FE5  
                                postdec2 0FDD                                  postinc0 0FEE  
                                postinc1 0FE6                                  postinc2 0FDE  
             button_read_state@btn_state 003E            gpio_pin_intialize@_pin_config 003F  
   __end_of_gpio_pin_direction_intialize 1580             _gpio_pin_direction_intialize 146E  
                  ??_gpio_pin_read_logic 0039                         ?_led_turn_toggle 003C  
                           _led_turn_off 1AC2                    __end_of_led_intialize 1A58  
                          __pidataCOMRAM 1C50                     _btn_low_valid_status 0024  
                    start_initialization 1C86                            ??_led_turn_on 0040  
                 led_turn_toggle@pin_obj 003E            ?_gpio_pin_direction_intialize 0037  
                       _button_intialize 1CBA                          led_turn_off@led 003F  
          __end_of_gpio_pin_toggle_logic 19E8                              __pbssCOMRAM 0046  
                    __end_of_led_turn_on 1AC2               _btn_high_last_valid_status 0025  
        gpio_pin_direction_intialize@ret 003D                    _application_intialize 1B92  
        gpio_pin_write_logic@_pin_config 0037        button_read_state@pin_logic_status 0041  
              gpio_pin_write_logic@logic 0038                              __smallconst 1000  
                     _gpio_pin_intialize 1BF8           ??_gpio_pin_direction_intialize 0038  
                    button_intialize@btn 003E                      button_intialize@ret 003F  
                    ?_gpio_pin_intialize 003F                       led_turn_on@pin_obj 0041  
                              _program_1 175C                                _program_2 12FC  
                              _program_3 118A                                _program_4 1690  
                   ??_gpio_pin_intialize 0040                         _program_selected 0046  
                            _led_turn_on 1A58                               program_1@i 0044  
                             program_4@i 0044                  gpio_pin_write_logic@ret 003E  
                              copy_data0 1C9A                   ?_application_intialize 0037  
                         led_turn_on@led 003F                                 __Hrparam 0000  
                               __Lrparam 0000                               ?_program_1 0037  
                             ?_program_2 0037                               ?_program_3 0037  
                             ?_program_4 0037              __end_of_gpio_pin_read_logic 1966  
               __end_of_button_intialize 1CE0                       led_intialize@F2574 004A  
                               __ptext10 18CC                                 __ptext11 1B92  
                               __ptext12 19E8                                 __ptext13 1BF8  
                               __ptext14 1580                                 __ptext15 1CBA  
                               __ptext16 146E                                 _btn_high 002A  
                     led_turn_toggle@led 003C                                 isa$xinst 0000  
                        _btn_high_status 002E             __end_of_gpio_pin_write_logic 1690  
              _btn_low_last_valid_status 0023                    _gpio_pin_toggle_logic 1966  
                            ??_program_1 0042                              ??_program_2 0042  
                            ??_program_3 0042                              ??_program_4 0042  
                         _btn_high_valid 0021                           _port_registers 0001  
